GAS LISTING /tmp/ccoOhsEl.s 			page 1


   1              		.file	"BBuff.cpp"
   2              		.option pic
   3              		.option norelax
   4              		.text
   5              	.Ltext0:
   6              		.align	2
   7              		.globl	_ZN5BBuffC2Ei
   9              	_ZN5BBuffC2Ei:
  10              	.LFB21:
  11              		.file 1 "src/BBuff.cpp"
   1:src/BBuff.cpp **** #include "../h/BBuff.hpp"
   2:src/BBuff.cpp **** #include "../h/MemoryAllocator.hpp"
   3:src/BBuff.cpp **** 
   4:src/BBuff.cpp **** BBuff::BBuff(int size)
  12              		.loc 1 4 1
  13              		.cfi_startproc
  14              	.LVL0:
  15 0000 130101FE 		addi	sp,sp,-32
  16              		.cfi_def_cfa_offset 32
  17 0004 233C1100 		sd	ra,24(sp)
  18 0008 23388100 		sd	s0,16(sp)
  19 000c 23349100 		sd	s1,8(sp)
  20 0010 23302101 		sd	s2,0(sp)
  21              		.cfi_offset 1, -8
  22              		.cfi_offset 8, -16
  23              		.cfi_offset 9, -24
  24              		.cfi_offset 18, -32
  25 0014 13040102 		addi	s0,sp,32
  26              		.cfi_def_cfa 8, 0
  27 0018 93040500 		mv	s1,a0
  28 001c 13890500 		mv	s2,a1
  29              	.LBB6:
   5:src/BBuff.cpp **** {
   6:src/BBuff.cpp ****     this->size = size;
  30              		.loc 1 6 5
  31              		.loc 1 6 16 is_stmt 0
  32 0020 2324B500 		sw	a1,8(a0)
   7:src/BBuff.cpp ****     head=0;
  33              		.loc 1 7 5 is_stmt 1
  34              		.loc 1 7 9 is_stmt 0
  35 0024 23260500 		sw	zero,12(a0)
   8:src/BBuff.cpp ****     tail=0;
  36              		.loc 1 8 5 is_stmt 1
  37              		.loc 1 8 9 is_stmt 0
  38 0028 23280500 		sw	zero,16(a0)
   9:src/BBuff.cpp ****     count=0;
  39              		.loc 1 9 5 is_stmt 1
  40              		.loc 1 9 10 is_stmt 0
  41 002c 23240502 		sw	zero,40(a0)
  10:src/BBuff.cpp ****     buff=(char*) MemoryAllocator::Instance()->mem_alloc(sizeof(char)*size);
  42              		.loc 1 10 5 is_stmt 1
  43              		.loc 1 10 56 is_stmt 0
  44 0030 97000000 		call	_ZN15MemoryAllocator8InstanceEv@plt
  44      E7800000 
  45              	.LVL1:
  46 0038 93050900 		mv	a1,s2
  47 003c 97000000 		call	_ZN15MemoryAllocator9mem_allocEm@plt
GAS LISTING /tmp/ccoOhsEl.s 			page 2


  47      E7800000 
  48              	.LVL2:
  49              		.loc 1 10 9
  50 0044 23B0A400 		sd	a0,0(s1)
  11:src/BBuff.cpp ****     sem_open(&space,size);
  51              		.loc 1 11 5 is_stmt 1
  52              		.loc 1 11 13 is_stmt 0
  53 0048 93050900 		mv	a1,s2
  54 004c 13858401 		addi	a0,s1,24
  55 0050 97000000 		call	_Z8sem_openPP3SEMj@plt
  55      E7800000 
  56              	.LVL3:
  12:src/BBuff.cpp ****     sem_open(&items,0);
  57              		.loc 1 12 5 is_stmt 1
  58              		.loc 1 12 13 is_stmt 0
  59 0058 93050000 		li	a1,0
  60 005c 13850402 		addi	a0,s1,32
  61 0060 97000000 		call	_Z8sem_openPP3SEMj@plt
  61      E7800000 
  62              	.LVL4:
  63              	.LBE6:
  13:src/BBuff.cpp **** }
  64              		.loc 1 13 1
  65 0068 83308101 		ld	ra,24(sp)
  66              		.cfi_restore 1
  67 006c 03340101 		ld	s0,16(sp)
  68              		.cfi_restore 8
  69              		.cfi_def_cfa 2, 32
  70 0070 83348100 		ld	s1,8(sp)
  71              		.cfi_restore 9
  72              	.LVL5:
  73 0074 03390100 		ld	s2,0(sp)
  74              		.cfi_restore 18
  75 0078 13010102 		addi	sp,sp,32
  76              		.cfi_def_cfa_offset 0
  77 007c 67800000 		jr	ra
  78              		.cfi_endproc
  79              	.LFE21:
  81              		.globl	_ZN5BBuffC1Ei
  82              		.set	_ZN5BBuffC1Ei,_ZN5BBuffC2Ei
  83              		.align	2
  84              		.globl	_ZN5BBuffD2Ev
  86              	_ZN5BBuffD2Ev:
  87              	.LFB24:
  14:src/BBuff.cpp **** 
  15:src/BBuff.cpp **** BBuff::~BBuff()
  88              		.loc 1 15 1 is_stmt 1
  89              		.cfi_startproc
  90              		.cfi_personality 0x9b,DW.ref.__gxx_personality_v0
  91              		.cfi_lsda 0x1b,.LLSDA24
  92              	.LVL6:
  93 0080 130101FE 		addi	sp,sp,-32
  94              		.cfi_def_cfa_offset 32
  95 0084 233C1100 		sd	ra,24(sp)
  96 0088 23388100 		sd	s0,16(sp)
  97 008c 23349100 		sd	s1,8(sp)
  98              		.cfi_offset 1, -8
GAS LISTING /tmp/ccoOhsEl.s 			page 3


  99              		.cfi_offset 8, -16
 100              		.cfi_offset 9, -24
 101 0090 13040102 		addi	s0,sp,32
 102              		.cfi_def_cfa 8, 0
 103 0094 93040500 		mv	s1,a0
 104              	.LBB7:
  16:src/BBuff.cpp **** {
  17:src/BBuff.cpp ****     MemoryAllocator::Instance()->mem_free(buff);
 105              		.loc 1 17 5
 106              		.loc 1 17 42 is_stmt 0
 107 0098 97000000 		call	_ZN15MemoryAllocator8InstanceEv@plt
 107      E7800000 
 108              	.LVL7:
 109 00a0 83B50400 		ld	a1,0(s1)
 110 00a4 97000000 		call	_ZN15MemoryAllocator8mem_freeEPv@plt
 110      E7800000 
 111              	.LVL8:
  18:src/BBuff.cpp ****     sem_close(space);
 112              		.loc 1 18 5 is_stmt 1
 113              		.loc 1 18 14 is_stmt 0
 114 00ac 03B58401 		ld	a0,24(s1)
 115 00b0 97000000 		call	_Z9sem_closeP3SEM@plt
 115      E7800000 
 116              	.LVL9:
  19:src/BBuff.cpp ****     sem_close(items);
 117              		.loc 1 19 5 is_stmt 1
 118              		.loc 1 19 14 is_stmt 0
 119 00b8 03B50402 		ld	a0,32(s1)
 120 00bc 97000000 		call	_Z9sem_closeP3SEM@plt
 120      E7800000 
 121              	.LVL10:
 122              	.LBE7:
  20:src/BBuff.cpp **** }
 123              		.loc 1 20 1
 124 00c4 83308101 		ld	ra,24(sp)
 125              		.cfi_restore 1
 126 00c8 03340101 		ld	s0,16(sp)
 127              		.cfi_restore 8
 128              		.cfi_def_cfa 2, 32
 129 00cc 83348100 		ld	s1,8(sp)
 130              		.cfi_restore 9
 131              	.LVL11:
 132 00d0 13010102 		addi	sp,sp,32
 133              		.cfi_def_cfa_offset 0
 134 00d4 67800000 		jr	ra
 135              		.cfi_endproc
 136              	.LFE24:
 137              		.globl	__gxx_personality_v0
 138              		.section	.gcc_except_table,"a",@progbits
 139              	.LLSDA24:
 140 0000 FF       		.byte	0xff
 141 0001 FF       		.byte	0xff
 142 0002 03       		.byte	0x3
 143 0003 00       		.byte	0
 144              		.text
 146              		.globl	_ZN5BBuffD1Ev
 147              		.set	_ZN5BBuffD1Ev,_ZN5BBuffD2Ev
GAS LISTING /tmp/ccoOhsEl.s 			page 4


 148              		.align	2
 149              		.globl	_ZN5BBuff3putEc
 151              	_ZN5BBuff3putEc:
 152              	.LFB26:
  21:src/BBuff.cpp **** 
  22:src/BBuff.cpp **** void BBuff::put(char c) {
 153              		.loc 1 22 25 is_stmt 1
 154              		.cfi_startproc
 155              	.LVL12:
 156 00d8 130101FE 		addi	sp,sp,-32
 157              		.cfi_def_cfa_offset 32
 158 00dc 233C1100 		sd	ra,24(sp)
 159 00e0 23388100 		sd	s0,16(sp)
 160 00e4 23349100 		sd	s1,8(sp)
 161 00e8 23302101 		sd	s2,0(sp)
 162              		.cfi_offset 1, -8
 163              		.cfi_offset 8, -16
 164              		.cfi_offset 9, -24
 165              		.cfi_offset 18, -32
 166 00ec 13040102 		addi	s0,sp,32
 167              		.cfi_def_cfa 8, 0
 168 00f0 93040500 		mv	s1,a0
 169 00f4 13890500 		mv	s2,a1
  23:src/BBuff.cpp ****     sem_wait(space);
 170              		.loc 1 23 5
 171              		.loc 1 23 13 is_stmt 0
 172 00f8 03358501 		ld	a0,24(a0)
 173              	.LVL13:
 174 00fc 97000000 		call	_Z8sem_waitP3SEM@plt
 174      E7800000 
 175              	.LVL14:
  24:src/BBuff.cpp ****     if (TCB::running->isBlocked()) {
 176              		.loc 1 24 5 is_stmt 1
 177              		.loc 1 24 32 is_stmt 0
 178 0104 97070000 		la	a5,_ZN3TCB7runningE
 178      83B70700 
 179 010c 83B70700 		ld	a5,0(a5)
 180              	.LVL15:
 181              	.LBB8:
 182              	.LBB9:
 183              		.file 2 "src/../h/../h/TCB.hpp"
   1:src/../h/../h/TCB.hpp **** //
   2:src/../h/../h/TCB.hpp **** // Created by os on 9/23/25.
   3:src/../h/../h/TCB.hpp **** //
   4:src/../h/../h/TCB.hpp **** 
   5:src/../h/../h/TCB.hpp **** #ifndef PROJECT_BASE_V1_1_COPY_TCB_HPP
   6:src/../h/../h/TCB.hpp **** #define PROJECT_BASE_V1_1_COPY_TCB_HPP
   7:src/../h/../h/TCB.hpp **** #include "../lib/hw.h"
   8:src/../h/../h/TCB.hpp **** #include "../h/Scheduler.hpp"
   9:src/../h/../h/TCB.hpp **** #include "../h/MemoryAllocator.hpp"
  10:src/../h/../h/TCB.hpp **** 
  11:src/../h/../h/TCB.hpp **** class TCB
  12:src/../h/../h/TCB.hpp **** {
  13:src/../h/../h/TCB.hpp **** public:
  14:src/../h/../h/TCB.hpp ****     void* operator new(size_t size)
  15:src/../h/../h/TCB.hpp **** {
  16:src/../h/../h/TCB.hpp ****     return MemoryAllocator::Instance()->mem_alloc(size);
GAS LISTING /tmp/ccoOhsEl.s 			page 5


  17:src/../h/../h/TCB.hpp **** }
  18:src/../h/../h/TCB.hpp **** 
  19:src/../h/../h/TCB.hpp ****     void operator delete(void* ptr)
  20:src/../h/../h/TCB.hpp ****     {
  21:src/../h/../h/TCB.hpp ****         return MemoryAllocator::Instance()->mem_free(ptr);
  22:src/../h/../h/TCB.hpp ****     }
  23:src/../h/../h/TCB.hpp **** 
  24:src/../h/../h/TCB.hpp **** 
  25:src/../h/../h/TCB.hpp ****     using Body=void(*)(void*);
  26:src/../h/../h/TCB.hpp **** 
  27:src/../h/../h/TCB.hpp ****     ~TCB()
  28:src/../h/../h/TCB.hpp ****     {
  29:src/../h/../h/TCB.hpp ****         delete stack;
  30:src/../h/../h/TCB.hpp ****     }
  31:src/../h/../h/TCB.hpp **** 
  32:src/../h/../h/TCB.hpp ****     static TCB* createThread(Body body, void* arg, uint64* stack);
  33:src/../h/../h/TCB.hpp **** 
  34:src/../h/../h/TCB.hpp ****     static void dispatch();
  35:src/../h/../h/TCB.hpp ****     static int exit();
  36:src/../h/../h/TCB.hpp ****     static void InitOutputThread();
  37:src/../h/../h/TCB.hpp **** 
  38:src/../h/../h/TCB.hpp **** 
  39:src/../h/../h/TCB.hpp ****     bool isFinished() const { return finished;}
  40:src/../h/../h/TCB.hpp ****     void block() { this->blocked = true; }
  41:src/../h/../h/TCB.hpp ****     void unblock() { this->blocked = false; }
  42:src/../h/../h/TCB.hpp ****     bool isBlocked() const { return blocked; }
 184              		.loc 2 42 30 is_stmt 1
 185              		.loc 2 42 37 is_stmt 0
 186 0110 83C70703 		lbu	a5,48(a5)
 187              	.LVL16:
 188              	.LBE9:
 189              	.LBE8:
 190              		.loc 1 24 5
 191 0114 639C0704 		bnez	a5,.L8
 192              	.L6:
  25:src/BBuff.cpp ****         thread_dispatch();
  26:src/BBuff.cpp ****     }
  27:src/BBuff.cpp ****     buff[tail]=c;
 193              		.loc 1 27 5 is_stmt 1
 194 0118 83B70400 		ld	a5,0(s1)
 195              		.loc 1 27 10 is_stmt 0
 196 011c 03A70401 		lw	a4,16(s1)
 197              		.loc 1 27 14
 198 0120 B387E700 		add	a5,a5,a4
 199              		.loc 1 27 15
 200 0124 23802701 		sb	s2,0(a5)
  28:src/BBuff.cpp ****     tail=(tail+1)%size;
 201              		.loc 1 28 5 is_stmt 1
 202              		.loc 1 28 11 is_stmt 0
 203 0128 83A70401 		lw	a5,16(s1)
 204              		.loc 1 28 15
 205 012c 9B871700 		addiw	a5,a5,1
 206              		.loc 1 28 19
 207 0130 03A78400 		lw	a4,8(s1)
 208              		.loc 1 28 18
 209 0134 BBE7E702 		remw	a5,a5,a4
 210              		.loc 1 28 9
GAS LISTING /tmp/ccoOhsEl.s 			page 6


 211 0138 23A8F400 		sw	a5,16(s1)
  29:src/BBuff.cpp ****     count++;
 212              		.loc 1 29 5 is_stmt 1
 213 013c 83A78402 		lw	a5,40(s1)
 214              		.loc 1 29 10 is_stmt 0
 215 0140 9B871700 		addiw	a5,a5,1
 216 0144 23A4F402 		sw	a5,40(s1)
  30:src/BBuff.cpp ****     sem_signal(items);
 217              		.loc 1 30 5 is_stmt 1
 218              		.loc 1 30 15 is_stmt 0
 219 0148 03B50402 		ld	a0,32(s1)
 220 014c 97000000 		call	_Z10sem_signalP3SEM@plt
 220      E7800000 
 221              	.LVL17:
  31:src/BBuff.cpp **** 
  32:src/BBuff.cpp **** }
 222              		.loc 1 32 1
 223 0154 83308101 		ld	ra,24(sp)
 224              		.cfi_remember_state
 225              		.cfi_restore 1
 226 0158 03340101 		ld	s0,16(sp)
 227              		.cfi_restore 8
 228              		.cfi_def_cfa 2, 32
 229 015c 83348100 		ld	s1,8(sp)
 230              		.cfi_restore 9
 231              	.LVL18:
 232 0160 03390100 		ld	s2,0(sp)
 233              		.cfi_restore 18
 234 0164 13010102 		addi	sp,sp,32
 235              		.cfi_def_cfa_offset 0
 236 0168 67800000 		jr	ra
 237              	.LVL19:
 238              	.L8:
 239              		.cfi_restore_state
  25:src/BBuff.cpp ****     }
 240              		.loc 1 25 9 is_stmt 1
  25:src/BBuff.cpp ****     }
 241              		.loc 1 25 24 is_stmt 0
 242 016c 97000000 		call	_Z15thread_dispatchv@plt
 242      E7800000 
 243              	.LVL20:
 244 0174 6FF05FFA 		j	.L6
 245              		.cfi_endproc
 246              	.LFE26:
 248              		.align	2
 249              		.globl	_ZN5BBuff3getEv
 251              	_ZN5BBuff3getEv:
 252              	.LFB27:
  33:src/BBuff.cpp **** 
  34:src/BBuff.cpp **** char BBuff::get() {
 253              		.loc 1 34 19 is_stmt 1
 254              		.cfi_startproc
 255              	.LVL21:
 256 0178 130101FE 		addi	sp,sp,-32
 257              		.cfi_def_cfa_offset 32
 258 017c 233C1100 		sd	ra,24(sp)
 259 0180 23388100 		sd	s0,16(sp)
GAS LISTING /tmp/ccoOhsEl.s 			page 7


 260 0184 23349100 		sd	s1,8(sp)
 261 0188 23302101 		sd	s2,0(sp)
 262              		.cfi_offset 1, -8
 263              		.cfi_offset 8, -16
 264              		.cfi_offset 9, -24
 265              		.cfi_offset 18, -32
 266 018c 13040102 		addi	s0,sp,32
 267              		.cfi_def_cfa 8, 0
 268 0190 93040500 		mv	s1,a0
  35:src/BBuff.cpp ****     sem_wait(items);
 269              		.loc 1 35 5
 270              		.loc 1 35 13 is_stmt 0
 271 0194 03350502 		ld	a0,32(a0)
 272              	.LVL22:
 273 0198 97000000 		call	_Z8sem_waitP3SEM@plt
 273      E7800000 
 274              	.LVL23:
  36:src/BBuff.cpp ****     if (TCB::running->isBlocked()) {
 275              		.loc 1 36 5 is_stmt 1
 276              		.loc 1 36 32 is_stmt 0
 277 01a0 97070000 		la	a5,_ZN3TCB7runningE
 277      83B70700 
 278 01a8 83B70700 		ld	a5,0(a5)
 279              	.LVL24:
 280              	.LBB10:
 281              	.LBB11:
 282              		.loc 2 42 30 is_stmt 1
 283              		.loc 2 42 37 is_stmt 0
 284 01ac 83C70703 		lbu	a5,48(a5)
 285              	.LVL25:
 286              	.LBE11:
 287              	.LBE10:
 288              		.loc 1 36 5
 289 01b0 639C0704 		bnez	a5,.L12
 290              	.L10:
  37:src/BBuff.cpp ****         thread_dispatch();
  38:src/BBuff.cpp ****     }
  39:src/BBuff.cpp ****     char c=buff[head];
 291              		.loc 1 39 5 is_stmt 1
 292              		.loc 1 39 12 is_stmt 0
 293 01b4 03B70400 		ld	a4,0(s1)
 294              		.loc 1 39 17
 295 01b8 83A7C400 		lw	a5,12(s1)
 296              		.loc 1 39 21
 297 01bc 3307F700 		add	a4,a4,a5
 298              		.loc 1 39 10
 299 01c0 03490700 		lbu	s2,0(a4)
 300              	.LVL26:
  40:src/BBuff.cpp ****     head=(head+1)%size;
 301              		.loc 1 40 5 is_stmt 1
 302              		.loc 1 40 15 is_stmt 0
 303 01c4 9B871700 		addiw	a5,a5,1
 304              		.loc 1 40 19
 305 01c8 03A78400 		lw	a4,8(s1)
 306              		.loc 1 40 18
 307 01cc BBE7E702 		remw	a5,a5,a4
 308              		.loc 1 40 9
GAS LISTING /tmp/ccoOhsEl.s 			page 8


 309 01d0 23A6F400 		sw	a5,12(s1)
  41:src/BBuff.cpp ****     count--;
 310              		.loc 1 41 5 is_stmt 1
 311 01d4 83A78402 		lw	a5,40(s1)
 312              		.loc 1 41 10 is_stmt 0
 313 01d8 9B87F7FF 		addiw	a5,a5,-1
 314 01dc 23A4F402 		sw	a5,40(s1)
  42:src/BBuff.cpp ****     sem_signal(space);
 315              		.loc 1 42 5 is_stmt 1
 316              		.loc 1 42 15 is_stmt 0
 317 01e0 03B58401 		ld	a0,24(s1)
 318 01e4 97000000 		call	_Z10sem_signalP3SEM@plt
 318      E7800000 
 319              	.LVL27:
  43:src/BBuff.cpp ****     return c;
 320              		.loc 1 43 5 is_stmt 1
  44:src/BBuff.cpp **** }
 321              		.loc 1 44 1 is_stmt 0
 322 01ec 13050900 		mv	a0,s2
 323 01f0 83308101 		ld	ra,24(sp)
 324              		.cfi_remember_state
 325              		.cfi_restore 1
 326 01f4 03340101 		ld	s0,16(sp)
 327              		.cfi_restore 8
 328              		.cfi_def_cfa 2, 32
 329 01f8 83348100 		ld	s1,8(sp)
 330              		.cfi_restore 9
 331              	.LVL28:
 332 01fc 03390100 		ld	s2,0(sp)
 333              		.cfi_restore 18
 334              	.LVL29:
 335 0200 13010102 		addi	sp,sp,32
 336              		.cfi_def_cfa_offset 0
 337 0204 67800000 		jr	ra
 338              	.LVL30:
 339              	.L12:
 340              		.cfi_restore_state
  37:src/BBuff.cpp ****     }
 341              		.loc 1 37 9 is_stmt 1
  37:src/BBuff.cpp ****     }
 342              		.loc 1 37 24 is_stmt 0
 343 0208 97000000 		call	_Z15thread_dispatchv@plt
 343      E7800000 
 344              	.LVL31:
 345 0210 6FF05FFA 		j	.L10
 346              		.cfi_endproc
 347              	.LFE27:
 349              	.Letext0:
 350              		.file 3 "src/../h/../h/../lib/hw.h"
 351              		.file 4 "src/../h/../h/../h/List.hpp"
 352              		.file 5 "src/../h/../h/../h/MemoryAllocator.hpp"
 353              		.file 6 "src/../h/../h/SEM.hpp"
 354              		.file 7 "src/../h/../h/syscall_c.hpp"
 355              		.file 8 "src/../h/BBuff.hpp"
 2871              		.align	3
 2874              	DW.ref.__gxx_personality_v0:
 2875 0000 00000000 		.dword	__gxx_personality_v0
GAS LISTING /tmp/ccoOhsEl.s 			page 9


 2875      00000000 
 2876              		.ident	"GCC: (Ubuntu 9.4.0-1ubuntu1~20.04) 9.4.0"
 2877              		.section	.note.GNU-stack,"",@progbits
GAS LISTING /tmp/ccoOhsEl.s 			page 10

