GAS LISTING /tmp/ccKBiHaz.s 			page 1


   1              		.file	"main.cpp"
   2              		.option pic
   3              		.option norelax
   4              		.text
   5              	.Ltext0:
   6              		.section	.rodata.str1.8,"aMS",@progbits,1
   7              		.align	3
   8              	.LC0:
   9 0000 75736572 		.string	"user main start:\n"
   9      206D6169 
   9      6E207374 
   9      6172743A 
   9      0A00
  10 0012 00000000 		.align	3
  10      0000
  11              	.LC1:
  12 0018 75736572 		.string	"user main end:\n"
  12      206D6169 
  12      6E20656E 
  12      643A0A00 
  13              		.text
  14              		.align	2
  15              		.globl	_Z11userWrapperPv
  17              	_Z11userWrapperPv:
  18              	.LFB24:
  19              		.file 1 "src/main.cpp"
   1:src/main.cpp  **** 
   2:src/main.cpp  **** #include "../lib/console.h"
   3:src/main.cpp  **** #include  "../lib/hw.h"
   4:src/main.cpp  **** #include "../h/MemoryAllocator.hpp"
   5:src/main.cpp  **** #include "../h/syscall_c.hpp"
   6:src/main.cpp  **** #include  "../h/syscall_cpp.hpp"
   7:src/main.cpp  **** #include "../h/Riscv.hpp"
   8:src/main.cpp  **** #include "../h/print.hpp"
   9:src/main.cpp  **** #include "../h/List.hpp"
  10:src/main.cpp  **** #include  "../h/TCB.hpp"
  11:src/main.cpp  **** #include "../h/workers.hpp"
  12:src/main.cpp  **** 
  13:src/main.cpp  **** 
  14:src/main.cpp  **** 
  15:src/main.cpp  **** 
  16:src/main.cpp  **** 
  17:src/main.cpp  **** void AllocatorTest() {
  18:src/main.cpp  ****     uint64* a1=new uint64;
  19:src/main.cpp  ****     *a1=4;
  20:src/main.cpp  ****     __putc(*a1+'0');
  21:src/main.cpp  ****     __putc('\n');
  22:src/main.cpp  ****     uint64* a2=new uint64;
  23:src/main.cpp  ****     *a2=5;
  24:src/main.cpp  ****     __putc(*a2+'0');
  25:src/main.cpp  ****     __putc('\n');
  26:src/main.cpp  ****     uint64* a3=new uint64;
  27:src/main.cpp  ****     *a3=6;
  28:src/main.cpp  ****     __putc(*a3+'0');
  29:src/main.cpp  ****     __putc('\n');
  30:src/main.cpp  ****     uint64* a4=new uint64;
  31:src/main.cpp  ****     *a4=7;
GAS LISTING /tmp/ccKBiHaz.s 			page 2


  32:src/main.cpp  ****     __putc(*a4+'0');
  33:src/main.cpp  ****     __putc('\n');
  34:src/main.cpp  ****     uint64* a5=new uint64;
  35:src/main.cpp  ****     *a5=8;
  36:src/main.cpp  ****     __putc(*a5+'0');
  37:src/main.cpp  ****     __putc('\n');
  38:src/main.cpp  ****     delete a1;
  39:src/main.cpp  ****     delete a3;
  40:src/main.cpp  ****     delete a4;
  41:src/main.cpp  ****     uint64* a6=new uint64;
  42:src/main.cpp  ****     *a6=9;
  43:src/main.cpp  ****     __putc(*a6+'0');
  44:src/main.cpp  ****     __putc('\n');
  45:src/main.cpp  **** }
  46:src/main.cpp  **** extern void userMain();
  47:src/main.cpp  **** 
  48:src/main.cpp  **** void userWrapper(void* arg)
  49:src/main.cpp  **** {
  20              		.loc 1 49 1
  21              		.cfi_startproc
  22              	.LVL0:
  23 0000 130101FF 		addi	sp,sp,-16
  24              		.cfi_def_cfa_offset 16
  25 0004 23341100 		sd	ra,8(sp)
  26 0008 23308100 		sd	s0,0(sp)
  27              		.cfi_offset 1, -8
  28              		.cfi_offset 8, -16
  29 000c 13040101 		addi	s0,sp,16
  30              		.cfi_def_cfa 8, 0
  50:src/main.cpp  ****     printString("user main start:\n");
  31              		.loc 1 50 5
  32              		.loc 1 50 16 is_stmt 0
  33 0010 17050000 		lla	a0,.LC0
  33      13050500 
  34              	.LVL1:
  35 0018 97000000 		call	_Z11printStringPKc@plt
  35      E7800000 
  36              	.LVL2:
  51:src/main.cpp  ****     userMain();
  37              		.loc 1 51 5 is_stmt 1
  38              		.loc 1 51 13 is_stmt 0
  39 0020 97000000 		call	_Z8userMainv@plt
  39      E7800000 
  40              	.LVL3:
  52:src/main.cpp  ****     printString("user main end:\n");
  41              		.loc 1 52 5 is_stmt 1
  42              		.loc 1 52 16 is_stmt 0
  43 0028 17050000 		lla	a0,.LC1
  43      13050500 
  44 0030 97000000 		call	_Z11printStringPKc@plt
  44      E7800000 
  45              	.LVL4:
  53:src/main.cpp  **** }
  46              		.loc 1 53 1
  47 0038 83308100 		ld	ra,8(sp)
  48              		.cfi_restore 1
  49 003c 03340100 		ld	s0,0(sp)
GAS LISTING /tmp/ccKBiHaz.s 			page 3


  50              		.cfi_restore 8
  51              		.cfi_def_cfa 2, 16
  52 0040 13010101 		addi	sp,sp,16
  53              		.cfi_def_cfa_offset 0
  54 0044 67800000 		jr	ra
  55              		.cfi_endproc
  56              	.LFE24:
  58              		.align	2
  59              		.globl	_Z13AllocatorTestv
  61              	_Z13AllocatorTestv:
  62              	.LFB23:
  17:src/main.cpp  ****     uint64* a1=new uint64;
  63              		.loc 1 17 22 is_stmt 1
  64              		.cfi_startproc
  65 0048 130101FD 		addi	sp,sp,-48
  66              		.cfi_def_cfa_offset 48
  67 004c 23341102 		sd	ra,40(sp)
  68 0050 23308102 		sd	s0,32(sp)
  69 0054 233C9100 		sd	s1,24(sp)
  70 0058 23382101 		sd	s2,16(sp)
  71 005c 23343101 		sd	s3,8(sp)
  72              		.cfi_offset 1, -8
  73              		.cfi_offset 8, -16
  74              		.cfi_offset 9, -24
  75              		.cfi_offset 18, -32
  76              		.cfi_offset 19, -40
  77 0060 13040103 		addi	s0,sp,48
  78              		.cfi_def_cfa 8, 0
  18:src/main.cpp  ****     *a1=4;
  79              		.loc 1 18 5
  18:src/main.cpp  ****     *a1=4;
  80              		.loc 1 18 20 is_stmt 0
  81 0064 13058000 		li	a0,8
  82 0068 97000000 		call	_Znwm@plt
  82      E7800000 
  83              	.LVL5:
  84 0070 93090500 		mv	s3,a0
  85              	.LVL6:
  19:src/main.cpp  ****     __putc(*a1+'0');
  86              		.loc 1 19 5 is_stmt 1
  19:src/main.cpp  ****     __putc(*a1+'0');
  87              		.loc 1 19 8 is_stmt 0
  88 0074 93074000 		li	a5,4
  89 0078 2330F500 		sd	a5,0(a0)
  20:src/main.cpp  ****     __putc('\n');
  90              		.loc 1 20 5 is_stmt 1
  20:src/main.cpp  ****     __putc('\n');
  91              		.loc 1 20 11 is_stmt 0
  92 007c 13054003 		li	a0,52
  93              	.LVL7:
  94 0080 97000000 		call	__putc@plt
  94      E7800000 
  95              	.LVL8:
  21:src/main.cpp  ****     uint64* a2=new uint64;
  96              		.loc 1 21 5 is_stmt 1
  21:src/main.cpp  ****     uint64* a2=new uint64;
  97              		.loc 1 21 11 is_stmt 0
GAS LISTING /tmp/ccKBiHaz.s 			page 4


  98 0088 1305A000 		li	a0,10
  99 008c 97000000 		call	__putc@plt
  99      E7800000 
 100              	.LVL9:
  22:src/main.cpp  ****     *a2=5;
 101              		.loc 1 22 5 is_stmt 1
  22:src/main.cpp  ****     *a2=5;
 102              		.loc 1 22 20 is_stmt 0
 103 0094 13058000 		li	a0,8
 104 0098 97000000 		call	_Znwm@plt
 104      E7800000 
 105              	.LVL10:
  23:src/main.cpp  ****     __putc(*a2+'0');
 106              		.loc 1 23 5 is_stmt 1
  23:src/main.cpp  ****     __putc(*a2+'0');
 107              		.loc 1 23 8 is_stmt 0
 108 00a0 93075000 		li	a5,5
 109 00a4 2330F500 		sd	a5,0(a0)
  24:src/main.cpp  ****     __putc('\n');
 110              		.loc 1 24 5 is_stmt 1
  24:src/main.cpp  ****     __putc('\n');
 111              		.loc 1 24 11 is_stmt 0
 112 00a8 13055003 		li	a0,53
 113              	.LVL11:
 114 00ac 97000000 		call	__putc@plt
 114      E7800000 
 115              	.LVL12:
  25:src/main.cpp  ****     uint64* a3=new uint64;
 116              		.loc 1 25 5 is_stmt 1
  25:src/main.cpp  ****     uint64* a3=new uint64;
 117              		.loc 1 25 11 is_stmt 0
 118 00b4 1305A000 		li	a0,10
 119 00b8 97000000 		call	__putc@plt
 119      E7800000 
 120              	.LVL13:
  26:src/main.cpp  ****     *a3=6;
 121              		.loc 1 26 5 is_stmt 1
  26:src/main.cpp  ****     *a3=6;
 122              		.loc 1 26 20 is_stmt 0
 123 00c0 13058000 		li	a0,8
 124 00c4 97000000 		call	_Znwm@plt
 124      E7800000 
 125              	.LVL14:
 126 00cc 13090500 		mv	s2,a0
 127              	.LVL15:
  27:src/main.cpp  ****     __putc(*a3+'0');
 128              		.loc 1 27 5 is_stmt 1
  27:src/main.cpp  ****     __putc(*a3+'0');
 129              		.loc 1 27 8 is_stmt 0
 130 00d0 93076000 		li	a5,6
 131 00d4 2330F500 		sd	a5,0(a0)
  28:src/main.cpp  ****     __putc('\n');
 132              		.loc 1 28 5 is_stmt 1
  28:src/main.cpp  ****     __putc('\n');
 133              		.loc 1 28 11 is_stmt 0
 134 00d8 13056003 		li	a0,54
 135              	.LVL16:
GAS LISTING /tmp/ccKBiHaz.s 			page 5


 136 00dc 97000000 		call	__putc@plt
 136      E7800000 
 137              	.LVL17:
  29:src/main.cpp  ****     uint64* a4=new uint64;
 138              		.loc 1 29 5 is_stmt 1
  29:src/main.cpp  ****     uint64* a4=new uint64;
 139              		.loc 1 29 11 is_stmt 0
 140 00e4 1305A000 		li	a0,10
 141 00e8 97000000 		call	__putc@plt
 141      E7800000 
 142              	.LVL18:
  30:src/main.cpp  ****     *a4=7;
 143              		.loc 1 30 5 is_stmt 1
  30:src/main.cpp  ****     *a4=7;
 144              		.loc 1 30 20 is_stmt 0
 145 00f0 13058000 		li	a0,8
 146 00f4 97000000 		call	_Znwm@plt
 146      E7800000 
 147              	.LVL19:
 148 00fc 93040500 		mv	s1,a0
 149              	.LVL20:
  31:src/main.cpp  ****     __putc(*a4+'0');
 150              		.loc 1 31 5 is_stmt 1
  31:src/main.cpp  ****     __putc(*a4+'0');
 151              		.loc 1 31 8 is_stmt 0
 152 0100 93077000 		li	a5,7
 153 0104 2330F500 		sd	a5,0(a0)
  32:src/main.cpp  ****     __putc('\n');
 154              		.loc 1 32 5 is_stmt 1
  32:src/main.cpp  ****     __putc('\n');
 155              		.loc 1 32 11 is_stmt 0
 156 0108 13057003 		li	a0,55
 157 010c 97000000 		call	__putc@plt
 157      E7800000 
 158              	.LVL21:
  33:src/main.cpp  ****     uint64* a5=new uint64;
 159              		.loc 1 33 5 is_stmt 1
  33:src/main.cpp  ****     uint64* a5=new uint64;
 160              		.loc 1 33 11 is_stmt 0
 161 0114 1305A000 		li	a0,10
 162 0118 97000000 		call	__putc@plt
 162      E7800000 
 163              	.LVL22:
  34:src/main.cpp  ****     *a5=8;
 164              		.loc 1 34 5 is_stmt 1
  34:src/main.cpp  ****     *a5=8;
 165              		.loc 1 34 20 is_stmt 0
 166 0120 13058000 		li	a0,8
 167 0124 97000000 		call	_Znwm@plt
 167      E7800000 
 168              	.LVL23:
  35:src/main.cpp  ****     __putc(*a5+'0');
 169              		.loc 1 35 5 is_stmt 1
  35:src/main.cpp  ****     __putc(*a5+'0');
 170              		.loc 1 35 8 is_stmt 0
 171 012c 93078000 		li	a5,8
 172 0130 2330F500 		sd	a5,0(a0)
GAS LISTING /tmp/ccKBiHaz.s 			page 6


  36:src/main.cpp  ****     __putc('\n');
 173              		.loc 1 36 5 is_stmt 1
  36:src/main.cpp  ****     __putc('\n');
 174              		.loc 1 36 11 is_stmt 0
 175 0134 13058003 		li	a0,56
 176              	.LVL24:
 177 0138 97000000 		call	__putc@plt
 177      E7800000 
 178              	.LVL25:
  37:src/main.cpp  ****     delete a1;
 179              		.loc 1 37 5 is_stmt 1
  37:src/main.cpp  ****     delete a1;
 180              		.loc 1 37 11 is_stmt 0
 181 0140 1305A000 		li	a0,10
 182 0144 97000000 		call	__putc@plt
 182      E7800000 
 183              	.LVL26:
  38:src/main.cpp  ****     delete a3;
 184              		.loc 1 38 5 is_stmt 1
  38:src/main.cpp  ****     delete a3;
 185              		.loc 1 38 14 is_stmt 0
 186 014c 63880900 		beqz	s3,.L4
  38:src/main.cpp  ****     delete a3;
 187              		.loc 1 38 12 discriminator 1
 188 0150 13850900 		mv	a0,s3
 189 0154 97000000 		call	_ZdlPv@plt
 189      E7800000 
 190              	.LVL27:
 191              	.L4:
  39:src/main.cpp  ****     delete a4;
 192              		.loc 1 39 5 is_stmt 1
  39:src/main.cpp  ****     delete a4;
 193              		.loc 1 39 14 is_stmt 0
 194 015c 63080900 		beqz	s2,.L5
  39:src/main.cpp  ****     delete a4;
 195              		.loc 1 39 12 discriminator 1
 196 0160 13050900 		mv	a0,s2
 197 0164 97000000 		call	_ZdlPv@plt
 197      E7800000 
 198              	.LVL28:
 199              	.L5:
  40:src/main.cpp  ****     uint64* a6=new uint64;
 200              		.loc 1 40 5 is_stmt 1
  40:src/main.cpp  ****     uint64* a6=new uint64;
 201              		.loc 1 40 14 is_stmt 0
 202 016c 63880400 		beqz	s1,.L6
  40:src/main.cpp  ****     uint64* a6=new uint64;
 203              		.loc 1 40 12 discriminator 1
 204 0170 13850400 		mv	a0,s1
 205 0174 97000000 		call	_ZdlPv@plt
 205      E7800000 
 206              	.LVL29:
 207              	.L6:
  41:src/main.cpp  ****     *a6=9;
 208              		.loc 1 41 5 is_stmt 1
  41:src/main.cpp  ****     *a6=9;
 209              		.loc 1 41 20 is_stmt 0
GAS LISTING /tmp/ccKBiHaz.s 			page 7


 210 017c 13058000 		li	a0,8
 211 0180 97000000 		call	_Znwm@plt
 211      E7800000 
 212              	.LVL30:
  42:src/main.cpp  ****     __putc(*a6+'0');
 213              		.loc 1 42 5 is_stmt 1
  42:src/main.cpp  ****     __putc(*a6+'0');
 214              		.loc 1 42 8 is_stmt 0
 215 0188 93079000 		li	a5,9
 216 018c 2330F500 		sd	a5,0(a0)
  43:src/main.cpp  ****     __putc('\n');
 217              		.loc 1 43 5 is_stmt 1
  43:src/main.cpp  ****     __putc('\n');
 218              		.loc 1 43 11 is_stmt 0
 219 0190 13059003 		li	a0,57
 220              	.LVL31:
 221 0194 97000000 		call	__putc@plt
 221      E7800000 
 222              	.LVL32:
  44:src/main.cpp  **** }
 223              		.loc 1 44 5 is_stmt 1
  44:src/main.cpp  **** }
 224              		.loc 1 44 11 is_stmt 0
 225 019c 1305A000 		li	a0,10
 226 01a0 97000000 		call	__putc@plt
 226      E7800000 
 227              	.LVL33:
  45:src/main.cpp  **** extern void userMain();
 228              		.loc 1 45 1
 229 01a8 83308102 		ld	ra,40(sp)
 230              		.cfi_restore 1
 231 01ac 03340102 		ld	s0,32(sp)
 232              		.cfi_restore 8
 233              		.cfi_def_cfa 2, 48
 234 01b0 83348101 		ld	s1,24(sp)
 235              		.cfi_restore 9
 236              	.LVL34:
 237 01b4 03390101 		ld	s2,16(sp)
 238              		.cfi_restore 18
 239              	.LVL35:
 240 01b8 83398100 		ld	s3,8(sp)
 241              		.cfi_restore 19
 242              	.LVL36:
 243 01bc 13010103 		addi	sp,sp,48
 244              		.cfi_def_cfa_offset 0
 245 01c0 67800000 		jr	ra
 246              		.cfi_endproc
 247              	.LFE23:
 249              		.align	2
 250              		.globl	_Z14WorkerAWrapperPv
 252              	_Z14WorkerAWrapperPv:
 253              	.LFB25:
  54:src/main.cpp  **** 
  55:src/main.cpp  **** void WorkerAWrapper(void* arg)
  56:src/main.cpp  **** {
 254              		.loc 1 56 1 is_stmt 1
 255              		.cfi_startproc
GAS LISTING /tmp/ccKBiHaz.s 			page 8


 256              	.LVL37:
 257 01c4 130101FF 		addi	sp,sp,-16
 258              		.cfi_def_cfa_offset 16
 259 01c8 23341100 		sd	ra,8(sp)
 260 01cc 23308100 		sd	s0,0(sp)
 261              		.cfi_offset 1, -8
 262              		.cfi_offset 8, -16
 263 01d0 13040101 		addi	s0,sp,16
 264              		.cfi_def_cfa 8, 0
  57:src/main.cpp  ****     //printString("worker A start:\n");
  58:src/main.cpp  ****     workerBodyA();
 265              		.loc 1 58 5
 266              		.loc 1 58 16 is_stmt 0
 267 01d4 97000000 		call	_Z11workerBodyAv@plt
 267      E7800000 
 268              	.LVL38:
  59:src/main.cpp  ****     //printString("worker A end:\n");
  60:src/main.cpp  **** }
 269              		.loc 1 60 1
 270 01dc 83308100 		ld	ra,8(sp)
 271              		.cfi_restore 1
 272 01e0 03340100 		ld	s0,0(sp)
 273              		.cfi_restore 8
 274              		.cfi_def_cfa 2, 16
 275 01e4 13010101 		addi	sp,sp,16
 276              		.cfi_def_cfa_offset 0
 277 01e8 67800000 		jr	ra
 278              		.cfi_endproc
 279              	.LFE25:
 281              		.align	2
 282              		.globl	_Z14WorkerBWrapperPv
 284              	_Z14WorkerBWrapperPv:
 285              	.LFB26:
  61:src/main.cpp  **** 
  62:src/main.cpp  **** void WorkerBWrapper(void* arg)
  63:src/main.cpp  **** {
 286              		.loc 1 63 1 is_stmt 1
 287              		.cfi_startproc
 288              	.LVL39:
 289 01ec 130101FF 		addi	sp,sp,-16
 290              		.cfi_def_cfa_offset 16
 291 01f0 23341100 		sd	ra,8(sp)
 292 01f4 23308100 		sd	s0,0(sp)
 293              		.cfi_offset 1, -8
 294              		.cfi_offset 8, -16
 295 01f8 13040101 		addi	s0,sp,16
 296              		.cfi_def_cfa 8, 0
  64:src/main.cpp  ****     //printString("worker B start:\n");
  65:src/main.cpp  ****     workerBodyB();
 297              		.loc 1 65 5
 298              		.loc 1 65 16 is_stmt 0
 299 01fc 97000000 		call	_Z11workerBodyBv@plt
 299      E7800000 
 300              	.LVL40:
  66:src/main.cpp  ****     //printString("worker B end:\n");
  67:src/main.cpp  **** }
 301              		.loc 1 67 1
GAS LISTING /tmp/ccKBiHaz.s 			page 9


 302 0204 83308100 		ld	ra,8(sp)
 303              		.cfi_restore 1
 304 0208 03340100 		ld	s0,0(sp)
 305              		.cfi_restore 8
 306              		.cfi_def_cfa 2, 16
 307 020c 13010101 		addi	sp,sp,16
 308              		.cfi_def_cfa_offset 0
 309 0210 67800000 		jr	ra
 310              		.cfi_endproc
 311              	.LFE26:
 313              		.section	.rodata.str1.8
 314              		.align	3
 315              	.LC2:
 316 0028 46696E69 		.string	"Finished\n"
 316      73686564 
 316      0A00
 317              		.text
 318              		.align	2
 319              		.globl	main
 321              	main:
 322              	.LFB27:
  68:src/main.cpp  **** 
  69:src/main.cpp  **** extern "C" void SupervisorTrap();
  70:src/main.cpp  **** 
  71:src/main.cpp  **** 
  72:src/main.cpp  **** 
  73:src/main.cpp  **** void main() {
 323              		.loc 1 73 13 is_stmt 1
 324              		.cfi_startproc
 325 0214 130101FD 		addi	sp,sp,-48
 326              		.cfi_def_cfa_offset 48
 327 0218 23341102 		sd	ra,40(sp)
 328 021c 23308102 		sd	s0,32(sp)
 329 0220 233C9100 		sd	s1,24(sp)
 330 0224 23382101 		sd	s2,16(sp)
 331              		.cfi_offset 1, -8
 332              		.cfi_offset 8, -16
 333              		.cfi_offset 9, -24
 334              		.cfi_offset 18, -32
 335 0228 13040103 		addi	s0,sp,48
 336              		.cfi_def_cfa 8, 0
  74:src/main.cpp  ****     Riscv::set_stvec((uint64)SupervisorTrap);
 337              		.loc 1 74 5
 338              		.loc 1 74 21 is_stmt 0
 339 022c 97070000 		la	a5,SupervisorTrap
 339      83B70700 
 340              	.LVL41:
 341              	.LBB12:
 342              	.LBB13:
 343              		.file 2 "src/../h/../h/Riscv.hpp"
   1:src/../h/../h/Riscv.hpp **** //
   2:src/../h/../h/Riscv.hpp **** // Created by os on 9/8/25.
   3:src/../h/../h/Riscv.hpp **** //
   4:src/../h/../h/Riscv.hpp **** 
   5:src/../h/../h/Riscv.hpp **** #ifndef PROJECT_BASE_V1_1_COPY_RISCV_HPP
   6:src/../h/../h/Riscv.hpp **** #define PROJECT_BASE_V1_1_COPY_RISCV_HPP
   7:src/../h/../h/Riscv.hpp **** #include "../lib/hw.h"
GAS LISTING /tmp/ccKBiHaz.s 			page 10


   8:src/../h/../h/Riscv.hpp **** 
   9:src/../h/../h/Riscv.hpp **** class Riscv {
  10:src/../h/../h/Riscv.hpp **** public:
  11:src/../h/../h/Riscv.hpp ****     static void set_stvec(uint64 stvec);
  12:src/../h/../h/Riscv.hpp ****     static void set_sepc(uint64 sepc);
  13:src/../h/../h/Riscv.hpp ****     static uint64 get_sepc();
  14:src/../h/../h/Riscv.hpp ****     static void set_sstatus(uint64 sstatus);
  15:src/../h/../h/Riscv.hpp ****     static uint64 get_sstatus();
  16:src/../h/../h/Riscv.hpp ****     static uint64 get_scause();
  17:src/../h/../h/Riscv.hpp ****     static uint64 get_stval();
  18:src/../h/../h/Riscv.hpp ****     static void mc_sstatus(uint64 mask);
  19:src/../h/../h/Riscv.hpp ****     static void mc_sip(uint64 mask);
  20:src/../h/../h/Riscv.hpp ****     enum BitMaskSstatus
  21:src/../h/../h/Riscv.hpp ****     {
  22:src/../h/../h/Riscv.hpp ****         SSTATUS_SIE=(1UL<<1),
  23:src/../h/../h/Riscv.hpp ****         SSTATUS_SPIE=(1UL<<5),
  24:src/../h/../h/Riscv.hpp ****         SSTATUS_SPP=(1UL<<8)
  25:src/../h/../h/Riscv.hpp ****     };
  26:src/../h/../h/Riscv.hpp ****     enum BitMasSip: uint64
  27:src/../h/../h/Riscv.hpp ****     {
  28:src/../h/../h/Riscv.hpp ****         SIP_SSIP=(1UL<<1),
  29:src/../h/../h/Riscv.hpp ****         SIP_STIP=(1UL<<5),
  30:src/../h/../h/Riscv.hpp ****         SIP_SEIP=(1UL<<9)
  31:src/../h/../h/Riscv.hpp ****     };
  32:src/../h/../h/Riscv.hpp ****     enum BitMasSie: uint64
  33:src/../h/../h/Riscv.hpp ****     {
  34:src/../h/../h/Riscv.hpp ****         SIE_SSIE=(1UL<<1),
  35:src/../h/../h/Riscv.hpp ****         SIE_SEIE=(1UL<<9)
  36:src/../h/../h/Riscv.hpp ****     };
  37:src/../h/../h/Riscv.hpp **** 
  38:src/../h/../h/Riscv.hpp ****     static void pushRegisters();
  39:src/../h/../h/Riscv.hpp ****     static void popRegisters();
  40:src/../h/../h/Riscv.hpp **** 
  41:src/../h/../h/Riscv.hpp ****     static void restorePrivilege();
  42:src/../h/../h/Riscv.hpp ****     static void popSppSpie();
  43:src/../h/../h/Riscv.hpp **** 
  44:src/../h/../h/Riscv.hpp **** 
  45:src/../h/../h/Riscv.hpp ****     static void SupervisorTrapHandler();
  46:src/../h/../h/Riscv.hpp **** };
  47:src/../h/../h/Riscv.hpp **** 
  48:src/../h/../h/Riscv.hpp **** 
  49:src/../h/../h/Riscv.hpp **** inline void Riscv::set_stvec(uint64 stvec) {
  50:src/../h/../h/Riscv.hpp ****     __asm__ volatile ("csrw stvec, %[x]" :: [x] "r" (stvec));
 344              		.loc 2 50 5 is_stmt 1
 345              		.loc 2 50 61 is_stmt 0
 346              	#APP
 347              	# 50 "src/../h/../h/Riscv.hpp" 1
  51              	}
 348              		csrw stvec, a5
 349              	# 0 "" 2
 350              	.LVL42:
 351              	#NO_APP
 352              	.LBE13:
 353              	.LBE12:
  75:src/main.cpp  ****     //AllocatorTest();
  76:src/main.cpp  **** 
  77:src/main.cpp  ****      thread_t coroutines[2];
GAS LISTING /tmp/ccKBiHaz.s 			page 11


 354              		.loc 1 77 6 is_stmt 1
  78:src/main.cpp  ****      thread_create(&coroutines[0],nullptr,nullptr);
 355              		.loc 1 78 6
 356              		.loc 1 78 19 is_stmt 0
 357 0238 13060000 		li	a2,0
 358 023c 93050000 		li	a1,0
 359 0240 130504FD 		addi	a0,s0,-48
 360 0244 97000000 		call	_Z13thread_createPP3TCBPFvPvES2_@plt
 360      E7800000 
 361              	.LVL43:
  79:src/main.cpp  ****      thread_create(&coroutines[1],userWrapper,nullptr);
 362              		.loc 1 79 6 is_stmt 1
 363              		.loc 1 79 19 is_stmt 0
 364 024c 13060000 		li	a2,0
 365 0250 97050000 		lla	a1,_Z11userWrapperPv
 365      93850500 
 366 0258 130584FD 		addi	a0,s0,-40
 367 025c 97000000 		call	_Z13thread_createPP3TCBPFvPvES2_@plt
 367      E7800000 
 368              	.LVL44:
 369              	.L14:
  80:src/main.cpp  **** 
  81:src/main.cpp  **** 
  82:src/main.cpp  ****      while (!coroutines[1]->isFinished()) {
 370              		.loc 1 82 6 is_stmt 1
 371              		.loc 1 82 13
 372              		.loc 1 82 26 is_stmt 0
 373 0264 833784FD 		ld	a5,-40(s0)
 374              	.LVL45:
 375              	.LBB14:
 376              	.LBB15:
 377              		.file 3 "src/../h/TCB.hpp"
   1:src/../h/TCB.hpp **** //
   2:src/../h/TCB.hpp **** // Created by os on 9/23/25.
   3:src/../h/TCB.hpp **** //
   4:src/../h/TCB.hpp **** 
   5:src/../h/TCB.hpp **** #ifndef PROJECT_BASE_V1_1_COPY_TCB_HPP
   6:src/../h/TCB.hpp **** #define PROJECT_BASE_V1_1_COPY_TCB_HPP
   7:src/../h/TCB.hpp **** #include "../lib/hw.h"
   8:src/../h/TCB.hpp **** #include "../h/Scheduler.hpp"
   9:src/../h/TCB.hpp **** #include "../h/Riscv.hpp"
  10:src/../h/TCB.hpp **** #include "../h/MemoryAllocator.hpp"
  11:src/../h/TCB.hpp **** class TCB
  12:src/../h/TCB.hpp **** {
  13:src/../h/TCB.hpp **** public:
  14:src/../h/TCB.hpp ****     void* operator new(size_t size)
  15:src/../h/TCB.hpp **** {
  16:src/../h/TCB.hpp ****     return MemoryAllocator::Instance()->mem_alloc(size);
  17:src/../h/TCB.hpp **** }
  18:src/../h/TCB.hpp **** 
  19:src/../h/TCB.hpp ****     void operator delete(void* ptr)
  20:src/../h/TCB.hpp ****     {
  21:src/../h/TCB.hpp ****         return MemoryAllocator::Instance()->mem_free(ptr);
  22:src/../h/TCB.hpp ****     }
  23:src/../h/TCB.hpp **** 
  24:src/../h/TCB.hpp **** 
  25:src/../h/TCB.hpp ****     using Body=void(*)(void*);
GAS LISTING /tmp/ccKBiHaz.s 			page 12


  26:src/../h/TCB.hpp **** 
  27:src/../h/TCB.hpp ****     ~TCB()
  28:src/../h/TCB.hpp ****     {
  29:src/../h/TCB.hpp ****         delete stack;
  30:src/../h/TCB.hpp ****     }
  31:src/../h/TCB.hpp **** 
  32:src/../h/TCB.hpp ****     static TCB* createThread(Body body, void* arg, uint64* stack);
  33:src/../h/TCB.hpp **** 
  34:src/../h/TCB.hpp ****     static void dispatch();
  35:src/../h/TCB.hpp ****     static int exit();
  36:src/../h/TCB.hpp **** 
  37:src/../h/TCB.hpp ****     bool isFinished() const { return finished;}
 378              		.loc 3 37 31 is_stmt 1
 379              		.loc 3 37 38 is_stmt 0
 380 0268 83C70700 		lbu	a5,0(a5)
 381              	.LVL46:
 382              	.LBE15:
 383              	.LBE14:
 384              		.loc 1 82 13
 385 026c 63980700 		bnez	a5,.L18
  83:src/main.cpp  ****          TCB::dispatch();
 386              		.loc 1 83 10 is_stmt 1
 387              		.loc 1 83 23 is_stmt 0
 388 0270 97000000 		call	_ZN3TCB8dispatchEv@plt
 388      E7800000 
 389              	.LVL47:
 390 0278 6FF0DFFE 		j	.L14
 391              	.L18:
 392              	.LBB16:
  84:src/main.cpp  ****      }
  85:src/main.cpp  **** 
  86:src/main.cpp  ****      for (auto coroutine: coroutines) { delete coroutine; }
 393              		.loc 1 86 27
 394 027c 930404FD 		addi	s1,s0,-48
 395 0280 6F00C001 		j	.L13
 396              	.LVL48:
 397              	.L17:
 398              	.LBB17:
 399              	.LBB18:
  21:src/../h/TCB.hpp ****     }
 400              		.loc 3 21 9 is_stmt 1
  21:src/../h/TCB.hpp ****     }
 401              		.loc 3 21 53 is_stmt 0
 402 0284 97000000 		call	_ZN15MemoryAllocator8InstanceEv@plt
 402      E7800000 
 403              	.LVL49:
 404 028c 93050900 		mv	a1,s2
 405 0290 97000000 		call	_ZN15MemoryAllocator8mem_freeEPv@plt
 405      E7800000 
 406              	.LVL50:
 407              	.L16:
 408              	.LBE18:
 409              	.LBE17:
 410              		.loc 1 86 6 is_stmt 1 discriminator 4
 411 0298 93848400 		addi	s1,s1,8
 412              	.LVL51:
 413              	.L13:
GAS LISTING /tmp/ccKBiHaz.s 			page 13


 414              		.loc 1 86 27 discriminator 5
 415 029c 930704FE 		addi	a5,s0,-32
 416 02a0 6380F402 		beq	s1,a5,.L15
 417              		.loc 1 86 16 is_stmt 0 discriminator 2
 418 02a4 03B90400 		ld	s2,0(s1)
 419              	.LVL52:
 420              		.loc 1 86 41 is_stmt 1 discriminator 2
 421              		.loc 1 86 57 is_stmt 0 discriminator 2
 422 02a8 E30809FE 		beqz	s2,.L16
 423              	.LVL53:
 424              	.LBB19:
 425              	.LBB20:
  29:src/../h/TCB.hpp ****     }
 426              		.loc 3 29 9 is_stmt 1
  29:src/../h/TCB.hpp ****     }
 427              		.loc 3 29 16 is_stmt 0
 428 02ac 03358900 		ld	a0,8(s2)
  29:src/../h/TCB.hpp ****     }
 429              		.loc 3 29 21
 430 02b0 E30A05FC 		beqz	a0,.L17
  29:src/../h/TCB.hpp ****     }
 431              		.loc 3 29 16
 432 02b4 97000000 		call	_ZdlPv@plt
 432      E7800000 
 433              	.LVL54:
 434 02bc 6FF09FFC 		j	.L17
 435              	.LVL55:
 436              	.L15:
 437              	.LBE20:
 438              	.LBE19:
 439              	.LBE16:
  87:src/main.cpp  **** 
  88:src/main.cpp  ****      AllocatorTest();
 440              		.loc 1 88 6 is_stmt 1
 441              		.loc 1 88 19 is_stmt 0
 442 02c0 97000000 		call	_Z13AllocatorTestv
 442      E7800000 
 443              	.LVL56:
  89:src/main.cpp  ****      printString("Finished\n");
 444              		.loc 1 89 6 is_stmt 1
 445              		.loc 1 89 17 is_stmt 0
 446 02c8 17050000 		lla	a0,.LC2
 446      13050500 
 447 02d0 97000000 		call	_Z11printStringPKc@plt
 447      E7800000 
 448              	.LVL57:
  90:src/main.cpp  **** 
  91:src/main.cpp  ****     //printString("OK\n");
  92:src/main.cpp  **** 
  93:src/main.cpp  **** 
  94:src/main.cpp  ****     // size_t pom1= mem_get_free_space();
  95:src/main.cpp  ****     // printString("Free mem: ");
  96:src/main.cpp  ****     // printInteger(pom1);
  97:src/main.cpp  ****     // printString("\n");
  98:src/main.cpp  ****     // size_t pom2= mem_get_largest_free_block();
  99:src/main.cpp  ****     // printString("Largest free block: ");
 100:src/main.cpp  ****     // printInteger(pom2);
GAS LISTING /tmp/ccKBiHaz.s 			page 14


 101:src/main.cpp  ****     // printString("\n");
 102:src/main.cpp  **** }
 449              		.loc 1 102 1
 450 02d8 83308102 		ld	ra,40(sp)
 451              		.cfi_restore 1
 452 02dc 03340102 		ld	s0,32(sp)
 453              		.cfi_restore 8
 454              		.cfi_def_cfa 2, 48
 455 02e0 83348101 		ld	s1,24(sp)
 456              		.cfi_restore 9
 457              	.LVL58:
 458 02e4 03390101 		ld	s2,16(sp)
 459              		.cfi_restore 18
 460 02e8 13010103 		addi	sp,sp,48
 461              		.cfi_def_cfa_offset 0
 462 02ec 67800000 		jr	ra
 463              		.cfi_endproc
 464              	.LFE27:
 466              	.Letext0:
 467              		.file 4 "src/../lib/hw.h"
 468              		.file 5 "src/../h/MemoryAllocator.hpp"
 469              		.file 6 "src/../h/syscall_c.hpp"
 470              		.file 7 "src/../h/syscall_cpp.hpp"
 471              		.file 8 "src/../h/print.hpp"
 472              		.file 9 "src/../h/workers.hpp"
 473              		.file 10 "src/../lib/console.h"
GAS LISTING /tmp/ccKBiHaz.s 			page 15


DEFINED SYMBOLS
                            *ABS*:0000000000000000 main.cpp
     /tmp/ccKBiHaz.s:17     .text:0000000000000000 _Z11userWrapperPv
     /tmp/ccKBiHaz.s:21     .text:0000000000000000 .L0 
     /tmp/ccKBiHaz.s:23     .text:0000000000000000 .L0 
     /tmp/ccKBiHaz.s:24     .text:0000000000000004 .L0 
     /tmp/ccKBiHaz.s:27     .text:000000000000000c .L0 
     /tmp/ccKBiHaz.s:28     .text:000000000000000c .L0 
     /tmp/ccKBiHaz.s:30     .text:0000000000000010 .L0 
     /tmp/ccKBiHaz.s:32     .text:0000000000000010 .L0 
     /tmp/ccKBiHaz.s:33     .text:0000000000000010 .L0 
     /tmp/ccKBiHaz.s:38     .text:0000000000000020 .L0 
     /tmp/ccKBiHaz.s:39     .text:0000000000000020 .L0 
     /tmp/ccKBiHaz.s:42     .text:0000000000000028 .L0 
     /tmp/ccKBiHaz.s:43     .text:0000000000000028 .L0 
     /tmp/ccKBiHaz.s:47     .text:0000000000000038 .L0 
     /tmp/ccKBiHaz.s:48     .text:000000000000003c .L0 
     /tmp/ccKBiHaz.s:50     .text:0000000000000040 .L0 
     /tmp/ccKBiHaz.s:51     .text:0000000000000040 .L0 
     /tmp/ccKBiHaz.s:53     .text:0000000000000044 .L0 
     /tmp/ccKBiHaz.s:55     .text:0000000000000048 .L0 
     /tmp/ccKBiHaz.s:61     .text:0000000000000048 _Z13AllocatorTestv
     /tmp/ccKBiHaz.s:64     .text:0000000000000048 .L0 
     /tmp/ccKBiHaz.s:65     .text:0000000000000048 .L0 
     /tmp/ccKBiHaz.s:66     .text:000000000000004c .L0 
     /tmp/ccKBiHaz.s:72     .text:0000000000000060 .L0 
     /tmp/ccKBiHaz.s:73     .text:0000000000000060 .L0 
     /tmp/ccKBiHaz.s:74     .text:0000000000000060 .L0 
     /tmp/ccKBiHaz.s:75     .text:0000000000000060 .L0 
     /tmp/ccKBiHaz.s:76     .text:0000000000000060 .L0 
     /tmp/ccKBiHaz.s:78     .text:0000000000000064 .L0 
     /tmp/ccKBiHaz.s:80     .text:0000000000000064 .L0 
     /tmp/ccKBiHaz.s:81     .text:0000000000000064 .L0 
     /tmp/ccKBiHaz.s:87     .text:0000000000000074 .L0 
     /tmp/ccKBiHaz.s:88     .text:0000000000000074 .L0 
     /tmp/ccKBiHaz.s:91     .text:000000000000007c .L0 
     /tmp/ccKBiHaz.s:92     .text:000000000000007c .L0 
     /tmp/ccKBiHaz.s:97     .text:0000000000000088 .L0 
     /tmp/ccKBiHaz.s:98     .text:0000000000000088 .L0 
     /tmp/ccKBiHaz.s:102    .text:0000000000000094 .L0 
     /tmp/ccKBiHaz.s:103    .text:0000000000000094 .L0 
     /tmp/ccKBiHaz.s:107    .text:00000000000000a0 .L0 
     /tmp/ccKBiHaz.s:108    .text:00000000000000a0 .L0 
     /tmp/ccKBiHaz.s:111    .text:00000000000000a8 .L0 
     /tmp/ccKBiHaz.s:112    .text:00000000000000a8 .L0 
     /tmp/ccKBiHaz.s:117    .text:00000000000000b4 .L0 
     /tmp/ccKBiHaz.s:118    .text:00000000000000b4 .L0 
     /tmp/ccKBiHaz.s:122    .text:00000000000000c0 .L0 
     /tmp/ccKBiHaz.s:123    .text:00000000000000c0 .L0 
     /tmp/ccKBiHaz.s:129    .text:00000000000000d0 .L0 
     /tmp/ccKBiHaz.s:130    .text:00000000000000d0 .L0 
     /tmp/ccKBiHaz.s:133    .text:00000000000000d8 .L0 
     /tmp/ccKBiHaz.s:134    .text:00000000000000d8 .L0 
     /tmp/ccKBiHaz.s:139    .text:00000000000000e4 .L0 
     /tmp/ccKBiHaz.s:140    .text:00000000000000e4 .L0 
     /tmp/ccKBiHaz.s:144    .text:00000000000000f0 .L0 
     /tmp/ccKBiHaz.s:145    .text:00000000000000f0 .L0 
GAS LISTING /tmp/ccKBiHaz.s 			page 16


     /tmp/ccKBiHaz.s:151    .text:0000000000000100 .L0 
     /tmp/ccKBiHaz.s:152    .text:0000000000000100 .L0 
     /tmp/ccKBiHaz.s:155    .text:0000000000000108 .L0 
     /tmp/ccKBiHaz.s:156    .text:0000000000000108 .L0 
     /tmp/ccKBiHaz.s:160    .text:0000000000000114 .L0 
     /tmp/ccKBiHaz.s:161    .text:0000000000000114 .L0 
     /tmp/ccKBiHaz.s:165    .text:0000000000000120 .L0 
     /tmp/ccKBiHaz.s:166    .text:0000000000000120 .L0 
     /tmp/ccKBiHaz.s:170    .text:000000000000012c .L0 
     /tmp/ccKBiHaz.s:171    .text:000000000000012c .L0 
     /tmp/ccKBiHaz.s:174    .text:0000000000000134 .L0 
     /tmp/ccKBiHaz.s:175    .text:0000000000000134 .L0 
     /tmp/ccKBiHaz.s:180    .text:0000000000000140 .L0 
     /tmp/ccKBiHaz.s:181    .text:0000000000000140 .L0 
     /tmp/ccKBiHaz.s:185    .text:000000000000014c .L0 
     /tmp/ccKBiHaz.s:186    .text:000000000000014c .L0 
     /tmp/ccKBiHaz.s:188    .text:0000000000000150 .L0 
     /tmp/ccKBiHaz.s:193    .text:000000000000015c .L0 
     /tmp/ccKBiHaz.s:194    .text:000000000000015c .L0 
     /tmp/ccKBiHaz.s:196    .text:0000000000000160 .L0 
     /tmp/ccKBiHaz.s:201    .text:000000000000016c .L0 
     /tmp/ccKBiHaz.s:202    .text:000000000000016c .L0 
     /tmp/ccKBiHaz.s:204    .text:0000000000000170 .L0 
     /tmp/ccKBiHaz.s:209    .text:000000000000017c .L0 
     /tmp/ccKBiHaz.s:210    .text:000000000000017c .L0 
     /tmp/ccKBiHaz.s:214    .text:0000000000000188 .L0 
     /tmp/ccKBiHaz.s:215    .text:0000000000000188 .L0 
     /tmp/ccKBiHaz.s:218    .text:0000000000000190 .L0 
     /tmp/ccKBiHaz.s:219    .text:0000000000000190 .L0 
     /tmp/ccKBiHaz.s:224    .text:000000000000019c .L0 
     /tmp/ccKBiHaz.s:225    .text:000000000000019c .L0 
     /tmp/ccKBiHaz.s:229    .text:00000000000001a8 .L0 
     /tmp/ccKBiHaz.s:230    .text:00000000000001ac .L0 
     /tmp/ccKBiHaz.s:232    .text:00000000000001b0 .L0 
     /tmp/ccKBiHaz.s:233    .text:00000000000001b0 .L0 
     /tmp/ccKBiHaz.s:235    .text:00000000000001b4 .L0 
     /tmp/ccKBiHaz.s:238    .text:00000000000001b8 .L0 
     /tmp/ccKBiHaz.s:241    .text:00000000000001bc .L0 
     /tmp/ccKBiHaz.s:244    .text:00000000000001c0 .L0 
     /tmp/ccKBiHaz.s:246    .text:00000000000001c4 .L0 
     /tmp/ccKBiHaz.s:252    .text:00000000000001c4 _Z14WorkerAWrapperPv
     /tmp/ccKBiHaz.s:255    .text:00000000000001c4 .L0 
     /tmp/ccKBiHaz.s:257    .text:00000000000001c4 .L0 
     /tmp/ccKBiHaz.s:258    .text:00000000000001c8 .L0 
     /tmp/ccKBiHaz.s:261    .text:00000000000001d0 .L0 
     /tmp/ccKBiHaz.s:262    .text:00000000000001d0 .L0 
     /tmp/ccKBiHaz.s:264    .text:00000000000001d4 .L0 
     /tmp/ccKBiHaz.s:266    .text:00000000000001d4 .L0 
     /tmp/ccKBiHaz.s:267    .text:00000000000001d4 .L0 
     /tmp/ccKBiHaz.s:270    .text:00000000000001dc .L0 
     /tmp/ccKBiHaz.s:271    .text:00000000000001e0 .L0 
     /tmp/ccKBiHaz.s:273    .text:00000000000001e4 .L0 
     /tmp/ccKBiHaz.s:274    .text:00000000000001e4 .L0 
     /tmp/ccKBiHaz.s:276    .text:00000000000001e8 .L0 
     /tmp/ccKBiHaz.s:278    .text:00000000000001ec .L0 
     /tmp/ccKBiHaz.s:284    .text:00000000000001ec _Z14WorkerBWrapperPv
     /tmp/ccKBiHaz.s:287    .text:00000000000001ec .L0 
GAS LISTING /tmp/ccKBiHaz.s 			page 17


     /tmp/ccKBiHaz.s:289    .text:00000000000001ec .L0 
     /tmp/ccKBiHaz.s:290    .text:00000000000001f0 .L0 
     /tmp/ccKBiHaz.s:293    .text:00000000000001f8 .L0 
     /tmp/ccKBiHaz.s:294    .text:00000000000001f8 .L0 
     /tmp/ccKBiHaz.s:296    .text:00000000000001fc .L0 
     /tmp/ccKBiHaz.s:298    .text:00000000000001fc .L0 
     /tmp/ccKBiHaz.s:299    .text:00000000000001fc .L0 
     /tmp/ccKBiHaz.s:302    .text:0000000000000204 .L0 
     /tmp/ccKBiHaz.s:303    .text:0000000000000208 .L0 
     /tmp/ccKBiHaz.s:305    .text:000000000000020c .L0 
     /tmp/ccKBiHaz.s:306    .text:000000000000020c .L0 
     /tmp/ccKBiHaz.s:308    .text:0000000000000210 .L0 
     /tmp/ccKBiHaz.s:310    .text:0000000000000214 .L0 
     /tmp/ccKBiHaz.s:321    .text:0000000000000214 main
     /tmp/ccKBiHaz.s:324    .text:0000000000000214 .L0 
     /tmp/ccKBiHaz.s:325    .text:0000000000000214 .L0 
     /tmp/ccKBiHaz.s:326    .text:0000000000000218 .L0 
     /tmp/ccKBiHaz.s:331    .text:0000000000000228 .L0 
     /tmp/ccKBiHaz.s:332    .text:0000000000000228 .L0 
     /tmp/ccKBiHaz.s:333    .text:0000000000000228 .L0 
     /tmp/ccKBiHaz.s:334    .text:0000000000000228 .L0 
     /tmp/ccKBiHaz.s:336    .text:000000000000022c .L0 
     /tmp/ccKBiHaz.s:338    .text:000000000000022c .L0 
     /tmp/ccKBiHaz.s:339    .text:000000000000022c .L0 
     /tmp/ccKBiHaz.s:345    .text:0000000000000234 .L0 
src/../h/../h/Riscv.hpp:50     .text:0000000000000234 .L0 
     /tmp/ccKBiHaz.s:355    .text:0000000000000238 .L0 
     /tmp/ccKBiHaz.s:356    .text:0000000000000238 .L0 
     /tmp/ccKBiHaz.s:357    .text:0000000000000238 .L0 
     /tmp/ccKBiHaz.s:363    .text:000000000000024c .L0 
     /tmp/ccKBiHaz.s:364    .text:000000000000024c .L0 
     /tmp/ccKBiHaz.s:371    .text:0000000000000264 .L0 
     /tmp/ccKBiHaz.s:372    .text:0000000000000264 .L0 
     /tmp/ccKBiHaz.s:373    .text:0000000000000264 .L0 
     /tmp/ccKBiHaz.s:379    .text:0000000000000268 .L0 
     /tmp/ccKBiHaz.s:380    .text:0000000000000268 .L0 
     /tmp/ccKBiHaz.s:385    .text:000000000000026c .L0 
     /tmp/ccKBiHaz.s:387    .text:0000000000000270 .L0 
     /tmp/ccKBiHaz.s:388    .text:0000000000000270 .L0 
     /tmp/ccKBiHaz.s:394    .text:000000000000027c .L0 
     /tmp/ccKBiHaz.s:401    .text:0000000000000284 .L0 
     /tmp/ccKBiHaz.s:402    .text:0000000000000284 .L0 
     /tmp/ccKBiHaz.s:411    .text:0000000000000298 .L0 
     /tmp/ccKBiHaz.s:415    .text:000000000000029c .L0 
     /tmp/ccKBiHaz.s:418    .text:00000000000002a4 .L0 
     /tmp/ccKBiHaz.s:421    .text:00000000000002a8 .L0 
     /tmp/ccKBiHaz.s:422    .text:00000000000002a8 .L0 
     /tmp/ccKBiHaz.s:427    .text:00000000000002ac .L0 
     /tmp/ccKBiHaz.s:428    .text:00000000000002ac .L0 
     /tmp/ccKBiHaz.s:430    .text:00000000000002b0 .L0 
     /tmp/ccKBiHaz.s:432    .text:00000000000002b4 .L0 
     /tmp/ccKBiHaz.s:441    .text:00000000000002c0 .L0 
     /tmp/ccKBiHaz.s:442    .text:00000000000002c0 .L0 
     /tmp/ccKBiHaz.s:445    .text:00000000000002c8 .L0 
     /tmp/ccKBiHaz.s:446    .text:00000000000002c8 .L0 
     /tmp/ccKBiHaz.s:450    .text:00000000000002d8 .L0 
     /tmp/ccKBiHaz.s:451    .text:00000000000002dc .L0 
GAS LISTING /tmp/ccKBiHaz.s 			page 18


     /tmp/ccKBiHaz.s:453    .text:00000000000002e0 .L0 
     /tmp/ccKBiHaz.s:454    .text:00000000000002e0 .L0 
     /tmp/ccKBiHaz.s:456    .text:00000000000002e4 .L0 
     /tmp/ccKBiHaz.s:459    .text:00000000000002e8 .L0 
     /tmp/ccKBiHaz.s:461    .text:00000000000002ec .L0 
     /tmp/ccKBiHaz.s:463    .text:00000000000002f0 .L0 
     /tmp/ccKBiHaz.s:474    .text:00000000000002f0 .L0 
     /tmp/ccKBiHaz.s:8      .rodata.str1.8:0000000000000000 .LC0
     /tmp/ccKBiHaz.s:33     .text:0000000000000010 .L0 
     /tmp/ccKBiHaz.s:11     .rodata.str1.8:0000000000000018 .LC1
     /tmp/ccKBiHaz.s:43     .text:0000000000000028 .L0 
     /tmp/ccKBiHaz.s:339    .text:000000000000022c .L0 
     /tmp/ccKBiHaz.s:365    .text:0000000000000250 .L0 
     /tmp/ccKBiHaz.s:315    .rodata.str1.8:0000000000000028 .LC2
     /tmp/ccKBiHaz.s:446    .text:00000000000002c8 .L0 
     /tmp/ccKBiHaz.s:191    .text:000000000000015c .L4
     /tmp/ccKBiHaz.s:199    .text:000000000000016c .L5
     /tmp/ccKBiHaz.s:207    .text:000000000000017c .L6
     /tmp/ccKBiHaz.s:391    .text:000000000000027c .L18
     /tmp/ccKBiHaz.s:369    .text:0000000000000264 .L14
     /tmp/ccKBiHaz.s:413    .text:000000000000029c .L13
     /tmp/ccKBiHaz.s:436    .text:00000000000002c0 .L15
     /tmp/ccKBiHaz.s:407    .text:0000000000000298 .L16
     /tmp/ccKBiHaz.s:397    .text:0000000000000284 .L17
     /tmp/ccKBiHaz.s:1760   .debug_abbrev:0000000000000000 .Ldebug_abbrev0
     /tmp/ccKBiHaz.s:2979   .debug_str:0000000000000651 .LASF117
     /tmp/ccKBiHaz.s:2871   .debug_str:000000000000031d .LASF118
     /tmp/ccKBiHaz.s:2891   .debug_str:00000000000003c2 .LASF119
     /tmp/ccKBiHaz.s:5      .text:0000000000000000 .Ltext0
     /tmp/ccKBiHaz.s:466    .text:00000000000002f0 .Letext0
     /tmp/ccKBiHaz.s:2763   .debug_line:0000000000000000 .Ldebug_line0
     /tmp/ccKBiHaz.s:2899   .debug_str:0000000000000423 .LASF0
     /tmp/ccKBiHaz.s:2913   .debug_str:0000000000000470 .LASF1
     /tmp/ccKBiHaz.s:2889   .debug_str:00000000000003b4 .LASF2
     /tmp/ccKBiHaz.s:2857   .debug_str:00000000000002db .LASF4
     /tmp/ccKBiHaz.s:2961   .debug_str:00000000000005c9 .LASF3
     /tmp/ccKBiHaz.s:2793   .debug_str:00000000000000c0 .LASF5
     /tmp/ccKBiHaz.s:2919   .debug_str:00000000000004a5 .LASF6
     /tmp/ccKBiHaz.s:2897   .debug_str:0000000000000410 .LASF7
     /tmp/ccKBiHaz.s:2991   .debug_str:000000000000076d .LASF8
     /tmp/ccKBiHaz.s:2849   .debug_str:0000000000000290 .LASF9
     /tmp/ccKBiHaz.s:2931   .debug_str:0000000000000516 .LASF10
     /tmp/ccKBiHaz.s:2981   .debug_str:0000000000000715 .LASF11
     /tmp/ccKBiHaz.s:2795   .debug_str:00000000000000c7 .LASF12
     /tmp/ccKBiHaz.s:2775   .debug_str:000000000000004d .LASF13
     /tmp/ccKBiHaz.s:2805   .debug_str:0000000000000100 .LASF14
     /tmp/ccKBiHaz.s:2955   .debug_str:00000000000005a1 .LASF15
     /tmp/ccKBiHaz.s:2813   .debug_str:000000000000013a .LASF16
     /tmp/ccKBiHaz.s:2881   .debug_str:0000000000000364 .LASF27
     /tmp/ccKBiHaz.s:2807   .debug_str:000000000000010c .LASF34
     /tmp/ccKBiHaz.s:2975   .debug_str:0000000000000640 .LASF17
     /tmp/ccKBiHaz.s:3013   .debug_str:0000000000000860 .LASF18
     /tmp/ccKBiHaz.s:3001   .debug_str:00000000000007b4 .LASF19
     /tmp/ccKBiHaz.s:2905   .debug_str:000000000000043f .LASF43
     /tmp/ccKBiHaz.s:2887   .debug_str:0000000000000394 .LASF45
     /tmp/ccKBiHaz.s:2965   .debug_str:00000000000005f0 .LASF20
     /tmp/ccKBiHaz.s:2971   .debug_str:0000000000000616 .LASF22
GAS LISTING /tmp/ccKBiHaz.s 			page 19


     /tmp/ccKBiHaz.s:2937   .debug_str:0000000000000538 .LASF26
     /tmp/ccKBiHaz.s:2847   .debug_str:000000000000026f .LASF28
     /tmp/ccKBiHaz.s:2769   .debug_str:0000000000000018 .LASF21
     /tmp/ccKBiHaz.s:2821   .debug_str:0000000000000174 .LASF23
     /tmp/ccKBiHaz.s:2907   .debug_str:0000000000000448 .LASF24
     /tmp/ccKBiHaz.s:3009   .debug_str:0000000000000829 .LASF25
     /tmp/ccKBiHaz.s:2823   .debug_str:000000000000019b .LASF29
     /tmp/ccKBiHaz.s:2977   .debug_str:0000000000000645 .LASF30
     /tmp/ccKBiHaz.s:3007   .debug_str:00000000000007f3 .LASF31
     /tmp/ccKBiHaz.s:2817   .debug_str:000000000000015c .LASF32
     /tmp/ccKBiHaz.s:2785   .debug_str:0000000000000093 .LASF33
     /tmp/ccKBiHaz.s:2781   .debug_str:000000000000007a .LASF35
     /tmp/ccKBiHaz.s:2995   .debug_str:0000000000000792 .LASF36
     /tmp/ccKBiHaz.s:2791   .debug_str:00000000000000b4 .LASF37
     /tmp/ccKBiHaz.s:2969   .debug_str:0000000000000606 .LASF49
     /tmp/ccKBiHaz.s:2949   .debug_str:0000000000000582 .LASF56
     /tmp/ccKBiHaz.s:2825   .debug_str:00000000000001b4 .LASF38
     /tmp/ccKBiHaz.s:2943   .debug_str:0000000000000558 .LASF39
     /tmp/ccKBiHaz.s:2869   .debug_str:0000000000000310 .LASF40
     /tmp/ccKBiHaz.s:3003   .debug_str:00000000000007b9 .LASF41
     /tmp/ccKBiHaz.s:2945   .debug_str:0000000000000564 .LASF42
     /tmp/ccKBiHaz.s:2901   .debug_str:0000000000000430 .LASF74
     /tmp/ccKBiHaz.s:2835   .debug_str:00000000000001f6 .LASF76
     /tmp/ccKBiHaz.s:2877   .debug_str:000000000000034c .LASF44
     /tmp/ccKBiHaz.s:2801   .debug_str:00000000000000ec .LASF46
     /tmp/ccKBiHaz.s:2921   .debug_str:00000000000004b8 .LASF47
     /tmp/ccKBiHaz.s:2809   .debug_str:0000000000000119 .LASF48
     /tmp/ccKBiHaz.s:2831   .debug_str:00000000000001e0 .LASF120
     /tmp/ccKBiHaz.s:2929   .debug_str:0000000000000500 .LASF121
     /tmp/ccKBiHaz.s:2859   .debug_str:00000000000002e2 .LASF50
     /tmp/ccKBiHaz.s:2903   .debug_str:0000000000000439 .LASF51
     /tmp/ccKBiHaz.s:2865   .debug_str:00000000000002fb .LASF52
     /tmp/ccKBiHaz.s:2861   .debug_str:00000000000002eb .LASF53
     /tmp/ccKBiHaz.s:2885   .debug_str:0000000000000389 .LASF122
     /tmp/ccKBiHaz.s:2987   .debug_str:000000000000073f .LASF123
     /tmp/ccKBiHaz.s:2911   .debug_str:000000000000046a .LASF54
     /tmp/ccKBiHaz.s:2983   .debug_str:0000000000000724 .LASF55
     /tmp/ccKBiHaz.s:2893   .debug_str:00000000000003ee .LASF57
     /tmp/ccKBiHaz.s:2997   .debug_str:000000000000079f .LASF58
     /tmp/ccKBiHaz.s:2963   .debug_str:00000000000005db .LASF59
     /tmp/ccKBiHaz.s:2973   .debug_str:0000000000000637 .LASF60
     /tmp/ccKBiHaz.s:2883   .debug_str:0000000000000374 .LASF61
     /tmp/ccKBiHaz.s:2915   .debug_str:0000000000000483 .LASF62
     /tmp/ccKBiHaz.s:2855   .debug_str:00000000000002c2 .LASF63
     /tmp/ccKBiHaz.s:2967   .debug_str:00000000000005fa .LASF64
     /tmp/ccKBiHaz.s:2947   .debug_str:0000000000000569 .LASF65
     /tmp/ccKBiHaz.s:2799   .debug_str:00000000000000e1 .LASF66
     /tmp/ccKBiHaz.s:2989   .debug_str:0000000000000755 .LASF67
     /tmp/ccKBiHaz.s:2811   .debug_str:0000000000000130 .LASF68
     /tmp/ccKBiHaz.s:2925   .debug_str:00000000000004c9 .LASF69
     /tmp/ccKBiHaz.s:2863   .debug_str:00000000000002f0 .LASF70
     /tmp/ccKBiHaz.s:2875   .debug_str:0000000000000334 .LASF71
     /tmp/ccKBiHaz.s:2787   .debug_str:000000000000009f .LASF72
     /tmp/ccKBiHaz.s:2843   .debug_str:0000000000000239 .LASF73
     /tmp/ccKBiHaz.s:2789   .debug_str:00000000000000a6 .LASF75
     /tmp/ccKBiHaz.s:2829   .debug_str:00000000000001c5 .LASF77
     /tmp/ccKBiHaz.s:2841   .debug_str:000000000000022c .LASF78
GAS LISTING /tmp/ccKBiHaz.s 			page 20


     /tmp/ccKBiHaz.s:2773   .debug_str:0000000000000033 .LASF79
     /tmp/ccKBiHaz.s:2985   .debug_str:000000000000072e .LASF80
     /tmp/ccKBiHaz.s:2839   .debug_str:000000000000020e .LASF81
     /tmp/ccKBiHaz.s:2951   .debug_str:000000000000058f .LASF82
     /tmp/ccKBiHaz.s:3005   .debug_str:00000000000007db .LASF83
     /tmp/ccKBiHaz.s:2917   .debug_str:000000000000048f .LASF84
     /tmp/ccKBiHaz.s:2845   .debug_str:000000000000024c .LASF85
     /tmp/ccKBiHaz.s:2837   .debug_str:0000000000000209 .LASF86
     /tmp/ccKBiHaz.s:2765   .debug_str:0000000000000000 .LASF87
     /tmp/ccKBiHaz.s:2803   .debug_str:00000000000000fb .LASF88
     /tmp/ccKBiHaz.s:322    .text:0000000000000214 .LFB27
     /tmp/ccKBiHaz.s:464    .text:00000000000002f0 .LFE27
     /tmp/ccKBiHaz.s:3011   .debug_str:0000000000000855 .LASF89
     /tmp/ccKBiHaz.s:392    .text:000000000000027c .LBB16
     /tmp/ccKBiHaz.s:439    .text:00000000000002c0 .LBE16
     /tmp/ccKBiHaz.s:2797   .debug_str:00000000000000d7 .LASF90
     /tmp/ccKBiHaz.s:2619   .debug_loc:0000000000000000 .LLST10
     /tmp/ccKBiHaz.s:2999   .debug_str:00000000000007a8 .LASF91
     /tmp/ccKBiHaz.s:2957   .debug_str:00000000000005b7 .LASF124
     /tmp/ccKBiHaz.s:2630   .debug_loc:0000000000000036 .LLST11
     /tmp/ccKBiHaz.s:2873   .debug_str:000000000000032a .LASF92
     /tmp/ccKBiHaz.s:398    .text:0000000000000284 .LBB17
     /tmp/ccKBiHaz.s:409    .text:0000000000000298 .LBE17
     /tmp/ccKBiHaz.s:2637   .debug_loc:0000000000000059 .LLST12
     /tmp/ccKBiHaz.s:403    .text:000000000000028c .LVL49
     /tmp/ccKBiHaz.s:406    .text:0000000000000298 .LVL50
     /tmp/ccKBiHaz.s:424    .text:00000000000002ac .LBB19
     /tmp/ccKBiHaz.s:438    .text:00000000000002c0 .LBE19
     /tmp/ccKBiHaz.s:2644   .debug_loc:000000000000007c .LLST13
     /tmp/ccKBiHaz.s:433    .text:00000000000002bc .LVL54
     /tmp/ccKBiHaz.s:341    .text:0000000000000234 .LBB12
     /tmp/ccKBiHaz.s:353    .text:0000000000000238 .LBE12
     /tmp/ccKBiHaz.s:375    .text:0000000000000268 .LBB14
     /tmp/ccKBiHaz.s:383    .text:000000000000026c .LBE14
     /tmp/ccKBiHaz.s:2651   .debug_loc:000000000000009f .LLST9
     /tmp/ccKBiHaz.s:361    .text:000000000000024c .LVL43
     /tmp/ccKBiHaz.s:368    .text:0000000000000264 .LVL44
     /tmp/ccKBiHaz.s:389    .text:0000000000000278 .LVL47
     /tmp/ccKBiHaz.s:443    .text:00000000000002c8 .LVL56
     /tmp/ccKBiHaz.s:448    .text:00000000000002d8 .LVL57
     /tmp/ccKBiHaz.s:2851   .debug_str:000000000000029e .LASF93
     /tmp/ccKBiHaz.s:2993   .debug_str:000000000000077d .LASF94
     /tmp/ccKBiHaz.s:285    .text:00000000000001ec .LFB26
     /tmp/ccKBiHaz.s:311    .text:0000000000000214 .LFE26
     /tmp/ccKBiHaz.s:2658   .debug_loc:00000000000000c2 .LLST8
     /tmp/ccKBiHaz.s:300    .text:0000000000000204 .LVL40
     /tmp/ccKBiHaz.s:2767   .debug_str:0000000000000009 .LASF95
     /tmp/ccKBiHaz.s:2853   .debug_str:00000000000002ad .LASF96
     /tmp/ccKBiHaz.s:253    .text:00000000000001c4 .LFB25
     /tmp/ccKBiHaz.s:279    .text:00000000000001ec .LFE25
     /tmp/ccKBiHaz.s:2672   .debug_loc:00000000000000fb .LLST7
     /tmp/ccKBiHaz.s:268    .text:00000000000001dc .LVL38
     /tmp/ccKBiHaz.s:2827   .debug_str:00000000000001b9 .LASF97
     /tmp/ccKBiHaz.s:2939   .debug_str:0000000000000541 .LASF98
     /tmp/ccKBiHaz.s:18     .text:0000000000000000 .LFB24
     /tmp/ccKBiHaz.s:56     .text:0000000000000048 .LFE24
     /tmp/ccKBiHaz.s:2686   .debug_loc:0000000000000134 .LLST0
GAS LISTING /tmp/ccKBiHaz.s 			page 21


     /tmp/ccKBiHaz.s:36     .text:0000000000000020 .LVL2
     /tmp/ccKBiHaz.s:40     .text:0000000000000028 .LVL3
     /tmp/ccKBiHaz.s:45     .text:0000000000000038 .LVL4
     /tmp/ccKBiHaz.s:2909   .debug_str:000000000000045c .LASF99
     /tmp/ccKBiHaz.s:2879   .debug_str:0000000000000351 .LASF100
     /tmp/ccKBiHaz.s:62     .text:0000000000000048 .LFB23
     /tmp/ccKBiHaz.s:247    .text:00000000000001c4 .LFE23
     /tmp/ccKBiHaz.s:2700   .debug_loc:000000000000016d .LLST1
     /tmp/ccKBiHaz.s:2711   .debug_loc:00000000000001a3 .LLST2
     /tmp/ccKBiHaz.s:2718   .debug_loc:00000000000001c6 .LLST3
     /tmp/ccKBiHaz.s:2729   .debug_loc:00000000000001fc .LLST4
     /tmp/ccKBiHaz.s:2736   .debug_loc:000000000000021f .LLST5
     /tmp/ccKBiHaz.s:2743   .debug_loc:0000000000000242 .LLST6
     /tmp/ccKBiHaz.s:83     .text:0000000000000070 .LVL5
     /tmp/ccKBiHaz.s:95     .text:0000000000000088 .LVL8
     /tmp/ccKBiHaz.s:100    .text:0000000000000094 .LVL9
     /tmp/ccKBiHaz.s:105    .text:00000000000000a0 .LVL10
     /tmp/ccKBiHaz.s:115    .text:00000000000000b4 .LVL12
     /tmp/ccKBiHaz.s:120    .text:00000000000000c0 .LVL13
     /tmp/ccKBiHaz.s:125    .text:00000000000000cc .LVL14
     /tmp/ccKBiHaz.s:137    .text:00000000000000e4 .LVL17
     /tmp/ccKBiHaz.s:142    .text:00000000000000f0 .LVL18
     /tmp/ccKBiHaz.s:147    .text:00000000000000fc .LVL19
     /tmp/ccKBiHaz.s:158    .text:0000000000000114 .LVL21
     /tmp/ccKBiHaz.s:163    .text:0000000000000120 .LVL22
     /tmp/ccKBiHaz.s:168    .text:000000000000012c .LVL23
     /tmp/ccKBiHaz.s:178    .text:0000000000000140 .LVL25
     /tmp/ccKBiHaz.s:183    .text:000000000000014c .LVL26
     /tmp/ccKBiHaz.s:190    .text:000000000000015c .LVL27
     /tmp/ccKBiHaz.s:198    .text:000000000000016c .LVL28
     /tmp/ccKBiHaz.s:206    .text:000000000000017c .LVL29
     /tmp/ccKBiHaz.s:212    .text:0000000000000188 .LVL30
     /tmp/ccKBiHaz.s:222    .text:000000000000019c .LVL32
     /tmp/ccKBiHaz.s:227    .text:00000000000001a8 .LVL33
     /tmp/ccKBiHaz.s:2941   .debug_str:0000000000000553 .LASF101
     /tmp/ccKBiHaz.s:2933   .debug_str:0000000000000525 .LASF102
     /tmp/ccKBiHaz.s:2815   .debug_str:0000000000000150 .LASF125
     /tmp/ccKBiHaz.s:2923   .debug_str:00000000000004c3 .LASF103
     /tmp/ccKBiHaz.s:3015   .debug_str:0000000000000865 .LASF104
     /tmp/ccKBiHaz.s:2927   .debug_str:00000000000004df .LASF105
     /tmp/ccKBiHaz.s:2833   .debug_str:00000000000001e8 .LASF106
     /tmp/ccKBiHaz.s:2819   .debug_str:0000000000000161 .LASF107
     /tmp/ccKBiHaz.s:2779   .debug_str:000000000000006e .LASF108
     /tmp/ccKBiHaz.s:2783   .debug_str:0000000000000082 .LASF109
     /tmp/ccKBiHaz.s:2895   .debug_str:0000000000000404 .LASF110
     /tmp/ccKBiHaz.s:2777   .debug_str:000000000000005d .LASF111
     /tmp/ccKBiHaz.s:2771   .debug_str:0000000000000027 .LASF112
     /tmp/ccKBiHaz.s:2867   .debug_str:0000000000000303 .LASF113
     /tmp/ccKBiHaz.s:2935   .debug_str:000000000000052f .LASF114
     /tmp/ccKBiHaz.s:2959   .debug_str:00000000000005c3 .LASF115
     /tmp/ccKBiHaz.s:2953   .debug_str:000000000000059a .LASF116
     /tmp/ccKBiHaz.s:396    .text:0000000000000284 .LVL48
     /tmp/ccKBiHaz.s:412    .text:000000000000029c .LVL51
     /tmp/ccKBiHaz.s:419    .text:00000000000002a8 .LVL52
     /tmp/ccKBiHaz.s:435    .text:00000000000002c0 .LVL55
     /tmp/ccKBiHaz.s:457    .text:00000000000002e4 .LVL58
     /tmp/ccKBiHaz.s:423    .text:00000000000002ac .LVL53
GAS LISTING /tmp/ccKBiHaz.s 			page 22


     /tmp/ccKBiHaz.s:374    .text:0000000000000268 .LVL45
     /tmp/ccKBiHaz.s:381    .text:000000000000026c .LVL46
     /tmp/ccKBiHaz.s:288    .text:00000000000001ec .LVL39
     /tmp/ccKBiHaz.s:256    .text:00000000000001c4 .LVL37
     /tmp/ccKBiHaz.s:22     .text:0000000000000000 .LVL0
     /tmp/ccKBiHaz.s:34     .text:0000000000000018 .LVL1
     /tmp/ccKBiHaz.s:85     .text:0000000000000074 .LVL6
     /tmp/ccKBiHaz.s:93     .text:0000000000000080 .LVL7
     /tmp/ccKBiHaz.s:242    .text:00000000000001bc .LVL36
     /tmp/ccKBiHaz.s:113    .text:00000000000000ac .LVL11
     /tmp/ccKBiHaz.s:127    .text:00000000000000d0 .LVL15
     /tmp/ccKBiHaz.s:135    .text:00000000000000dc .LVL16
     /tmp/ccKBiHaz.s:239    .text:00000000000001b8 .LVL35
     /tmp/ccKBiHaz.s:149    .text:0000000000000100 .LVL20
     /tmp/ccKBiHaz.s:236    .text:00000000000001b4 .LVL34
     /tmp/ccKBiHaz.s:176    .text:0000000000000138 .LVL24
     /tmp/ccKBiHaz.s:220    .text:0000000000000194 .LVL31
     /tmp/ccKBiHaz.s:475    .debug_info:0000000000000000 .Ldebug_info0

UNDEFINED SYMBOLS
_Z11printStringPKc
_Z8userMainv
_Znwm
__putc
_ZdlPv
_Z11workerBodyAv
_Z11workerBodyBv
SupervisorTrap
_Z13thread_createPP3TCBPFvPvES2_
_ZN3TCB8dispatchEv
_ZN15MemoryAllocator8InstanceEv
_ZN15MemoryAllocator8mem_freeEPv
