GAS LISTING /tmp/ccbuXRSa.s 			page 1


   1              		.file	"main.cpp"
   2              		.option pic
   3              		.option norelax
   4              		.text
   5              	.Ltext0:
   6              		.align	2
   7              		.globl	_Z14WorkerAWrapperPv
   9              	_Z14WorkerAWrapperPv:
  10              	.LFB33:
  11              		.file 1 "src/main.cpp"
   1:src/main.cpp  **** 
   2:src/main.cpp  **** #include "../lib/console.h"
   3:src/main.cpp  **** #include  "../lib/hw.h"
   4:src/main.cpp  **** #include "../h/MemoryAllocator.hpp"
   5:src/main.cpp  **** #include "../h/syscall_c.hpp"
   6:src/main.cpp  **** #include  "../h/syscall_cpp.hpp"
   7:src/main.cpp  **** #include "../h/Riscv.hpp"
   8:src/main.cpp  **** #include "../h/print.hpp"
   9:src/main.cpp  **** #include "../h/List.hpp"
  10:src/main.cpp  **** #include  "../h/TCB.hpp"
  11:src/main.cpp  **** #include "../h/workers.hpp"
  12:src/main.cpp  **** 
  13:src/main.cpp  **** 
  14:src/main.cpp  **** 
  15:src/main.cpp  **** 
  16:src/main.cpp  **** 
  17:src/main.cpp  **** void AllocatorTest() {
  18:src/main.cpp  ****     uint64* a1=new uint64;
  19:src/main.cpp  ****     *a1=4;
  20:src/main.cpp  ****     __putc(*a1+'0');
  21:src/main.cpp  ****     __putc('\n');
  22:src/main.cpp  ****     uint64* a2=new uint64;
  23:src/main.cpp  ****     *a2=5;
  24:src/main.cpp  ****     __putc(*a2+'0');
  25:src/main.cpp  ****     __putc('\n');
  26:src/main.cpp  ****     uint64* a3=new uint64;
  27:src/main.cpp  ****     *a3=6;
  28:src/main.cpp  ****     __putc(*a3+'0');
  29:src/main.cpp  ****     __putc('\n');
  30:src/main.cpp  ****     uint64* a4=new uint64;
  31:src/main.cpp  ****     *a4=7;
  32:src/main.cpp  ****     __putc(*a4+'0');
  33:src/main.cpp  ****     __putc('\n');
  34:src/main.cpp  ****     uint64* a5=new uint64;
  35:src/main.cpp  ****     *a5=8;
  36:src/main.cpp  ****     __putc(*a5+'0');
  37:src/main.cpp  ****     __putc('\n');
  38:src/main.cpp  ****     delete a1;
  39:src/main.cpp  ****     delete a3;
  40:src/main.cpp  ****     delete a4;
  41:src/main.cpp  ****     uint64* a6=new uint64;
  42:src/main.cpp  ****     *a6=9;
  43:src/main.cpp  ****     __putc(*a6+'0');
  44:src/main.cpp  ****     __putc('\n');
  45:src/main.cpp  **** }
  46:src/main.cpp  **** extern void userMain();
  47:src/main.cpp  **** 
GAS LISTING /tmp/ccbuXRSa.s 			page 2


  48:src/main.cpp  **** void userWrapper(void* arg)
  49:src/main.cpp  **** {
  50:src/main.cpp  ****     pprintString("user main start:\n");
  51:src/main.cpp  ****     userMain();
  52:src/main.cpp  ****     pprintString("user main end:\n");
  53:src/main.cpp  **** }
  54:src/main.cpp  **** 
  55:src/main.cpp  **** void WorkerAWrapper(void* arg)
  56:src/main.cpp  **** {
  12              		.loc 1 56 1
  13              		.cfi_startproc
  14              	.LVL0:
  15 0000 130101FF 		addi	sp,sp,-16
  16              		.cfi_def_cfa_offset 16
  17 0004 23341100 		sd	ra,8(sp)
  18 0008 23308100 		sd	s0,0(sp)
  19              		.cfi_offset 1, -8
  20              		.cfi_offset 8, -16
  21 000c 13040101 		addi	s0,sp,16
  22              		.cfi_def_cfa 8, 0
  57:src/main.cpp  ****     //pprintString("worker A start:\n");
  58:src/main.cpp  ****     workerBodyA();
  23              		.loc 1 58 5
  24              		.loc 1 58 16 is_stmt 0
  25 0010 97000000 		call	_Z11workerBodyAv@plt
  25      E7800000 
  26              	.LVL1:
  59:src/main.cpp  ****     //pprintString("worker A end:\n");
  60:src/main.cpp  **** }
  27              		.loc 1 60 1
  28 0018 83308100 		ld	ra,8(sp)
  29              		.cfi_restore 1
  30 001c 03340100 		ld	s0,0(sp)
  31              		.cfi_restore 8
  32              		.cfi_def_cfa 2, 16
  33 0020 13010101 		addi	sp,sp,16
  34              		.cfi_def_cfa_offset 0
  35 0024 67800000 		jr	ra
  36              		.cfi_endproc
  37              	.LFE33:
  39              		.align	2
  40              		.globl	_Z14WorkerBWrapperPv
  42              	_Z14WorkerBWrapperPv:
  43              	.LFB34:
  61:src/main.cpp  **** 
  62:src/main.cpp  **** void WorkerBWrapper(void* arg)
  63:src/main.cpp  **** {
  44              		.loc 1 63 1 is_stmt 1
  45              		.cfi_startproc
  46              	.LVL2:
  47 0028 130101FF 		addi	sp,sp,-16
  48              		.cfi_def_cfa_offset 16
  49 002c 23341100 		sd	ra,8(sp)
  50 0030 23308100 		sd	s0,0(sp)
  51              		.cfi_offset 1, -8
  52              		.cfi_offset 8, -16
  53 0034 13040101 		addi	s0,sp,16
GAS LISTING /tmp/ccbuXRSa.s 			page 3


  54              		.cfi_def_cfa 8, 0
  64:src/main.cpp  ****     //pprintString("worker B start:\n");
  65:src/main.cpp  ****     workerBodyB();
  55              		.loc 1 65 5
  56              		.loc 1 65 16 is_stmt 0
  57 0038 97000000 		call	_Z11workerBodyBv@plt
  57      E7800000 
  58              	.LVL3:
  66:src/main.cpp  ****     //pprintString("worker B end:\n");
  67:src/main.cpp  **** }
  59              		.loc 1 67 1
  60 0040 83308100 		ld	ra,8(sp)
  61              		.cfi_restore 1
  62 0044 03340100 		ld	s0,0(sp)
  63              		.cfi_restore 8
  64              		.cfi_def_cfa 2, 16
  65 0048 13010101 		addi	sp,sp,16
  66              		.cfi_def_cfa_offset 0
  67 004c 67800000 		jr	ra
  68              		.cfi_endproc
  69              	.LFE34:
  71              		.align	2
  72              		.globl	_Z14WorkerCWrapperPv
  74              	_Z14WorkerCWrapperPv:
  75              	.LFB35:
  68:src/main.cpp  **** 
  69:src/main.cpp  **** void WorkerCWrapper(void* arg)
  70:src/main.cpp  **** {
  76              		.loc 1 70 1 is_stmt 1
  77              		.cfi_startproc
  78              	.LVL4:
  79 0050 130101FF 		addi	sp,sp,-16
  80              		.cfi_def_cfa_offset 16
  81 0054 23341100 		sd	ra,8(sp)
  82 0058 23308100 		sd	s0,0(sp)
  83              		.cfi_offset 1, -8
  84              		.cfi_offset 8, -16
  85 005c 13040101 		addi	s0,sp,16
  86              		.cfi_def_cfa 8, 0
  71:src/main.cpp  ****     //pprintString("worker C start:\n");
  72:src/main.cpp  ****     workerBodyC();
  87              		.loc 1 72 5
  88              		.loc 1 72 16 is_stmt 0
  89 0060 97000000 		call	_Z11workerBodyCv@plt
  89      E7800000 
  90              	.LVL5:
  73:src/main.cpp  ****     //pprintString("worker C end:\n");
  74:src/main.cpp  **** }
  91              		.loc 1 74 1
  92 0068 83308100 		ld	ra,8(sp)
  93              		.cfi_restore 1
  94 006c 03340100 		ld	s0,0(sp)
  95              		.cfi_restore 8
  96              		.cfi_def_cfa 2, 16
  97 0070 13010101 		addi	sp,sp,16
  98              		.cfi_def_cfa_offset 0
  99 0074 67800000 		jr	ra
GAS LISTING /tmp/ccbuXRSa.s 			page 4


 100              		.cfi_endproc
 101              	.LFE35:
 103              		.align	2
 104              		.globl	_Z13AllocatorTestv
 106              	_Z13AllocatorTestv:
 107              	.LFB31:
  17:src/main.cpp  ****     uint64* a1=new uint64;
 108              		.loc 1 17 22 is_stmt 1
 109              		.cfi_startproc
 110 0078 130101FD 		addi	sp,sp,-48
 111              		.cfi_def_cfa_offset 48
 112 007c 23341102 		sd	ra,40(sp)
 113 0080 23308102 		sd	s0,32(sp)
 114 0084 233C9100 		sd	s1,24(sp)
 115 0088 23382101 		sd	s2,16(sp)
 116 008c 23343101 		sd	s3,8(sp)
 117              		.cfi_offset 1, -8
 118              		.cfi_offset 8, -16
 119              		.cfi_offset 9, -24
 120              		.cfi_offset 18, -32
 121              		.cfi_offset 19, -40
 122 0090 13040103 		addi	s0,sp,48
 123              		.cfi_def_cfa 8, 0
  18:src/main.cpp  ****     *a1=4;
 124              		.loc 1 18 5
  18:src/main.cpp  ****     *a1=4;
 125              		.loc 1 18 20 is_stmt 0
 126 0094 13058000 		li	a0,8
 127 0098 97000000 		call	_Znwm@plt
 127      E7800000 
 128              	.LVL6:
 129 00a0 93090500 		mv	s3,a0
 130              	.LVL7:
  19:src/main.cpp  ****     __putc(*a1+'0');
 131              		.loc 1 19 5 is_stmt 1
  19:src/main.cpp  ****     __putc(*a1+'0');
 132              		.loc 1 19 8 is_stmt 0
 133 00a4 93074000 		li	a5,4
 134 00a8 2330F500 		sd	a5,0(a0)
  20:src/main.cpp  ****     __putc('\n');
 135              		.loc 1 20 5 is_stmt 1
  20:src/main.cpp  ****     __putc('\n');
 136              		.loc 1 20 11 is_stmt 0
 137 00ac 13054003 		li	a0,52
 138              	.LVL8:
 139 00b0 97000000 		call	__putc@plt
 139      E7800000 
 140              	.LVL9:
  21:src/main.cpp  ****     uint64* a2=new uint64;
 141              		.loc 1 21 5 is_stmt 1
  21:src/main.cpp  ****     uint64* a2=new uint64;
 142              		.loc 1 21 11 is_stmt 0
 143 00b8 1305A000 		li	a0,10
 144 00bc 97000000 		call	__putc@plt
 144      E7800000 
 145              	.LVL10:
  22:src/main.cpp  ****     *a2=5;
GAS LISTING /tmp/ccbuXRSa.s 			page 5


 146              		.loc 1 22 5 is_stmt 1
  22:src/main.cpp  ****     *a2=5;
 147              		.loc 1 22 20 is_stmt 0
 148 00c4 13058000 		li	a0,8
 149 00c8 97000000 		call	_Znwm@plt
 149      E7800000 
 150              	.LVL11:
  23:src/main.cpp  ****     __putc(*a2+'0');
 151              		.loc 1 23 5 is_stmt 1
  23:src/main.cpp  ****     __putc(*a2+'0');
 152              		.loc 1 23 8 is_stmt 0
 153 00d0 93075000 		li	a5,5
 154 00d4 2330F500 		sd	a5,0(a0)
  24:src/main.cpp  ****     __putc('\n');
 155              		.loc 1 24 5 is_stmt 1
  24:src/main.cpp  ****     __putc('\n');
 156              		.loc 1 24 11 is_stmt 0
 157 00d8 13055003 		li	a0,53
 158              	.LVL12:
 159 00dc 97000000 		call	__putc@plt
 159      E7800000 
 160              	.LVL13:
  25:src/main.cpp  ****     uint64* a3=new uint64;
 161              		.loc 1 25 5 is_stmt 1
  25:src/main.cpp  ****     uint64* a3=new uint64;
 162              		.loc 1 25 11 is_stmt 0
 163 00e4 1305A000 		li	a0,10
 164 00e8 97000000 		call	__putc@plt
 164      E7800000 
 165              	.LVL14:
  26:src/main.cpp  ****     *a3=6;
 166              		.loc 1 26 5 is_stmt 1
  26:src/main.cpp  ****     *a3=6;
 167              		.loc 1 26 20 is_stmt 0
 168 00f0 13058000 		li	a0,8
 169 00f4 97000000 		call	_Znwm@plt
 169      E7800000 
 170              	.LVL15:
 171 00fc 13090500 		mv	s2,a0
 172              	.LVL16:
  27:src/main.cpp  ****     __putc(*a3+'0');
 173              		.loc 1 27 5 is_stmt 1
  27:src/main.cpp  ****     __putc(*a3+'0');
 174              		.loc 1 27 8 is_stmt 0
 175 0100 93076000 		li	a5,6
 176 0104 2330F500 		sd	a5,0(a0)
  28:src/main.cpp  ****     __putc('\n');
 177              		.loc 1 28 5 is_stmt 1
  28:src/main.cpp  ****     __putc('\n');
 178              		.loc 1 28 11 is_stmt 0
 179 0108 13056003 		li	a0,54
 180              	.LVL17:
 181 010c 97000000 		call	__putc@plt
 181      E7800000 
 182              	.LVL18:
  29:src/main.cpp  ****     uint64* a4=new uint64;
 183              		.loc 1 29 5 is_stmt 1
GAS LISTING /tmp/ccbuXRSa.s 			page 6


  29:src/main.cpp  ****     uint64* a4=new uint64;
 184              		.loc 1 29 11 is_stmt 0
 185 0114 1305A000 		li	a0,10
 186 0118 97000000 		call	__putc@plt
 186      E7800000 
 187              	.LVL19:
  30:src/main.cpp  ****     *a4=7;
 188              		.loc 1 30 5 is_stmt 1
  30:src/main.cpp  ****     *a4=7;
 189              		.loc 1 30 20 is_stmt 0
 190 0120 13058000 		li	a0,8
 191 0124 97000000 		call	_Znwm@plt
 191      E7800000 
 192              	.LVL20:
 193 012c 93040500 		mv	s1,a0
 194              	.LVL21:
  31:src/main.cpp  ****     __putc(*a4+'0');
 195              		.loc 1 31 5 is_stmt 1
  31:src/main.cpp  ****     __putc(*a4+'0');
 196              		.loc 1 31 8 is_stmt 0
 197 0130 93077000 		li	a5,7
 198 0134 2330F500 		sd	a5,0(a0)
  32:src/main.cpp  ****     __putc('\n');
 199              		.loc 1 32 5 is_stmt 1
  32:src/main.cpp  ****     __putc('\n');
 200              		.loc 1 32 11 is_stmt 0
 201 0138 13057003 		li	a0,55
 202 013c 97000000 		call	__putc@plt
 202      E7800000 
 203              	.LVL22:
  33:src/main.cpp  ****     uint64* a5=new uint64;
 204              		.loc 1 33 5 is_stmt 1
  33:src/main.cpp  ****     uint64* a5=new uint64;
 205              		.loc 1 33 11 is_stmt 0
 206 0144 1305A000 		li	a0,10
 207 0148 97000000 		call	__putc@plt
 207      E7800000 
 208              	.LVL23:
  34:src/main.cpp  ****     *a5=8;
 209              		.loc 1 34 5 is_stmt 1
  34:src/main.cpp  ****     *a5=8;
 210              		.loc 1 34 20 is_stmt 0
 211 0150 13058000 		li	a0,8
 212 0154 97000000 		call	_Znwm@plt
 212      E7800000 
 213              	.LVL24:
  35:src/main.cpp  ****     __putc(*a5+'0');
 214              		.loc 1 35 5 is_stmt 1
  35:src/main.cpp  ****     __putc(*a5+'0');
 215              		.loc 1 35 8 is_stmt 0
 216 015c 93078000 		li	a5,8
 217 0160 2330F500 		sd	a5,0(a0)
  36:src/main.cpp  ****     __putc('\n');
 218              		.loc 1 36 5 is_stmt 1
  36:src/main.cpp  ****     __putc('\n');
 219              		.loc 1 36 11 is_stmt 0
 220 0164 13058003 		li	a0,56
GAS LISTING /tmp/ccbuXRSa.s 			page 7


 221              	.LVL25:
 222 0168 97000000 		call	__putc@plt
 222      E7800000 
 223              	.LVL26:
  37:src/main.cpp  ****     delete a1;
 224              		.loc 1 37 5 is_stmt 1
  37:src/main.cpp  ****     delete a1;
 225              		.loc 1 37 11 is_stmt 0
 226 0170 1305A000 		li	a0,10
 227 0174 97000000 		call	__putc@plt
 227      E7800000 
 228              	.LVL27:
  38:src/main.cpp  ****     delete a3;
 229              		.loc 1 38 5 is_stmt 1
  38:src/main.cpp  ****     delete a3;
 230              		.loc 1 38 14 is_stmt 0
 231 017c 63880900 		beqz	s3,.L8
  38:src/main.cpp  ****     delete a3;
 232              		.loc 1 38 12 discriminator 1
 233 0180 13850900 		mv	a0,s3
 234 0184 97000000 		call	_ZdlPv@plt
 234      E7800000 
 235              	.LVL28:
 236              	.L8:
  39:src/main.cpp  ****     delete a4;
 237              		.loc 1 39 5 is_stmt 1
  39:src/main.cpp  ****     delete a4;
 238              		.loc 1 39 14 is_stmt 0
 239 018c 63080900 		beqz	s2,.L9
  39:src/main.cpp  ****     delete a4;
 240              		.loc 1 39 12 discriminator 1
 241 0190 13050900 		mv	a0,s2
 242 0194 97000000 		call	_ZdlPv@plt
 242      E7800000 
 243              	.LVL29:
 244              	.L9:
  40:src/main.cpp  ****     uint64* a6=new uint64;
 245              		.loc 1 40 5 is_stmt 1
  40:src/main.cpp  ****     uint64* a6=new uint64;
 246              		.loc 1 40 14 is_stmt 0
 247 019c 63880400 		beqz	s1,.L10
  40:src/main.cpp  ****     uint64* a6=new uint64;
 248              		.loc 1 40 12 discriminator 1
 249 01a0 13850400 		mv	a0,s1
 250 01a4 97000000 		call	_ZdlPv@plt
 250      E7800000 
 251              	.LVL30:
 252              	.L10:
  41:src/main.cpp  ****     *a6=9;
 253              		.loc 1 41 5 is_stmt 1
  41:src/main.cpp  ****     *a6=9;
 254              		.loc 1 41 20 is_stmt 0
 255 01ac 13058000 		li	a0,8
 256 01b0 97000000 		call	_Znwm@plt
 256      E7800000 
 257              	.LVL31:
  42:src/main.cpp  ****     __putc(*a6+'0');
GAS LISTING /tmp/ccbuXRSa.s 			page 8


 258              		.loc 1 42 5 is_stmt 1
  42:src/main.cpp  ****     __putc(*a6+'0');
 259              		.loc 1 42 8 is_stmt 0
 260 01b8 93079000 		li	a5,9
 261 01bc 2330F500 		sd	a5,0(a0)
  43:src/main.cpp  ****     __putc('\n');
 262              		.loc 1 43 5 is_stmt 1
  43:src/main.cpp  ****     __putc('\n');
 263              		.loc 1 43 11 is_stmt 0
 264 01c0 13059003 		li	a0,57
 265              	.LVL32:
 266 01c4 97000000 		call	__putc@plt
 266      E7800000 
 267              	.LVL33:
  44:src/main.cpp  **** }
 268              		.loc 1 44 5 is_stmt 1
  44:src/main.cpp  **** }
 269              		.loc 1 44 11 is_stmt 0
 270 01cc 1305A000 		li	a0,10
 271 01d0 97000000 		call	__putc@plt
 271      E7800000 
 272              	.LVL34:
  45:src/main.cpp  **** extern void userMain();
 273              		.loc 1 45 1
 274 01d8 83308102 		ld	ra,40(sp)
 275              		.cfi_restore 1
 276 01dc 03340102 		ld	s0,32(sp)
 277              		.cfi_restore 8
 278              		.cfi_def_cfa 2, 48
 279 01e0 83348101 		ld	s1,24(sp)
 280              		.cfi_restore 9
 281              	.LVL35:
 282 01e4 03390101 		ld	s2,16(sp)
 283              		.cfi_restore 18
 284              	.LVL36:
 285 01e8 83398100 		ld	s3,8(sp)
 286              		.cfi_restore 19
 287              	.LVL37:
 288 01ec 13010103 		addi	sp,sp,48
 289              		.cfi_def_cfa_offset 0
 290 01f0 67800000 		jr	ra
 291              		.cfi_endproc
 292              	.LFE31:
 294              		.section	.rodata.str1.8,"aMS",@progbits,1
 295              		.align	3
 296              	.LC0:
 297 0000 75736572 		.string	"user main start:\n"
 297      206D6169 
 297      6E207374 
 297      6172743A 
 297      0A00
 298 0012 00000000 		.align	3
 298      0000
 299              	.LC1:
 300 0018 75736572 		.string	"user main end:\n"
 300      206D6169 
 300      6E20656E 
GAS LISTING /tmp/ccbuXRSa.s 			page 9


 300      643A0A00 
 301              		.text
 302              		.align	2
 303              		.globl	_Z11userWrapperPv
 305              	_Z11userWrapperPv:
 306              	.LFB32:
  49:src/main.cpp  ****     pprintString("user main start:\n");
 307              		.loc 1 49 1 is_stmt 1
 308              		.cfi_startproc
 309              	.LVL38:
 310 01f4 130101FF 		addi	sp,sp,-16
 311              		.cfi_def_cfa_offset 16
 312 01f8 23341100 		sd	ra,8(sp)
 313 01fc 23308100 		sd	s0,0(sp)
 314              		.cfi_offset 1, -8
 315              		.cfi_offset 8, -16
 316 0200 13040101 		addi	s0,sp,16
 317              		.cfi_def_cfa 8, 0
  50:src/main.cpp  ****     userMain();
 318              		.loc 1 50 5
  50:src/main.cpp  ****     userMain();
 319              		.loc 1 50 17 is_stmt 0
 320 0204 17050000 		lla	a0,.LC0
 320      13050500 
 321              	.LVL39:
 322 020c 97000000 		call	_Z12pprintStringPKc@plt
 322      E7800000 
 323              	.LVL40:
  51:src/main.cpp  ****     pprintString("user main end:\n");
 324              		.loc 1 51 5 is_stmt 1
  51:src/main.cpp  ****     pprintString("user main end:\n");
 325              		.loc 1 51 13 is_stmt 0
 326 0214 97000000 		call	_Z8userMainv@plt
 326      E7800000 
 327              	.LVL41:
  52:src/main.cpp  **** }
 328              		.loc 1 52 5 is_stmt 1
  52:src/main.cpp  **** }
 329              		.loc 1 52 17 is_stmt 0
 330 021c 17050000 		lla	a0,.LC1
 330      13050500 
 331 0224 97000000 		call	_Z12pprintStringPKc@plt
 331      E7800000 
 332              	.LVL42:
  53:src/main.cpp  **** 
 333              		.loc 1 53 1
 334 022c 83308100 		ld	ra,8(sp)
 335              		.cfi_restore 1
 336 0230 03340100 		ld	s0,0(sp)
 337              		.cfi_restore 8
 338              		.cfi_def_cfa 2, 16
 339 0234 13010101 		addi	sp,sp,16
 340              		.cfi_def_cfa_offset 0
 341 0238 67800000 		jr	ra
 342              		.cfi_endproc
 343              	.LFE32:
 345              		.section	.rodata.str1.8
GAS LISTING /tmp/ccbuXRSa.s 			page 10


 346              		.align	3
 347              	.LC2:
 348 0028 46696E69 		.string	"Finished\n"
 348      73686564 
 348      0A00
 349              		.text
 350              		.align	2
 351              		.globl	main
 353              	main:
 354              	.LFB36:
  75:src/main.cpp  **** 
  76:src/main.cpp  **** 
  77:src/main.cpp  **** 
  78:src/main.cpp  **** 
  79:src/main.cpp  **** 
  80:src/main.cpp  **** void main() {
 355              		.loc 1 80 13 is_stmt 1
 356              		.cfi_startproc
 357 023c 130101FC 		addi	sp,sp,-64
 358              		.cfi_def_cfa_offset 64
 359 0240 233C1102 		sd	ra,56(sp)
 360 0244 23388102 		sd	s0,48(sp)
 361 0248 23349102 		sd	s1,40(sp)
 362 024c 23302103 		sd	s2,32(sp)
 363              		.cfi_offset 1, -8
 364              		.cfi_offset 8, -16
 365              		.cfi_offset 9, -24
 366              		.cfi_offset 18, -32
 367 0250 13040104 		addi	s0,sp,64
 368              		.cfi_def_cfa 8, 0
  81:src/main.cpp  ****     Riscv::set_stvec((uint64)&Riscv::SupervisorTrap);
 369              		.loc 1 81 5
 370              		.loc 1 81 21 is_stmt 0
 371 0254 97070000 		la	a5,_ZN5Riscv14SupervisorTrapEv
 371      83B70700 
 372              	.LVL43:
 373              	.LBB14:
 374              	.LBB15:
 375              		.file 2 "src/../h/Riscv.hpp"
   1:src/../h/Riscv.hpp **** //
   2:src/../h/Riscv.hpp **** // Created by os on 9/8/25.
   3:src/../h/Riscv.hpp **** //
   4:src/../h/Riscv.hpp **** 
   5:src/../h/Riscv.hpp **** #ifndef PROJECT_BASE_V1_1_COPY_RISCV_HPP
   6:src/../h/Riscv.hpp **** #define PROJECT_BASE_V1_1_COPY_RISCV_HPP
   7:src/../h/Riscv.hpp **** #include "../lib/hw.h"
   8:src/../h/Riscv.hpp **** 
   9:src/../h/Riscv.hpp **** class Riscv {
  10:src/../h/Riscv.hpp **** public:
  11:src/../h/Riscv.hpp ****     static void set_stvec(uint64 stvec);
  12:src/../h/Riscv.hpp ****     static void set_sepc(uint64 sepc);
  13:src/../h/Riscv.hpp ****     static uint64 get_sepc();
  14:src/../h/Riscv.hpp ****     static void set_sstatus(uint64 sstatus);
  15:src/../h/Riscv.hpp ****     static uint64 get_sstatus();
  16:src/../h/Riscv.hpp ****     static uint64 get_scause();
  17:src/../h/Riscv.hpp ****     static uint64 get_stval();
  18:src/../h/Riscv.hpp ****     static void ms_sstatus(uint64 mask);
GAS LISTING /tmp/ccbuXRSa.s 			page 11


  19:src/../h/Riscv.hpp ****     static void mc_sstatus(uint64 mask);
  20:src/../h/Riscv.hpp ****     static void mc_sip(uint64 mask);
  21:src/../h/Riscv.hpp ****     static void ms_sie(uint64 mask);
  22:src/../h/Riscv.hpp ****     enum BitMaskSstatus
  23:src/../h/Riscv.hpp ****     {
  24:src/../h/Riscv.hpp ****         SSTATUS_SIE=(1UL<<1),
  25:src/../h/Riscv.hpp ****         SSTATUS_SPIE=(1UL<<5),
  26:src/../h/Riscv.hpp ****         SSTATUS_SPP=(1UL<<8)
  27:src/../h/Riscv.hpp ****     };
  28:src/../h/Riscv.hpp ****     enum BitMaskSip: uint64
  29:src/../h/Riscv.hpp ****     {
  30:src/../h/Riscv.hpp ****         SIP_SSIP=(1UL<<1),
  31:src/../h/Riscv.hpp ****         SIP_STIP=(1UL<<5),
  32:src/../h/Riscv.hpp ****         SIP_SEIP=(1UL<<9)
  33:src/../h/Riscv.hpp ****     };
  34:src/../h/Riscv.hpp ****     enum BitMaskSie: uint64
  35:src/../h/Riscv.hpp ****     {
  36:src/../h/Riscv.hpp ****         SIE_SSIE=(1UL<<1),
  37:src/../h/Riscv.hpp ****         SIE_SEIE=(1UL<<9)
  38:src/../h/Riscv.hpp ****     };
  39:src/../h/Riscv.hpp **** 
  40:src/../h/Riscv.hpp **** 
  41:src/../h/Riscv.hpp ****     static void SupervisorTrap();
  42:src/../h/Riscv.hpp **** 
  43:src/../h/Riscv.hpp ****     static void restorePrivilege();
  44:src/../h/Riscv.hpp ****     static void popSppSpie();
  45:src/../h/Riscv.hpp **** 
  46:src/../h/Riscv.hpp **** 
  47:src/../h/Riscv.hpp **** 
  48:src/../h/Riscv.hpp ****     static void SupervisorTrapHandler();
  49:src/../h/Riscv.hpp **** };
  50:src/../h/Riscv.hpp **** 
  51:src/../h/Riscv.hpp **** 
  52:src/../h/Riscv.hpp **** inline void Riscv::set_stvec(uint64 stvec) {
  53:src/../h/Riscv.hpp ****     __asm__ volatile ("csrw stvec, %[x]" :: [x] "r" (stvec));
 376              		.loc 2 53 5 is_stmt 1
 377              		.loc 2 53 61 is_stmt 0
 378              	#APP
 379              	# 53 "src/../h/Riscv.hpp" 1
  54              	}
 380              		csrw stvec, a5
 381              	# 0 "" 2
 382              	.LVL44:
 383              	#NO_APP
 384              	.LBE15:
 385              	.LBE14:
  82:src/main.cpp  ****     Riscv::ms_sstatus(Riscv::SSTATUS_SIE);
 386              		.loc 1 82 5 is_stmt 1
 387              	.LBB16:
 388              	.LBB17:
  55:src/../h/Riscv.hpp **** 
  56:src/../h/Riscv.hpp **** inline void Riscv::set_sepc(uint64 sepc) {
  57:src/../h/Riscv.hpp ****     __asm__ volatile ("csrw sepc, %[x]" :: [x] "r" (sepc));
  58:src/../h/Riscv.hpp **** }
  59:src/../h/Riscv.hpp **** 
  60:src/../h/Riscv.hpp **** inline uint64 Riscv::get_sepc() {
  61:src/../h/Riscv.hpp ****     uint64 sepc;
GAS LISTING /tmp/ccbuXRSa.s 			page 12


  62:src/../h/Riscv.hpp ****     __asm__ volatile ("csrr %[x],sepc" : [x] "=r" (sepc));
  63:src/../h/Riscv.hpp ****     return sepc;
  64:src/../h/Riscv.hpp **** }
  65:src/../h/Riscv.hpp **** 
  66:src/../h/Riscv.hpp **** inline void Riscv::set_sstatus(uint64 sstatus) {
  67:src/../h/Riscv.hpp ****     __asm__ volatile ("csrw sstatus, %[x]" :: [x] "r" (sstatus));
  68:src/../h/Riscv.hpp **** }
  69:src/../h/Riscv.hpp **** 
  70:src/../h/Riscv.hpp **** inline uint64 Riscv::get_sstatus() {
  71:src/../h/Riscv.hpp ****     uint64 sstatus;
  72:src/../h/Riscv.hpp ****     __asm__ volatile ("csrr %[x],sstatus" : [x] "=r" (sstatus));
  73:src/../h/Riscv.hpp ****     return sstatus;
  74:src/../h/Riscv.hpp **** }
  75:src/../h/Riscv.hpp **** 
  76:src/../h/Riscv.hpp **** inline uint64 Riscv::get_scause() {
  77:src/../h/Riscv.hpp ****     uint64 volatile scause;
  78:src/../h/Riscv.hpp ****     __asm__ volatile("csrr %[scause], scause":[scause]"=r"(scause));
  79:src/../h/Riscv.hpp ****     return scause;
  80:src/../h/Riscv.hpp **** }
  81:src/../h/Riscv.hpp **** inline uint64 Riscv::get_stval() {
  82:src/../h/Riscv.hpp ****     uint64 volatile stval;
  83:src/../h/Riscv.hpp ****     __asm__ volatile("csrr %[stval], stval":[stval]"=r"(stval));
  84:src/../h/Riscv.hpp ****     return stval;
  85:src/../h/Riscv.hpp **** }
  86:src/../h/Riscv.hpp **** inline void Riscv::ms_sstatus(uint64 mask) {
  87:src/../h/Riscv.hpp ****     __asm__ volatile("csrs sstatus,%[mask]"::[mask]"r"(mask));
 389              		.loc 2 87 5
 390              		.loc 2 87 62 is_stmt 0
 391 0260 93072000 		li	a5,2
 392              	#APP
 393              	# 87 "src/../h/Riscv.hpp" 1
  88              	}
 394              		csrs sstatus,a5
 395              	# 0 "" 2
 396              	.LVL45:
 397              	#NO_APP
 398              	.LBE17:
 399              	.LBE16:
  83:src/main.cpp  **** 
  84:src/main.cpp  **** 
  85:src/main.cpp  **** 
  86:src/main.cpp  **** 
  87:src/main.cpp  ****      thread_t coroutines[4];
 400              		.loc 1 87 6 is_stmt 1
  88:src/main.cpp  ****      thread_create(&coroutines[0],nullptr,nullptr);
 401              		.loc 1 88 6
 402              		.loc 1 88 19 is_stmt 0
 403 0268 13060000 		li	a2,0
 404 026c 93050000 		li	a1,0
 405 0270 130504FC 		addi	a0,s0,-64
 406 0274 97000000 		call	_Z13thread_createPP3TCBPFvPvES2_@plt
 406      E7800000 
 407              	.LVL46:
  89:src/main.cpp  ****      thread_create(&coroutines[1],WorkerAWrapper,nullptr);
 408              		.loc 1 89 6 is_stmt 1
 409              		.loc 1 89 19 is_stmt 0
 410 027c 13060000 		li	a2,0
GAS LISTING /tmp/ccbuXRSa.s 			page 13


 411 0280 97050000 		lla	a1,_Z14WorkerAWrapperPv
 411      93850500 
 412 0288 130584FC 		addi	a0,s0,-56
 413 028c 97000000 		call	_Z13thread_createPP3TCBPFvPvES2_@plt
 413      E7800000 
 414              	.LVL47:
  90:src/main.cpp  ****      thread_create(&coroutines[2],WorkerBWrapper,nullptr);
 415              		.loc 1 90 6 is_stmt 1
 416              		.loc 1 90 19 is_stmt 0
 417 0294 13060000 		li	a2,0
 418 0298 97050000 		lla	a1,_Z14WorkerBWrapperPv
 418      93850500 
 419 02a0 130504FD 		addi	a0,s0,-48
 420 02a4 97000000 		call	_Z13thread_createPP3TCBPFvPvES2_@plt
 420      E7800000 
 421              	.LVL48:
  91:src/main.cpp  ****      thread_create(&coroutines[3],WorkerCWrapper,nullptr);
 422              		.loc 1 91 6 is_stmt 1
 423              		.loc 1 91 19 is_stmt 0
 424 02ac 13060000 		li	a2,0
 425 02b0 97050000 		lla	a1,_Z14WorkerCWrapperPv
 425      93850500 
 426 02b8 130584FD 		addi	a0,s0,-40
 427 02bc 97000000 		call	_Z13thread_createPP3TCBPFvPvES2_@plt
 427      E7800000 
 428              	.LVL49:
 429              	.L16:
  92:src/main.cpp  **** 
  93:src/main.cpp  **** 
  94:src/main.cpp  ****      while (Scheduler::getSize()>0 ) {
 430              		.loc 1 94 6 is_stmt 1
 431              		.loc 1 94 33
 432              	.LBB18:
 433              	.LBB19:
 434              		.file 3 "src/../h/../h/Scheduler.hpp"
   1:src/../h/../h/Scheduler.hpp **** //
   2:src/../h/../h/Scheduler.hpp **** // Created by os on 9/23/25.
   3:src/../h/../h/Scheduler.hpp **** //
   4:src/../h/../h/Scheduler.hpp **** 
   5:src/../h/../h/Scheduler.hpp **** #ifndef PROJECT_BASE_V1_1_COPY_SCHEDULER_HPP
   6:src/../h/../h/Scheduler.hpp **** #define PROJECT_BASE_V1_1_COPY_SCHEDULER_HPP
   7:src/../h/../h/Scheduler.hpp **** 
   8:src/../h/../h/Scheduler.hpp **** 
   9:src/../h/../h/Scheduler.hpp **** #include "List.hpp"
  10:src/../h/../h/Scheduler.hpp **** 
  11:src/../h/../h/Scheduler.hpp **** class TCB;
  12:src/../h/../h/Scheduler.hpp **** 
  13:src/../h/../h/Scheduler.hpp **** class Scheduler
  14:src/../h/../h/Scheduler.hpp **** {
  15:src/../h/../h/Scheduler.hpp **** public:
  16:src/../h/../h/Scheduler.hpp **** 
  17:src/../h/../h/Scheduler.hpp ****     static void put(TCB* x);
  18:src/../h/../h/Scheduler.hpp ****     static TCB* get();
  19:src/../h/../h/Scheduler.hpp **** 
  20:src/../h/../h/Scheduler.hpp ****     static int getSize() { return queue.size; }
 435              		.loc 3 20 28
 436              		.loc 3 20 41 is_stmt 0
GAS LISTING /tmp/ccbuXRSa.s 			page 14


 437 02c4 97070000 		la	a5,_ZN9Scheduler5queueE
 437      83B70700 
 438 02cc 83A70701 		lw	a5,16(a5)
 439              	.LBE19:
 440              	.LBE18:
 441              		.loc 1 94 33
 442 02d0 6358F000 		blez	a5,.L20
  95:src/main.cpp  ****          thread_dispatch();
 443              		.loc 1 95 10 is_stmt 1
 444              		.loc 1 95 25 is_stmt 0
 445 02d4 97000000 		call	_Z15thread_dispatchv@plt
 445      E7800000 
 446              	.LVL50:
 447 02dc 6FF09FFE 		j	.L16
 448              	.L20:
 449              	.LBB20:
  96:src/main.cpp  ****      }
  97:src/main.cpp  **** 
  98:src/main.cpp  ****      for (auto coroutine: coroutines) { delete coroutine; }
 450              		.loc 1 98 27
 451 02e0 930404FC 		addi	s1,s0,-64
 452 02e4 6F004002 		j	.L15
 453              	.LVL51:
 454              	.L22:
 455              	.LBB21:
 456              	.LBB22:
 457              		.file 4 "src/../h/TCB.hpp"
   1:src/../h/TCB.hpp **** //
   2:src/../h/TCB.hpp **** // Created by os on 9/23/25.
   3:src/../h/TCB.hpp **** //
   4:src/../h/TCB.hpp **** 
   5:src/../h/TCB.hpp **** #ifndef PROJECT_BASE_V1_1_COPY_TCB_HPP
   6:src/../h/TCB.hpp **** #define PROJECT_BASE_V1_1_COPY_TCB_HPP
   7:src/../h/TCB.hpp **** #include "../lib/hw.h"
   8:src/../h/TCB.hpp **** #include "../h/Scheduler.hpp"
   9:src/../h/TCB.hpp **** #include "../h/MemoryAllocator.hpp"
  10:src/../h/TCB.hpp **** 
  11:src/../h/TCB.hpp **** class TCB
  12:src/../h/TCB.hpp **** {
  13:src/../h/TCB.hpp **** public:
  14:src/../h/TCB.hpp ****     void* operator new(size_t size)
  15:src/../h/TCB.hpp **** {
  16:src/../h/TCB.hpp ****     return MemoryAllocator::Instance()->mem_alloc(size);
  17:src/../h/TCB.hpp **** }
  18:src/../h/TCB.hpp **** 
  19:src/../h/TCB.hpp ****     void operator delete(void* ptr)
  20:src/../h/TCB.hpp ****     {
  21:src/../h/TCB.hpp ****         return MemoryAllocator::Instance()->mem_free(ptr);
  22:src/../h/TCB.hpp ****     }
  23:src/../h/TCB.hpp **** 
  24:src/../h/TCB.hpp **** 
  25:src/../h/TCB.hpp ****     using Body=void(*)(void*);
  26:src/../h/TCB.hpp **** 
  27:src/../h/TCB.hpp ****     ~TCB()
  28:src/../h/TCB.hpp ****     {
  29:src/../h/TCB.hpp ****         delete stack;
 458              		.loc 4 29 16
GAS LISTING /tmp/ccbuXRSa.s 			page 15


 459 02e8 97000000 		call	_ZdlPv@plt
 459      E7800000 
 460              	.LVL52:
 461              	.L19:
 462              	.LBE22:
 463              	.LBE21:
 464              	.LBB24:
 465              	.LBB25:
  21:src/../h/TCB.hpp ****     }
 466              		.loc 4 21 9 is_stmt 1
  21:src/../h/TCB.hpp ****     }
 467              		.loc 4 21 53 is_stmt 0
 468 02f0 97000000 		call	_ZN15MemoryAllocator8InstanceEv@plt
 468      E7800000 
 469              	.LVL53:
 470 02f8 93050900 		mv	a1,s2
 471 02fc 97000000 		call	_ZN15MemoryAllocator8mem_freeEPv@plt
 471      E7800000 
 472              	.LVL54:
 473              	.L18:
 474              	.LBE25:
 475              	.LBE24:
 476              		.loc 1 98 6 is_stmt 1 discriminator 4
 477 0304 93848400 		addi	s1,s1,8
 478              	.LVL55:
 479              	.L15:
 480              		.loc 1 98 27 discriminator 5
 481 0308 930704FE 		addi	a5,s0,-32
 482 030c 638CF400 		beq	s1,a5,.L17
 483              		.loc 1 98 16 is_stmt 0 discriminator 2
 484 0310 03B90400 		ld	s2,0(s1)
 485              	.LVL56:
 486              		.loc 1 98 41 is_stmt 1 discriminator 2
 487              		.loc 1 98 57 is_stmt 0 discriminator 2
 488 0314 E30809FE 		beqz	s2,.L18
 489              	.LVL57:
 490              	.LBB26:
 491              	.LBB23:
 492              		.loc 4 29 9 is_stmt 1
 493              		.loc 4 29 16 is_stmt 0
 494 0318 03358900 		ld	a0,8(s2)
 495              		.loc 4 29 21
 496 031c E31605FC 		bnez	a0,.L22
 497 0320 6FF01FFD 		j	.L19
 498              	.LVL58:
 499              	.L17:
 500              	.LBE23:
 501              	.LBE26:
 502              	.LBE20:
  99:src/main.cpp  **** 
 100:src/main.cpp  ****      AllocatorTest();
 503              		.loc 1 100 6 is_stmt 1
 504              		.loc 1 100 19 is_stmt 0
 505 0324 97000000 		call	_Z13AllocatorTestv
 505      E7800000 
 506              	.LVL59:
 101:src/main.cpp  ****      pprintString("Finished\n");
GAS LISTING /tmp/ccbuXRSa.s 			page 16


 507              		.loc 1 101 6 is_stmt 1
 508              		.loc 1 101 18 is_stmt 0
 509 032c 17050000 		lla	a0,.LC2
 509      13050500 
 510 0334 97000000 		call	_Z12pprintStringPKc@plt
 510      E7800000 
 511              	.LVL60:
 102:src/main.cpp  **** 
 103:src/main.cpp  **** 
 104:src/main.cpp  ****     // size_t pom1= mem_get_free_space();
 105:src/main.cpp  ****     // pprintString("Free mem: ");
 106:src/main.cpp  ****     // printInteger(pom1);
 107:src/main.cpp  ****     // pprintString("\n");
 108:src/main.cpp  ****     // size_t pom2= mem_get_largest_free_block();
 109:src/main.cpp  ****     // pprintString("Largest free block: ");
 110:src/main.cpp  ****     // printInteger(pom2);
 111:src/main.cpp  ****     // pprintString("\n");
 112:src/main.cpp  **** }
 512              		.loc 1 112 1
 513 033c 83308103 		ld	ra,56(sp)
 514              		.cfi_restore 1
 515 0340 03340103 		ld	s0,48(sp)
 516              		.cfi_restore 8
 517              		.cfi_def_cfa 2, 64
 518 0344 83348102 		ld	s1,40(sp)
 519              		.cfi_restore 9
 520              	.LVL61:
 521 0348 03390102 		ld	s2,32(sp)
 522              		.cfi_restore 18
 523 034c 13010104 		addi	sp,sp,64
 524              		.cfi_def_cfa_offset 0
 525 0350 67800000 		jr	ra
 526              		.cfi_endproc
 527              	.LFE36:
 529              	.Letext0:
 530              		.file 5 "src/../lib/hw.h"
 531              		.file 6 "src/../h/MemoryAllocator.hpp"
 532              		.file 7 "src/../h/../h/List.hpp"
 533              		.file 8 "src/../h/syscall_c.hpp"
 534              		.file 9 "src/../h/syscall_cpp.hpp"
 535              		.file 10 "src/../h/print.hpp"
 536              		.file 11 "src/../h/workers.hpp"
 537              		.file 12 "src/../lib/console.h"
GAS LISTING /tmp/ccbuXRSa.s 			page 17


DEFINED SYMBOLS
                            *ABS*:0000000000000000 main.cpp
     /tmp/ccbuXRSa.s:9      .text:0000000000000000 _Z14WorkerAWrapperPv
     /tmp/ccbuXRSa.s:13     .text:0000000000000000 .L0 
     /tmp/ccbuXRSa.s:15     .text:0000000000000000 .L0 
     /tmp/ccbuXRSa.s:16     .text:0000000000000004 .L0 
     /tmp/ccbuXRSa.s:19     .text:000000000000000c .L0 
     /tmp/ccbuXRSa.s:20     .text:000000000000000c .L0 
     /tmp/ccbuXRSa.s:22     .text:0000000000000010 .L0 
     /tmp/ccbuXRSa.s:24     .text:0000000000000010 .L0 
     /tmp/ccbuXRSa.s:25     .text:0000000000000010 .L0 
     /tmp/ccbuXRSa.s:28     .text:0000000000000018 .L0 
     /tmp/ccbuXRSa.s:29     .text:000000000000001c .L0 
     /tmp/ccbuXRSa.s:31     .text:0000000000000020 .L0 
     /tmp/ccbuXRSa.s:32     .text:0000000000000020 .L0 
     /tmp/ccbuXRSa.s:34     .text:0000000000000024 .L0 
     /tmp/ccbuXRSa.s:36     .text:0000000000000028 .L0 
     /tmp/ccbuXRSa.s:42     .text:0000000000000028 _Z14WorkerBWrapperPv
     /tmp/ccbuXRSa.s:45     .text:0000000000000028 .L0 
     /tmp/ccbuXRSa.s:47     .text:0000000000000028 .L0 
     /tmp/ccbuXRSa.s:48     .text:000000000000002c .L0 
     /tmp/ccbuXRSa.s:51     .text:0000000000000034 .L0 
     /tmp/ccbuXRSa.s:52     .text:0000000000000034 .L0 
     /tmp/ccbuXRSa.s:54     .text:0000000000000038 .L0 
     /tmp/ccbuXRSa.s:56     .text:0000000000000038 .L0 
     /tmp/ccbuXRSa.s:57     .text:0000000000000038 .L0 
     /tmp/ccbuXRSa.s:60     .text:0000000000000040 .L0 
     /tmp/ccbuXRSa.s:61     .text:0000000000000044 .L0 
     /tmp/ccbuXRSa.s:63     .text:0000000000000048 .L0 
     /tmp/ccbuXRSa.s:64     .text:0000000000000048 .L0 
     /tmp/ccbuXRSa.s:66     .text:000000000000004c .L0 
     /tmp/ccbuXRSa.s:68     .text:0000000000000050 .L0 
     /tmp/ccbuXRSa.s:74     .text:0000000000000050 _Z14WorkerCWrapperPv
     /tmp/ccbuXRSa.s:77     .text:0000000000000050 .L0 
     /tmp/ccbuXRSa.s:79     .text:0000000000000050 .L0 
     /tmp/ccbuXRSa.s:80     .text:0000000000000054 .L0 
     /tmp/ccbuXRSa.s:83     .text:000000000000005c .L0 
     /tmp/ccbuXRSa.s:84     .text:000000000000005c .L0 
     /tmp/ccbuXRSa.s:86     .text:0000000000000060 .L0 
     /tmp/ccbuXRSa.s:88     .text:0000000000000060 .L0 
     /tmp/ccbuXRSa.s:89     .text:0000000000000060 .L0 
     /tmp/ccbuXRSa.s:92     .text:0000000000000068 .L0 
     /tmp/ccbuXRSa.s:93     .text:000000000000006c .L0 
     /tmp/ccbuXRSa.s:95     .text:0000000000000070 .L0 
     /tmp/ccbuXRSa.s:96     .text:0000000000000070 .L0 
     /tmp/ccbuXRSa.s:98     .text:0000000000000074 .L0 
     /tmp/ccbuXRSa.s:100    .text:0000000000000078 .L0 
     /tmp/ccbuXRSa.s:106    .text:0000000000000078 _Z13AllocatorTestv
     /tmp/ccbuXRSa.s:109    .text:0000000000000078 .L0 
     /tmp/ccbuXRSa.s:110    .text:0000000000000078 .L0 
     /tmp/ccbuXRSa.s:111    .text:000000000000007c .L0 
     /tmp/ccbuXRSa.s:117    .text:0000000000000090 .L0 
     /tmp/ccbuXRSa.s:118    .text:0000000000000090 .L0 
     /tmp/ccbuXRSa.s:119    .text:0000000000000090 .L0 
     /tmp/ccbuXRSa.s:120    .text:0000000000000090 .L0 
     /tmp/ccbuXRSa.s:121    .text:0000000000000090 .L0 
     /tmp/ccbuXRSa.s:123    .text:0000000000000094 .L0 
GAS LISTING /tmp/ccbuXRSa.s 			page 18


     /tmp/ccbuXRSa.s:125    .text:0000000000000094 .L0 
     /tmp/ccbuXRSa.s:126    .text:0000000000000094 .L0 
     /tmp/ccbuXRSa.s:132    .text:00000000000000a4 .L0 
     /tmp/ccbuXRSa.s:133    .text:00000000000000a4 .L0 
     /tmp/ccbuXRSa.s:136    .text:00000000000000ac .L0 
     /tmp/ccbuXRSa.s:137    .text:00000000000000ac .L0 
     /tmp/ccbuXRSa.s:142    .text:00000000000000b8 .L0 
     /tmp/ccbuXRSa.s:143    .text:00000000000000b8 .L0 
     /tmp/ccbuXRSa.s:147    .text:00000000000000c4 .L0 
     /tmp/ccbuXRSa.s:148    .text:00000000000000c4 .L0 
     /tmp/ccbuXRSa.s:152    .text:00000000000000d0 .L0 
     /tmp/ccbuXRSa.s:153    .text:00000000000000d0 .L0 
     /tmp/ccbuXRSa.s:156    .text:00000000000000d8 .L0 
     /tmp/ccbuXRSa.s:157    .text:00000000000000d8 .L0 
     /tmp/ccbuXRSa.s:162    .text:00000000000000e4 .L0 
     /tmp/ccbuXRSa.s:163    .text:00000000000000e4 .L0 
     /tmp/ccbuXRSa.s:167    .text:00000000000000f0 .L0 
     /tmp/ccbuXRSa.s:168    .text:00000000000000f0 .L0 
     /tmp/ccbuXRSa.s:174    .text:0000000000000100 .L0 
     /tmp/ccbuXRSa.s:175    .text:0000000000000100 .L0 
     /tmp/ccbuXRSa.s:178    .text:0000000000000108 .L0 
     /tmp/ccbuXRSa.s:179    .text:0000000000000108 .L0 
     /tmp/ccbuXRSa.s:184    .text:0000000000000114 .L0 
     /tmp/ccbuXRSa.s:185    .text:0000000000000114 .L0 
     /tmp/ccbuXRSa.s:189    .text:0000000000000120 .L0 
     /tmp/ccbuXRSa.s:190    .text:0000000000000120 .L0 
     /tmp/ccbuXRSa.s:196    .text:0000000000000130 .L0 
     /tmp/ccbuXRSa.s:197    .text:0000000000000130 .L0 
     /tmp/ccbuXRSa.s:200    .text:0000000000000138 .L0 
     /tmp/ccbuXRSa.s:201    .text:0000000000000138 .L0 
     /tmp/ccbuXRSa.s:205    .text:0000000000000144 .L0 
     /tmp/ccbuXRSa.s:206    .text:0000000000000144 .L0 
     /tmp/ccbuXRSa.s:210    .text:0000000000000150 .L0 
     /tmp/ccbuXRSa.s:211    .text:0000000000000150 .L0 
     /tmp/ccbuXRSa.s:215    .text:000000000000015c .L0 
     /tmp/ccbuXRSa.s:216    .text:000000000000015c .L0 
     /tmp/ccbuXRSa.s:219    .text:0000000000000164 .L0 
     /tmp/ccbuXRSa.s:220    .text:0000000000000164 .L0 
     /tmp/ccbuXRSa.s:225    .text:0000000000000170 .L0 
     /tmp/ccbuXRSa.s:226    .text:0000000000000170 .L0 
     /tmp/ccbuXRSa.s:230    .text:000000000000017c .L0 
     /tmp/ccbuXRSa.s:231    .text:000000000000017c .L0 
     /tmp/ccbuXRSa.s:233    .text:0000000000000180 .L0 
     /tmp/ccbuXRSa.s:238    .text:000000000000018c .L0 
     /tmp/ccbuXRSa.s:239    .text:000000000000018c .L0 
     /tmp/ccbuXRSa.s:241    .text:0000000000000190 .L0 
     /tmp/ccbuXRSa.s:246    .text:000000000000019c .L0 
     /tmp/ccbuXRSa.s:247    .text:000000000000019c .L0 
     /tmp/ccbuXRSa.s:249    .text:00000000000001a0 .L0 
     /tmp/ccbuXRSa.s:254    .text:00000000000001ac .L0 
     /tmp/ccbuXRSa.s:255    .text:00000000000001ac .L0 
     /tmp/ccbuXRSa.s:259    .text:00000000000001b8 .L0 
     /tmp/ccbuXRSa.s:260    .text:00000000000001b8 .L0 
     /tmp/ccbuXRSa.s:263    .text:00000000000001c0 .L0 
     /tmp/ccbuXRSa.s:264    .text:00000000000001c0 .L0 
     /tmp/ccbuXRSa.s:269    .text:00000000000001cc .L0 
     /tmp/ccbuXRSa.s:270    .text:00000000000001cc .L0 
GAS LISTING /tmp/ccbuXRSa.s 			page 19


     /tmp/ccbuXRSa.s:274    .text:00000000000001d8 .L0 
     /tmp/ccbuXRSa.s:275    .text:00000000000001dc .L0 
     /tmp/ccbuXRSa.s:277    .text:00000000000001e0 .L0 
     /tmp/ccbuXRSa.s:278    .text:00000000000001e0 .L0 
     /tmp/ccbuXRSa.s:280    .text:00000000000001e4 .L0 
     /tmp/ccbuXRSa.s:283    .text:00000000000001e8 .L0 
     /tmp/ccbuXRSa.s:286    .text:00000000000001ec .L0 
     /tmp/ccbuXRSa.s:289    .text:00000000000001f0 .L0 
     /tmp/ccbuXRSa.s:291    .text:00000000000001f4 .L0 
     /tmp/ccbuXRSa.s:305    .text:00000000000001f4 _Z11userWrapperPv
     /tmp/ccbuXRSa.s:308    .text:00000000000001f4 .L0 
     /tmp/ccbuXRSa.s:310    .text:00000000000001f4 .L0 
     /tmp/ccbuXRSa.s:311    .text:00000000000001f8 .L0 
     /tmp/ccbuXRSa.s:314    .text:0000000000000200 .L0 
     /tmp/ccbuXRSa.s:315    .text:0000000000000200 .L0 
     /tmp/ccbuXRSa.s:317    .text:0000000000000204 .L0 
     /tmp/ccbuXRSa.s:319    .text:0000000000000204 .L0 
     /tmp/ccbuXRSa.s:320    .text:0000000000000204 .L0 
     /tmp/ccbuXRSa.s:325    .text:0000000000000214 .L0 
     /tmp/ccbuXRSa.s:326    .text:0000000000000214 .L0 
     /tmp/ccbuXRSa.s:329    .text:000000000000021c .L0 
     /tmp/ccbuXRSa.s:330    .text:000000000000021c .L0 
     /tmp/ccbuXRSa.s:334    .text:000000000000022c .L0 
     /tmp/ccbuXRSa.s:335    .text:0000000000000230 .L0 
     /tmp/ccbuXRSa.s:337    .text:0000000000000234 .L0 
     /tmp/ccbuXRSa.s:338    .text:0000000000000234 .L0 
     /tmp/ccbuXRSa.s:340    .text:0000000000000238 .L0 
     /tmp/ccbuXRSa.s:342    .text:000000000000023c .L0 
     /tmp/ccbuXRSa.s:353    .text:000000000000023c main
     /tmp/ccbuXRSa.s:356    .text:000000000000023c .L0 
     /tmp/ccbuXRSa.s:357    .text:000000000000023c .L0 
     /tmp/ccbuXRSa.s:358    .text:0000000000000240 .L0 
     /tmp/ccbuXRSa.s:363    .text:0000000000000250 .L0 
     /tmp/ccbuXRSa.s:364    .text:0000000000000250 .L0 
     /tmp/ccbuXRSa.s:365    .text:0000000000000250 .L0 
     /tmp/ccbuXRSa.s:366    .text:0000000000000250 .L0 
     /tmp/ccbuXRSa.s:368    .text:0000000000000254 .L0 
     /tmp/ccbuXRSa.s:370    .text:0000000000000254 .L0 
     /tmp/ccbuXRSa.s:371    .text:0000000000000254 .L0 
     /tmp/ccbuXRSa.s:377    .text:000000000000025c .L0 
  src/../h/Riscv.hpp:53     .text:000000000000025c .L0 
     /tmp/ccbuXRSa.s:389    .text:0000000000000260 .L0 
     /tmp/ccbuXRSa.s:390    .text:0000000000000260 .L0 
     /tmp/ccbuXRSa.s:391    .text:0000000000000260 .L0 
     /tmp/ccbuXRSa.s:401    .text:0000000000000268 .L0 
     /tmp/ccbuXRSa.s:402    .text:0000000000000268 .L0 
     /tmp/ccbuXRSa.s:403    .text:0000000000000268 .L0 
     /tmp/ccbuXRSa.s:409    .text:000000000000027c .L0 
     /tmp/ccbuXRSa.s:410    .text:000000000000027c .L0 
     /tmp/ccbuXRSa.s:416    .text:0000000000000294 .L0 
     /tmp/ccbuXRSa.s:417    .text:0000000000000294 .L0 
     /tmp/ccbuXRSa.s:423    .text:00000000000002ac .L0 
     /tmp/ccbuXRSa.s:424    .text:00000000000002ac .L0 
     /tmp/ccbuXRSa.s:431    .text:00000000000002c4 .L0 
     /tmp/ccbuXRSa.s:435    .text:00000000000002c4 .L0 
     /tmp/ccbuXRSa.s:436    .text:00000000000002c4 .L0 
     /tmp/ccbuXRSa.s:437    .text:00000000000002c4 .L0 
GAS LISTING /tmp/ccbuXRSa.s 			page 20


     /tmp/ccbuXRSa.s:442    .text:00000000000002d0 .L0 
     /tmp/ccbuXRSa.s:444    .text:00000000000002d4 .L0 
     /tmp/ccbuXRSa.s:445    .text:00000000000002d4 .L0 
     /tmp/ccbuXRSa.s:451    .text:00000000000002e0 .L0 
     /tmp/ccbuXRSa.s:459    .text:00000000000002e8 .L0 
     /tmp/ccbuXRSa.s:467    .text:00000000000002f0 .L0 
     /tmp/ccbuXRSa.s:468    .text:00000000000002f0 .L0 
     /tmp/ccbuXRSa.s:477    .text:0000000000000304 .L0 
     /tmp/ccbuXRSa.s:481    .text:0000000000000308 .L0 
     /tmp/ccbuXRSa.s:484    .text:0000000000000310 .L0 
     /tmp/ccbuXRSa.s:487    .text:0000000000000314 .L0 
     /tmp/ccbuXRSa.s:488    .text:0000000000000314 .L0 
     /tmp/ccbuXRSa.s:493    .text:0000000000000318 .L0 
     /tmp/ccbuXRSa.s:494    .text:0000000000000318 .L0 
     /tmp/ccbuXRSa.s:496    .text:000000000000031c .L0 
     /tmp/ccbuXRSa.s:504    .text:0000000000000324 .L0 
     /tmp/ccbuXRSa.s:505    .text:0000000000000324 .L0 
     /tmp/ccbuXRSa.s:508    .text:000000000000032c .L0 
     /tmp/ccbuXRSa.s:509    .text:000000000000032c .L0 
     /tmp/ccbuXRSa.s:513    .text:000000000000033c .L0 
     /tmp/ccbuXRSa.s:514    .text:0000000000000340 .L0 
     /tmp/ccbuXRSa.s:516    .text:0000000000000344 .L0 
     /tmp/ccbuXRSa.s:517    .text:0000000000000344 .L0 
     /tmp/ccbuXRSa.s:519    .text:0000000000000348 .L0 
     /tmp/ccbuXRSa.s:522    .text:000000000000034c .L0 
     /tmp/ccbuXRSa.s:524    .text:0000000000000350 .L0 
     /tmp/ccbuXRSa.s:526    .text:0000000000000354 .L0 
     /tmp/ccbuXRSa.s:538    .text:0000000000000354 .L0 
     /tmp/ccbuXRSa.s:296    .rodata.str1.8:0000000000000000 .LC0
     /tmp/ccbuXRSa.s:320    .text:0000000000000204 .L0 
     /tmp/ccbuXRSa.s:299    .rodata.str1.8:0000000000000018 .LC1
     /tmp/ccbuXRSa.s:330    .text:000000000000021c .L0 
     /tmp/ccbuXRSa.s:371    .text:0000000000000254 .L0 
     /tmp/ccbuXRSa.s:411    .text:0000000000000280 .L0 
     /tmp/ccbuXRSa.s:418    .text:0000000000000298 .L0 
     /tmp/ccbuXRSa.s:425    .text:00000000000002b0 .L0 
     /tmp/ccbuXRSa.s:437    .text:00000000000002c4 .L0 
     /tmp/ccbuXRSa.s:347    .rodata.str1.8:0000000000000028 .LC2
     /tmp/ccbuXRSa.s:509    .text:000000000000032c .L0 
     /tmp/ccbuXRSa.s:236    .text:000000000000018c .L8
     /tmp/ccbuXRSa.s:244    .text:000000000000019c .L9
     /tmp/ccbuXRSa.s:252    .text:00000000000001ac .L10
     /tmp/ccbuXRSa.s:448    .text:00000000000002e0 .L20
     /tmp/ccbuXRSa.s:429    .text:00000000000002c4 .L16
     /tmp/ccbuXRSa.s:479    .text:0000000000000308 .L15
     /tmp/ccbuXRSa.s:499    .text:0000000000000324 .L17
     /tmp/ccbuXRSa.s:473    .text:0000000000000304 .L18
     /tmp/ccbuXRSa.s:454    .text:00000000000002e8 .L22
     /tmp/ccbuXRSa.s:461    .text:00000000000002f0 .L19
     /tmp/ccbuXRSa.s:2140   .debug_abbrev:0000000000000000 .Ldebug_abbrev0
     /tmp/ccbuXRSa.s:3636   .debug_str:0000000000000843 .LASF156
     /tmp/ccbuXRSa.s:3444   .debug_str:00000000000002c5 .LASF157
     /tmp/ccbuXRSa.s:3558   .debug_str:00000000000005e8 .LASF158
     /tmp/ccbuXRSa.s:5      .text:0000000000000000 .Ltext0
     /tmp/ccbuXRSa.s:529    .text:0000000000000354 .Letext0
     /tmp/ccbuXRSa.s:3358   .debug_line:0000000000000000 .Ldebug_line0
     /tmp/ccbuXRSa.s:3478   .debug_str:00000000000003bf .LASF0
GAS LISTING /tmp/ccbuXRSa.s 			page 21


     /tmp/ccbuXRSa.s:3500   .debug_str:0000000000000471 .LASF1
     /tmp/ccbuXRSa.s:3570   .debug_str:000000000000065d .LASF2
     /tmp/ccbuXRSa.s:3584   .debug_str:00000000000006da .LASF4
     /tmp/ccbuXRSa.s:3480   .debug_str:00000000000003cc .LASF3
     /tmp/ccbuXRSa.s:3372   .debug_str:000000000000003e .LASF5
     /tmp/ccbuXRSa.s:3552   .debug_str:00000000000005d3 .LASF6
     /tmp/ccbuXRSa.s:3540   .debug_str:0000000000000585 .LASF7
     /tmp/ccbuXRSa.s:3488   .debug_str:0000000000000419 .LASF8
     /tmp/ccbuXRSa.s:3452   .debug_str:00000000000002e6 .LASF9
     /tmp/ccbuXRSa.s:3460   .debug_str:000000000000032d .LASF10
     /tmp/ccbuXRSa.s:3400   .debug_str:0000000000000142 .LASF11
     /tmp/ccbuXRSa.s:3440   .debug_str:00000000000002a9 .LASF12
     /tmp/ccbuXRSa.s:3412   .debug_str:000000000000018f .LASF13
     /tmp/ccbuXRSa.s:3398   .debug_str:0000000000000132 .LASF14
     /tmp/ccbuXRSa.s:3622   .debug_str:00000000000007ea .LASF15
     /tmp/ccbuXRSa.s:3424   .debug_str:00000000000001ef .LASF16
     /tmp/ccbuXRSa.s:3608   .debug_str:000000000000078c .LASF17
     /tmp/ccbuXRSa.s:3538   .debug_str:0000000000000575 .LASF28
     /tmp/ccbuXRSa.s:3442   .debug_str:00000000000002b8 .LASF40
     /tmp/ccbuXRSa.s:3498   .debug_str:000000000000046c .LASF18
     /tmp/ccbuXRSa.s:3402   .debug_str:0000000000000151 .LASF19
     /tmp/ccbuXRSa.s:3382   .debug_str:00000000000000a5 .LASF20
     /tmp/ccbuXRSa.s:3556   .debug_str:00000000000005df .LASF36
     /tmp/ccbuXRSa.s:3586   .debug_str:00000000000006e1 .LASF38
     /tmp/ccbuXRSa.s:3518   .debug_str:00000000000004ef .LASF21
     /tmp/ccbuXRSa.s:3376   .debug_str:0000000000000055 .LASF23
     /tmp/ccbuXRSa.s:3624   .debug_str:00000000000007f6 .LASF27
     /tmp/ccbuXRSa.s:3520   .debug_str:00000000000004f9 .LASF29
     /tmp/ccbuXRSa.s:3492   .debug_str:0000000000000445 .LASF22
     /tmp/ccbuXRSa.s:3592   .debug_str:0000000000000710 .LASF24
     /tmp/ccbuXRSa.s:3438   .debug_str:0000000000000295 .LASF25
     /tmp/ccbuXRSa.s:3430   .debug_str:0000000000000251 .LASF26
     /tmp/ccbuXRSa.s:3380   .debug_str:000000000000008c .LASF30
     /tmp/ccbuXRSa.s:3510   .debug_str:00000000000004ab .LASF31
     /tmp/ccbuXRSa.s:3428   .debug_str:000000000000021b .LASF32
     /tmp/ccbuXRSa.s:3616   .debug_str:00000000000007cc .LASF33
     /tmp/ccbuXRSa.s:3690   .debug_str:0000000000000a89 .LASF34
     /tmp/ccbuXRSa.s:3450   .debug_str:00000000000002dc .LASF35
     /tmp/ccbuXRSa.s:3470   .debug_str:0000000000000375 .LASF64
     /tmp/ccbuXRSa.s:3676   .debug_str:0000000000000a0d .LASF159
     /tmp/ccbuXRSa.s:3590   .debug_str:0000000000000708 .LASF37
     /tmp/ccbuXRSa.s:3566   .debug_str:000000000000063a .LASF39
     /tmp/ccbuXRSa.s:3434   .debug_str:0000000000000289 .LASF80
     /tmp/ccbuXRSa.s:3406   .debug_str:0000000000000169 .LASF41
     /tmp/ccbuXRSa.s:3684   .debug_str:0000000000000a62 .LASF42
     /tmp/ccbuXRSa.s:3456   .debug_str:0000000000000317 .LASF43
     /tmp/ccbuXRSa.s:3364   .debug_str:0000000000000010 .LASF44
     /tmp/ccbuXRSa.s:3508   .debug_str:000000000000049e .LASF88
     /tmp/ccbuXRSa.s:3554   .debug_str:00000000000005da .LASF45
     /tmp/ccbuXRSa.s:3368   .debug_str:0000000000000028 .LASF46
     /tmp/ccbuXRSa.s:3620   .debug_str:00000000000007dd .LASF47
     /tmp/ccbuXRSa.s:3666   .debug_str:00000000000009a3 .LASF48
     /tmp/ccbuXRSa.s:3536   .debug_str:0000000000000570 .LASF49
     /tmp/ccbuXRSa.s:3422   .debug_str:00000000000001e6 .LASF110
     /tmp/ccbuXRSa.s:3408   .debug_str:0000000000000171 .LASF112
     /tmp/ccbuXRSa.s:3602   .debug_str:0000000000000777 .LASF50
     /tmp/ccbuXRSa.s:3482   .debug_str:00000000000003de .LASF51
GAS LISTING /tmp/ccbuXRSa.s 			page 22


     /tmp/ccbuXRSa.s:3626   .debug_str:00000000000007ff .LASF52
     /tmp/ccbuXRSa.s:3524   .debug_str:000000000000051f .LASF53
     /tmp/ccbuXRSa.s:3476   .debug_str:00000000000003b9 .LASF54
     /tmp/ccbuXRSa.s:3374   .debug_str:0000000000000045 .LASF55
     /tmp/ccbuXRSa.s:3366   .debug_str:0000000000000020 .LASF56
     /tmp/ccbuXRSa.s:3534   .debug_str:000000000000055e .LASF57
     /tmp/ccbuXRSa.s:3572   .debug_str:000000000000066b .LASF58
     /tmp/ccbuXRSa.s:3392   .debug_str:00000000000000fa .LASF59
     /tmp/ccbuXRSa.s:3502   .debug_str:0000000000000484 .LASF60
     /tmp/ccbuXRSa.s:3650   .debug_str:0000000000000941 .LASF61
     /tmp/ccbuXRSa.s:3632   .debug_str:000000000000082e .LASF62
     /tmp/ccbuXRSa.s:3672   .debug_str:00000000000009eb .LASF63
     /tmp/ccbuXRSa.s:3674   .debug_str:00000000000009f7 .LASF65
     /tmp/ccbuXRSa.s:3606   .debug_str:0000000000000783 .LASF66
     /tmp/ccbuXRSa.s:3680   .debug_str:0000000000000a44 .LASF67
     /tmp/ccbuXRSa.s:3532   .debug_str:0000000000000556 .LASF68
     /tmp/ccbuXRSa.s:3640   .debug_str:0000000000000913 .LASF69
     /tmp/ccbuXRSa.s:3644   .debug_str:0000000000000926 .LASF70
     /tmp/ccbuXRSa.s:3362   .debug_str:000000000000000b .LASF71
     /tmp/ccbuXRSa.s:3396   .debug_str:0000000000000127 .LASF160
     /tmp/ccbuXRSa.s:3378   .debug_str:0000000000000076 .LASF161
     /tmp/ccbuXRSa.s:3660   .debug_str:000000000000097e .LASF72
     /tmp/ccbuXRSa.s:3646   .debug_str:000000000000092e .LASF162
     /tmp/ccbuXRSa.s:3526   .debug_str:0000000000000536 .LASF73
     /tmp/ccbuXRSa.s:3522   .debug_str:000000000000051a .LASF74
     /tmp/ccbuXRSa.s:3610   .debug_str:00000000000007a2 .LASF75
     /tmp/ccbuXRSa.s:3494   .debug_str:0000000000000454 .LASF76
     /tmp/ccbuXRSa.s:3390   .debug_str:00000000000000dd .LASF77
     /tmp/ccbuXRSa.s:3596   .debug_str:000000000000074c .LASF78
     /tmp/ccbuXRSa.s:3486   .debug_str:00000000000003fc .LASF79
     /tmp/ccbuXRSa.s:3562   .debug_str:0000000000000624 .LASF81
     /tmp/ccbuXRSa.s:3658   .debug_str:0000000000000975 .LASF82
     /tmp/ccbuXRSa.s:3662   .debug_str:0000000000000988 .LASF83
     /tmp/ccbuXRSa.s:3652   .debug_str:000000000000095a .LASF163
     /tmp/ccbuXRSa.s:3432   .debug_str:000000000000027d .LASF84
     /tmp/ccbuXRSa.s:3634   .debug_str:0000000000000836 .LASF85
     /tmp/ccbuXRSa.s:3418   .debug_str:00000000000001c1 .LASF86
     /tmp/ccbuXRSa.s:3550   .debug_str:00000000000005c9 .LASF87
     /tmp/ccbuXRSa.s:3426   .debug_str:0000000000000205 .LASF89
     /tmp/ccbuXRSa.s:3686   .debug_str:0000000000000a6f .LASF90
     /tmp/ccbuXRSa.s:3594   .debug_str:0000000000000737 .LASF91
     /tmp/ccbuXRSa.s:3388   .debug_str:00000000000000d4 .LASF92
     /tmp/ccbuXRSa.s:3668   .debug_str:00000000000009c5 .LASF93
     /tmp/ccbuXRSa.s:3574   .debug_str:0000000000000675 .LASF94
     /tmp/ccbuXRSa.s:3490   .debug_str:000000000000042c .LASF95
     /tmp/ccbuXRSa.s:3386   .debug_str:00000000000000c8 .LASF96
     /tmp/ccbuXRSa.s:3420   .debug_str:00000000000001cd .LASF97
     /tmp/ccbuXRSa.s:3612   .debug_str:00000000000007b5 .LASF98
     /tmp/ccbuXRSa.s:3394   .debug_str:000000000000010f .LASF99
     /tmp/ccbuXRSa.s:3458   .debug_str:0000000000000323 .LASF100
     /tmp/ccbuXRSa.s:3512   .debug_str:00000000000004b7 .LASF101
     /tmp/ccbuXRSa.s:3360   .debug_str:0000000000000000 .LASF102
     /tmp/ccbuXRSa.s:3630   .debug_str:0000000000000816 .LASF103
     /tmp/ccbuXRSa.s:3568   .debug_str:0000000000000652 .LASF104
     /tmp/ccbuXRSa.s:3682   .debug_str:0000000000000a4a .LASF105
     /tmp/ccbuXRSa.s:3588   .debug_str:0000000000000701 .LASF106
     /tmp/ccbuXRSa.s:3404   .debug_str:0000000000000156 .LASF107
GAS LISTING /tmp/ccbuXRSa.s 			page 23


     /tmp/ccbuXRSa.s:3604   .debug_str:000000000000077c .LASF108
     /tmp/ccbuXRSa.s:3580   .debug_str:00000000000006b2 .LASF109
     /tmp/ccbuXRSa.s:3496   .debug_str:000000000000045d .LASF111
     /tmp/ccbuXRSa.s:3576   .debug_str:0000000000000681 .LASF113
     /tmp/ccbuXRSa.s:3670   .debug_str:00000000000009da .LASF114
     /tmp/ccbuXRSa.s:3384   .debug_str:00000000000000aa .LASF115
     /tmp/ccbuXRSa.s:3466   .debug_str:0000000000000358 .LASF116
     /tmp/ccbuXRSa.s:3472   .debug_str:000000000000038d .LASF117
     /tmp/ccbuXRSa.s:3598   .debug_str:0000000000000757 .LASF118
     /tmp/ccbuXRSa.s:3678   .debug_str:0000000000000a21 .LASF119
     /tmp/ccbuXRSa.s:3448   .debug_str:00000000000002d7 .LASF120
     /tmp/ccbuXRSa.s:354    .text:000000000000023c .LFB36
     /tmp/ccbuXRSa.s:527    .text:0000000000000354 .LFE36
     /tmp/ccbuXRSa.s:3410   .debug_str:0000000000000184 .LASF121
     /tmp/ccbuXRSa.s:449    .text:00000000000002e0 .LBB20
     /tmp/ccbuXRSa.s:502    .text:0000000000000324 .LBE20
     /tmp/ccbuXRSa.s:3600   .debug_str:000000000000076d .LASF122
     /tmp/ccbuXRSa.s:3187   .debug_loc:0000000000000000 .LLST11
     /tmp/ccbuXRSa.s:3614   .debug_str:00000000000007c0 .LASF123
     /tmp/ccbuXRSa.s:3628   .debug_str:000000000000080a .LASF164
     /tmp/ccbuXRSa.s:3198   .debug_loc:0000000000000036 .LLST12
     /tmp/ccbuXRSa.s:3528   .debug_str:000000000000053b .LASF124
     /tmp/ccbuXRSa.s:455    .text:00000000000002e8 .LBB21
     /tmp/ccbuXRSa.s:3350   .debug_ranges:0000000000000000 .Ldebug_ranges0
     /tmp/ccbuXRSa.s:3205   .debug_loc:0000000000000059 .LLST13
     /tmp/ccbuXRSa.s:460    .text:00000000000002f0 .LVL52
     /tmp/ccbuXRSa.s:464    .text:00000000000002f0 .LBB24
     /tmp/ccbuXRSa.s:475    .text:0000000000000304 .LBE24
     /tmp/ccbuXRSa.s:3216   .debug_loc:000000000000008f .LLST14
     /tmp/ccbuXRSa.s:469    .text:00000000000002f8 .LVL53
     /tmp/ccbuXRSa.s:472    .text:0000000000000304 .LVL54
     /tmp/ccbuXRSa.s:373    .text:000000000000025c .LBB14
     /tmp/ccbuXRSa.s:385    .text:0000000000000260 .LBE14
     /tmp/ccbuXRSa.s:387    .text:0000000000000260 .LBB16
     /tmp/ccbuXRSa.s:399    .text:0000000000000268 .LBE16
     /tmp/ccbuXRSa.s:3223   .debug_loc:00000000000000b2 .LLST10
     /tmp/ccbuXRSa.s:432    .text:00000000000002c4 .LBB18
     /tmp/ccbuXRSa.s:440    .text:00000000000002d0 .LBE18
     /tmp/ccbuXRSa.s:407    .text:000000000000027c .LVL46
     /tmp/ccbuXRSa.s:414    .text:0000000000000294 .LVL47
     /tmp/ccbuXRSa.s:421    .text:00000000000002ac .LVL48
     /tmp/ccbuXRSa.s:428    .text:00000000000002c4 .LVL49
     /tmp/ccbuXRSa.s:446    .text:00000000000002dc .LVL50
     /tmp/ccbuXRSa.s:506    .text:000000000000032c .LVL59
     /tmp/ccbuXRSa.s:511    .text:000000000000033c .LVL60
     /tmp/ccbuXRSa.s:3484   .debug_str:00000000000003ed .LASF125
     /tmp/ccbuXRSa.s:3582   .debug_str:00000000000006c5 .LASF126
     /tmp/ccbuXRSa.s:75     .text:0000000000000050 .LFB35
     /tmp/ccbuXRSa.s:101    .text:0000000000000078 .LFE35
     /tmp/ccbuXRSa.s:3231   .debug_loc:00000000000000d6 .LLST2
     /tmp/ccbuXRSa.s:90     .text:0000000000000068 .LVL5
     /tmp/ccbuXRSa.s:3462   .debug_str:000000000000033b .LASF127
     /tmp/ccbuXRSa.s:3578   .debug_str:000000000000069d .LASF128
     /tmp/ccbuXRSa.s:43     .text:0000000000000028 .LFB34
     /tmp/ccbuXRSa.s:69     .text:0000000000000050 .LFE34
     /tmp/ccbuXRSa.s:3245   .debug_loc:000000000000010f .LLST1
     /tmp/ccbuXRSa.s:58     .text:0000000000000040 .LVL3
GAS LISTING /tmp/ccbuXRSa.s 			page 24


     /tmp/ccbuXRSa.s:3414   .debug_str:000000000000019f .LASF129
     /tmp/ccbuXRSa.s:3514   .debug_str:00000000000004cd .LASF130
     /tmp/ccbuXRSa.s:10     .text:0000000000000000 .LFB33
     /tmp/ccbuXRSa.s:37     .text:0000000000000028 .LFE33
     /tmp/ccbuXRSa.s:3259   .debug_loc:0000000000000148 .LLST0
     /tmp/ccbuXRSa.s:26     .text:0000000000000018 .LVL1
     /tmp/ccbuXRSa.s:3638   .debug_str:0000000000000907 .LASF131
     /tmp/ccbuXRSa.s:3468   .debug_str:0000000000000363 .LASF132
     /tmp/ccbuXRSa.s:306    .text:00000000000001f4 .LFB32
     /tmp/ccbuXRSa.s:343    .text:000000000000023c .LFE32
     /tmp/ccbuXRSa.s:3273   .debug_loc:0000000000000181 .LLST9
     /tmp/ccbuXRSa.s:323    .text:0000000000000214 .LVL40
     /tmp/ccbuXRSa.s:327    .text:000000000000021c .LVL41
     /tmp/ccbuXRSa.s:332    .text:000000000000022c .LVL42
     /tmp/ccbuXRSa.s:3464   .debug_str:000000000000034a .LASF133
     /tmp/ccbuXRSa.s:3416   .debug_str:00000000000001ae .LASF134
     /tmp/ccbuXRSa.s:107    .text:0000000000000078 .LFB31
     /tmp/ccbuXRSa.s:292    .text:00000000000001f4 .LFE31
     /tmp/ccbuXRSa.s:3287   .debug_loc:00000000000001ba .LLST3
     /tmp/ccbuXRSa.s:3298   .debug_loc:00000000000001f0 .LLST4
     /tmp/ccbuXRSa.s:3305   .debug_loc:0000000000000213 .LLST5
     /tmp/ccbuXRSa.s:3316   .debug_loc:0000000000000249 .LLST6
     /tmp/ccbuXRSa.s:3323   .debug_loc:000000000000026c .LLST7
     /tmp/ccbuXRSa.s:3330   .debug_loc:000000000000028f .LLST8
     /tmp/ccbuXRSa.s:128    .text:00000000000000a0 .LVL6
     /tmp/ccbuXRSa.s:140    .text:00000000000000b8 .LVL9
     /tmp/ccbuXRSa.s:145    .text:00000000000000c4 .LVL10
     /tmp/ccbuXRSa.s:150    .text:00000000000000d0 .LVL11
     /tmp/ccbuXRSa.s:160    .text:00000000000000e4 .LVL13
     /tmp/ccbuXRSa.s:165    .text:00000000000000f0 .LVL14
     /tmp/ccbuXRSa.s:170    .text:00000000000000fc .LVL15
     /tmp/ccbuXRSa.s:182    .text:0000000000000114 .LVL18
     /tmp/ccbuXRSa.s:187    .text:0000000000000120 .LVL19
     /tmp/ccbuXRSa.s:192    .text:000000000000012c .LVL20
     /tmp/ccbuXRSa.s:203    .text:0000000000000144 .LVL22
     /tmp/ccbuXRSa.s:208    .text:0000000000000150 .LVL23
     /tmp/ccbuXRSa.s:213    .text:000000000000015c .LVL24
     /tmp/ccbuXRSa.s:223    .text:0000000000000170 .LVL26
     /tmp/ccbuXRSa.s:228    .text:000000000000017c .LVL27
     /tmp/ccbuXRSa.s:235    .text:000000000000018c .LVL28
     /tmp/ccbuXRSa.s:243    .text:000000000000019c .LVL29
     /tmp/ccbuXRSa.s:251    .text:00000000000001ac .LVL30
     /tmp/ccbuXRSa.s:257    .text:00000000000001b8 .LVL31
     /tmp/ccbuXRSa.s:267    .text:00000000000001cc .LVL33
     /tmp/ccbuXRSa.s:272    .text:00000000000001d8 .LVL34
     /tmp/ccbuXRSa.s:3654   .debug_str:0000000000000969 .LASF135
     /tmp/ccbuXRSa.s:3504   .debug_str:0000000000000491 .LASF136
     /tmp/ccbuXRSa.s:3446   .debug_str:00000000000002d2 .LASF137
     /tmp/ccbuXRSa.s:3370   .debug_str:0000000000000034 .LASF138
     /tmp/ccbuXRSa.s:3618   .debug_str:00000000000007d1 .LASF165
     /tmp/ccbuXRSa.s:3656   .debug_str:000000000000096e .LASF139
     /tmp/ccbuXRSa.s:3454   .debug_str:00000000000002f6 .LASF140
     /tmp/ccbuXRSa.s:3648   .debug_str:0000000000000933 .LASF141
     /tmp/ccbuXRSa.s:3664   .debug_str:000000000000098e .LASF142
     /tmp/ccbuXRSa.s:3560   .debug_str:0000000000000614 .LASF143
     /tmp/ccbuXRSa.s:3474   .debug_str:00000000000003a5 .LASF144
     /tmp/ccbuXRSa.s:3548   .debug_str:00000000000005bc .LASF145
GAS LISTING /tmp/ccbuXRSa.s 			page 25


     /tmp/ccbuXRSa.s:3564   .debug_str:0000000000000629 .LASF146
     /tmp/ccbuXRSa.s:3546   .debug_str:00000000000005b0 .LASF147
     /tmp/ccbuXRSa.s:3530   .debug_str:0000000000000545 .LASF148
     /tmp/ccbuXRSa.s:3544   .debug_str:00000000000005a4 .LASF149
     /tmp/ccbuXRSa.s:3688   .debug_str:0000000000000a78 .LASF150
     /tmp/ccbuXRSa.s:3542   .debug_str:0000000000000598 .LASF151
     /tmp/ccbuXRSa.s:3516   .debug_str:00000000000004e2 .LASF152
     /tmp/ccbuXRSa.s:3642   .debug_str:000000000000091d .LASF153
     /tmp/ccbuXRSa.s:3436   .debug_str:000000000000028f .LASF154
     /tmp/ccbuXRSa.s:3506   .debug_str:0000000000000497 .LASF155
     /tmp/ccbuXRSa.s:453    .text:00000000000002e8 .LVL51
     /tmp/ccbuXRSa.s:478    .text:0000000000000308 .LVL55
     /tmp/ccbuXRSa.s:485    .text:0000000000000314 .LVL56
     /tmp/ccbuXRSa.s:498    .text:0000000000000324 .LVL58
     /tmp/ccbuXRSa.s:520    .text:0000000000000348 .LVL61
     /tmp/ccbuXRSa.s:489    .text:0000000000000318 .LVL57
     /tmp/ccbuXRSa.s:382    .text:0000000000000260 .LVL44
     /tmp/ccbuXRSa.s:396    .text:0000000000000268 .LVL45
     /tmp/ccbuXRSa.s:78     .text:0000000000000050 .LVL4
     /tmp/ccbuXRSa.s:46     .text:0000000000000028 .LVL2
     /tmp/ccbuXRSa.s:14     .text:0000000000000000 .LVL0
     /tmp/ccbuXRSa.s:309    .text:00000000000001f4 .LVL38
     /tmp/ccbuXRSa.s:321    .text:000000000000020c .LVL39
     /tmp/ccbuXRSa.s:130    .text:00000000000000a4 .LVL7
     /tmp/ccbuXRSa.s:138    .text:00000000000000b0 .LVL8
     /tmp/ccbuXRSa.s:287    .text:00000000000001ec .LVL37
     /tmp/ccbuXRSa.s:158    .text:00000000000000dc .LVL12
     /tmp/ccbuXRSa.s:172    .text:0000000000000100 .LVL16
     /tmp/ccbuXRSa.s:180    .text:000000000000010c .LVL17
     /tmp/ccbuXRSa.s:284    .text:00000000000001e8 .LVL36
     /tmp/ccbuXRSa.s:194    .text:0000000000000130 .LVL21
     /tmp/ccbuXRSa.s:281    .text:00000000000001e4 .LVL35
     /tmp/ccbuXRSa.s:221    .text:0000000000000168 .LVL25
     /tmp/ccbuXRSa.s:265    .text:00000000000001c4 .LVL32
     /tmp/ccbuXRSa.s:539    .debug_info:0000000000000000 .Ldebug_info0
     /tmp/ccbuXRSa.s:463    .text:00000000000002f0 .LBE21
     /tmp/ccbuXRSa.s:490    .text:0000000000000318 .LBB26
     /tmp/ccbuXRSa.s:501    .text:0000000000000324 .LBE26

UNDEFINED SYMBOLS
_Z11workerBodyAv
_Z11workerBodyBv
_Z11workerBodyCv
_Znwm
__putc
_ZdlPv
_Z12pprintStringPKc
_Z8userMainv
_ZN5Riscv14SupervisorTrapEv
_Z13thread_createPP3TCBPFvPvES2_
_ZN9Scheduler5queueE
_Z15thread_dispatchv
_ZN15MemoryAllocator8InstanceEv
_ZN15MemoryAllocator8mem_freeEPv
