GAS LISTING /tmp/cc1meBec.s 			page 1


   1              		.file	"main.cpp"
   2              		.option pic
   3              		.option norelax
   4              		.text
   5              	.Ltext0:
   6              		.align	2
   7              		.globl	main
   9              	main:
  10              	.LFB0:
  11              		.file 1 "src/main.cpp"
   1:src/main.cpp  **** 
   2:src/main.cpp  **** #include "../lib/console.h"
   3:src/main.cpp  **** #include  "../lib/hw.h"
   4:src/main.cpp  **** #include "../h/MemoryAllocator.hpp"
   5:src/main.cpp  **** 
   6:src/main.cpp  **** // uint64 pc;
   7:src/main.cpp  **** // uint64 counter=0;
   8:src/main.cpp  **** // void f() {
   9:src/main.cpp  **** //     __putc('a');
  10:src/main.cpp  **** //     __putc('\n');
  11:src/main.cpp  **** //     __asm__ volatile ("mv ra, %[destination]" :: [destination] "r" (pc));
  12:src/main.cpp  **** //     __asm__ volatile ("sd ra, 8(sp)");
  13:src/main.cpp  **** // }
  14:src/main.cpp  **** //
  15:src/main.cpp  **** //
  16:src/main.cpp  **** //
  17:src/main.cpp  **** // void dispatch() {
  18:src/main.cpp  **** //     __asm__ volatile ("mv %[ret], ra" : [ret] "=r" (pc)  );
  19:src/main.cpp  **** //     __asm__ volatile ("mv ra, %[destination]" :: [destination] "r" (&f));
  20:src/main.cpp  **** // }
  21:src/main.cpp  **** //
  22:src/main.cpp  **** //
  23:src/main.cpp  **** //
  24:src/main.cpp  **** //
  25:src/main.cpp  **** //
  26:src/main.cpp  **** // extern "C" void SuperVisorTrapHandler() {
  27:src/main.cpp  **** //     uint64 scause;
  28:src/main.cpp  **** //     __asm__ volatile ("csrr %[ret], scause" : [ret] "=r" (scause) );
  29:src/main.cpp  **** //     if (scause == (0x01UL <<63 | 0x01)) {
  30:src/main.cpp  **** //         counter++;
  31:src/main.cpp  **** //
  32:src/main.cpp  **** //         if (counter>=50) {
  33:src/main.cpp  **** //
  34:src/main.cpp  **** //             __putc('b');
  35:src/main.cpp  **** //             __putc('\n');
  36:src/main.cpp  **** //             counter=0;
  37:src/main.cpp  **** //         }
  38:src/main.cpp  **** //         __asm__ volatile ("csrc sip, 0x02");
  39:src/main.cpp  **** //     }
  40:src/main.cpp  **** //     console_handler();
  41:src/main.cpp  **** //
  42:src/main.cpp  **** // }
  43:src/main.cpp  **** 
  44:src/main.cpp  **** 
  45:src/main.cpp  **** //extern "C" void SupervisorTrap();
  46:src/main.cpp  **** 
  47:src/main.cpp  **** 
GAS LISTING /tmp/cc1meBec.s 			page 2


  48:src/main.cpp  **** 
  49:src/main.cpp  **** void main(){
  12              		.loc 1 49 12
  13              		.cfi_startproc
  14 0000 130101FD 		addi	sp,sp,-48
  15              		.cfi_def_cfa_offset 48
  16 0004 23341102 		sd	ra,40(sp)
  17 0008 23308102 		sd	s0,32(sp)
  18 000c 233C9100 		sd	s1,24(sp)
  19 0010 23382101 		sd	s2,16(sp)
  20 0014 23343101 		sd	s3,8(sp)
  21              		.cfi_offset 1, -8
  22              		.cfi_offset 8, -16
  23              		.cfi_offset 9, -24
  24              		.cfi_offset 18, -32
  25              		.cfi_offset 19, -40
  26 0018 13040103 		addi	s0,sp,48
  27              		.cfi_def_cfa 8, 0
  50:src/main.cpp  ****     // __asm__ volatile ("csrw stvec, %[handler]" :: [handler] "r" (SupervisorTrap));
  51:src/main.cpp  ****     // __asm__ volatile("csrs sstatus, 0x02");
  52:src/main.cpp  ****     // while (1){}
  53:src/main.cpp  **** 
  54:src/main.cpp  ****     uint64* a1=(uint64*)MemoryAllocator::Instance()->mem_alloc(sizeof(uint64));
  28              		.loc 1 54 5
  29              		.loc 1 54 63 is_stmt 0
  30 001c 97000000 		call	_ZN15MemoryAllocator8InstanceEv@plt
  30      E7800000 
  31              	.LVL0:
  32 0024 93058000 		li	a1,8
  33 0028 97000000 		call	_ZN15MemoryAllocator9mem_allocEm@plt
  33      E7800000 
  34              	.LVL1:
  35 0030 93090500 		mv	s3,a0
  36              	.LVL2:
  55:src/main.cpp  ****     *a1=4;
  37              		.loc 1 55 5 is_stmt 1
  38              		.loc 1 55 8 is_stmt 0
  39 0034 93074000 		li	a5,4
  40 0038 2330F500 		sd	a5,0(a0)
  56:src/main.cpp  ****     __putc(*a1+'0');
  41              		.loc 1 56 5 is_stmt 1
  42              		.loc 1 56 11 is_stmt 0
  43 003c 13054003 		li	a0,52
  44              	.LVL3:
  45 0040 97000000 		call	__putc@plt
  45      E7800000 
  46              	.LVL4:
  57:src/main.cpp  ****     __putc('\n');
  47              		.loc 1 57 5 is_stmt 1
  48              		.loc 1 57 11 is_stmt 0
  49 0048 1305A000 		li	a0,10
  50 004c 97000000 		call	__putc@plt
  50      E7800000 
  51              	.LVL5:
  58:src/main.cpp  ****     uint64* a2=(uint64*)MemoryAllocator::Instance()->mem_alloc(sizeof(uint64));
  52              		.loc 1 58 5 is_stmt 1
  53              		.loc 1 58 63 is_stmt 0
GAS LISTING /tmp/cc1meBec.s 			page 3


  54 0054 97000000 		call	_ZN15MemoryAllocator8InstanceEv@plt
  54      E7800000 
  55              	.LVL6:
  56 005c 93058000 		li	a1,8
  57 0060 97000000 		call	_ZN15MemoryAllocator9mem_allocEm@plt
  57      E7800000 
  58              	.LVL7:
  59:src/main.cpp  ****     *a2=5;
  59              		.loc 1 59 5 is_stmt 1
  60              		.loc 1 59 8 is_stmt 0
  61 0068 93075000 		li	a5,5
  62 006c 2330F500 		sd	a5,0(a0)
  60:src/main.cpp  ****     __putc(*a2+'0');
  63              		.loc 1 60 5 is_stmt 1
  64              		.loc 1 60 11 is_stmt 0
  65 0070 13055003 		li	a0,53
  66              	.LVL8:
  67 0074 97000000 		call	__putc@plt
  67      E7800000 
  68              	.LVL9:
  61:src/main.cpp  ****     __putc('\n');
  69              		.loc 1 61 5 is_stmt 1
  70              		.loc 1 61 11 is_stmt 0
  71 007c 1305A000 		li	a0,10
  72 0080 97000000 		call	__putc@plt
  72      E7800000 
  73              	.LVL10:
  62:src/main.cpp  ****     uint64* a3=(uint64*)MemoryAllocator::Instance()->mem_alloc(sizeof(uint64));
  74              		.loc 1 62 5 is_stmt 1
  75              		.loc 1 62 63 is_stmt 0
  76 0088 97000000 		call	_ZN15MemoryAllocator8InstanceEv@plt
  76      E7800000 
  77              	.LVL11:
  78 0090 93058000 		li	a1,8
  79 0094 97000000 		call	_ZN15MemoryAllocator9mem_allocEm@plt
  79      E7800000 
  80              	.LVL12:
  81 009c 13090500 		mv	s2,a0
  82              	.LVL13:
  63:src/main.cpp  ****     *a3=6;
  83              		.loc 1 63 5 is_stmt 1
  84              		.loc 1 63 8 is_stmt 0
  85 00a0 93076000 		li	a5,6
  86 00a4 2330F500 		sd	a5,0(a0)
  64:src/main.cpp  ****     __putc(*a3+'0');
  87              		.loc 1 64 5 is_stmt 1
  88              		.loc 1 64 11 is_stmt 0
  89 00a8 13056003 		li	a0,54
  90              	.LVL14:
  91 00ac 97000000 		call	__putc@plt
  91      E7800000 
  92              	.LVL15:
  65:src/main.cpp  ****     __putc('\n');
  93              		.loc 1 65 5 is_stmt 1
  94              		.loc 1 65 11 is_stmt 0
  95 00b4 1305A000 		li	a0,10
  96 00b8 97000000 		call	__putc@plt
GAS LISTING /tmp/cc1meBec.s 			page 4


  96      E7800000 
  97              	.LVL16:
  66:src/main.cpp  ****     uint64* a4=(uint64*)MemoryAllocator::Instance()->mem_alloc(sizeof(uint64));
  98              		.loc 1 66 5 is_stmt 1
  99              		.loc 1 66 63 is_stmt 0
 100 00c0 97000000 		call	_ZN15MemoryAllocator8InstanceEv@plt
 100      E7800000 
 101              	.LVL17:
 102 00c8 93058000 		li	a1,8
 103 00cc 97000000 		call	_ZN15MemoryAllocator9mem_allocEm@plt
 103      E7800000 
 104              	.LVL18:
 105 00d4 93040500 		mv	s1,a0
 106              	.LVL19:
  67:src/main.cpp  ****     *a4=7;
 107              		.loc 1 67 5 is_stmt 1
 108              		.loc 1 67 8 is_stmt 0
 109 00d8 93077000 		li	a5,7
 110 00dc 2330F500 		sd	a5,0(a0)
  68:src/main.cpp  ****     __putc(*a4+'0');
 111              		.loc 1 68 5 is_stmt 1
 112              		.loc 1 68 11 is_stmt 0
 113 00e0 13057003 		li	a0,55
 114 00e4 97000000 		call	__putc@plt
 114      E7800000 
 115              	.LVL20:
  69:src/main.cpp  ****     __putc('\n');
 116              		.loc 1 69 5 is_stmt 1
 117              		.loc 1 69 11 is_stmt 0
 118 00ec 1305A000 		li	a0,10
 119 00f0 97000000 		call	__putc@plt
 119      E7800000 
 120              	.LVL21:
  70:src/main.cpp  ****     uint64* a5=(uint64*)MemoryAllocator::Instance()->mem_alloc(sizeof(uint64));
 121              		.loc 1 70 5 is_stmt 1
 122              		.loc 1 70 63 is_stmt 0
 123 00f8 97000000 		call	_ZN15MemoryAllocator8InstanceEv@plt
 123      E7800000 
 124              	.LVL22:
 125 0100 93058000 		li	a1,8
 126 0104 97000000 		call	_ZN15MemoryAllocator9mem_allocEm@plt
 126      E7800000 
 127              	.LVL23:
  71:src/main.cpp  ****     *a5=8;
 128              		.loc 1 71 5 is_stmt 1
 129              		.loc 1 71 8 is_stmt 0
 130 010c 93078000 		li	a5,8
 131 0110 2330F500 		sd	a5,0(a0)
  72:src/main.cpp  ****     __putc(*a5+'0');
 132              		.loc 1 72 5 is_stmt 1
 133              		.loc 1 72 11 is_stmt 0
 134 0114 13058003 		li	a0,56
 135              	.LVL24:
 136 0118 97000000 		call	__putc@plt
 136      E7800000 
 137              	.LVL25:
  73:src/main.cpp  ****     __putc('\n');
GAS LISTING /tmp/cc1meBec.s 			page 5


 138              		.loc 1 73 5 is_stmt 1
 139              		.loc 1 73 11 is_stmt 0
 140 0120 1305A000 		li	a0,10
 141 0124 97000000 		call	__putc@plt
 141      E7800000 
 142              	.LVL26:
  74:src/main.cpp  ****     MemoryAllocator::Instance()->mem_free(a1);
 143              		.loc 1 74 5 is_stmt 1
 144              		.loc 1 74 42 is_stmt 0
 145 012c 97000000 		call	_ZN15MemoryAllocator8InstanceEv@plt
 145      E7800000 
 146              	.LVL27:
 147 0134 93850900 		mv	a1,s3
 148 0138 97000000 		call	_ZN15MemoryAllocator8mem_freeEPv@plt
 148      E7800000 
 149              	.LVL28:
  75:src/main.cpp  ****     MemoryAllocator::Instance()->mem_free(a3);
 150              		.loc 1 75 5 is_stmt 1
 151              		.loc 1 75 42 is_stmt 0
 152 0140 97000000 		call	_ZN15MemoryAllocator8InstanceEv@plt
 152      E7800000 
 153              	.LVL29:
 154 0148 93050900 		mv	a1,s2
 155 014c 97000000 		call	_ZN15MemoryAllocator8mem_freeEPv@plt
 155      E7800000 
 156              	.LVL30:
  76:src/main.cpp  ****     MemoryAllocator::Instance()->mem_free(a4);
 157              		.loc 1 76 5 is_stmt 1
 158              		.loc 1 76 42 is_stmt 0
 159 0154 97000000 		call	_ZN15MemoryAllocator8InstanceEv@plt
 159      E7800000 
 160              	.LVL31:
 161 015c 93850400 		mv	a1,s1
 162 0160 97000000 		call	_ZN15MemoryAllocator8mem_freeEPv@plt
 162      E7800000 
 163              	.LVL32:
  77:src/main.cpp  ****     uint64* a6=(uint64*)MemoryAllocator::Instance()->mem_alloc(sizeof(uint64)*9);
 164              		.loc 1 77 5 is_stmt 1
 165              		.loc 1 77 63 is_stmt 0
 166 0168 97000000 		call	_ZN15MemoryAllocator8InstanceEv@plt
 166      E7800000 
 167              	.LVL33:
 168 0170 93058004 		li	a1,72
 169 0174 97000000 		call	_ZN15MemoryAllocator9mem_allocEm@plt
 169      E7800000 
 170              	.LVL34:
  78:src/main.cpp  ****     *a6=9;
 171              		.loc 1 78 5 is_stmt 1
 172              		.loc 1 78 8 is_stmt 0
 173 017c 93079000 		li	a5,9
 174 0180 2330F500 		sd	a5,0(a0)
  79:src/main.cpp  ****     __putc(*a6+'0');
 175              		.loc 1 79 5 is_stmt 1
 176              		.loc 1 79 11 is_stmt 0
 177 0184 13059003 		li	a0,57
 178              	.LVL35:
 179 0188 97000000 		call	__putc@plt
GAS LISTING /tmp/cc1meBec.s 			page 6


 179      E7800000 
 180              	.LVL36:
  80:src/main.cpp  ****     __putc('\n');
 181              		.loc 1 80 5 is_stmt 1
 182              		.loc 1 80 11 is_stmt 0
 183 0190 1305A000 		li	a0,10
 184 0194 97000000 		call	__putc@plt
 184      E7800000 
 185              	.LVL37:
  81:src/main.cpp  **** 
  82:src/main.cpp  **** 
  83:src/main.cpp  **** 
  84:src/main.cpp  **** 
  85:src/main.cpp  **** 
  86:src/main.cpp  **** 
  87:src/main.cpp  **** 
  88:src/main.cpp  **** }...
 186              		.loc 1 88 1
 187 019c 83308102 		ld	ra,40(sp)
 188              		.cfi_restore 1
 189 01a0 03340102 		ld	s0,32(sp)
 190              		.cfi_restore 8
 191              		.cfi_def_cfa 2, 48
 192 01a4 83348101 		ld	s1,24(sp)
 193              		.cfi_restore 9
 194              	.LVL38:
 195 01a8 03390101 		ld	s2,16(sp)
 196              		.cfi_restore 18
 197              	.LVL39:
 198 01ac 83398100 		ld	s3,8(sp)
 199              		.cfi_restore 19
 200              	.LVL40:
 201 01b0 13010103 		addi	sp,sp,48
 202              		.cfi_def_cfa_offset 0
 203 01b4 67800000 		jr	ra
 204              		.cfi_endproc
 205              	.LFE0:
 207              	.Letext0:
 208              		.file 2 "src/../lib/hw.h"
 209              		.file 3 "src/../h/MemoryAllocator.hpp"
 210              		.file 4 "src/../lib/console.h"
GAS LISTING /tmp/cc1meBec.s 			page 7


DEFINED SYMBOLS
                            *ABS*:0000000000000000 main.cpp
     /tmp/cc1meBec.s:9      .text:0000000000000000 main
     /tmp/cc1meBec.s:13     .text:0000000000000000 .L0 
     /tmp/cc1meBec.s:14     .text:0000000000000000 .L0 
     /tmp/cc1meBec.s:15     .text:0000000000000004 .L0 
     /tmp/cc1meBec.s:21     .text:0000000000000018 .L0 
     /tmp/cc1meBec.s:22     .text:0000000000000018 .L0 
     /tmp/cc1meBec.s:23     .text:0000000000000018 .L0 
     /tmp/cc1meBec.s:24     .text:0000000000000018 .L0 
     /tmp/cc1meBec.s:25     .text:0000000000000018 .L0 
     /tmp/cc1meBec.s:27     .text:000000000000001c .L0 
     /tmp/cc1meBec.s:29     .text:000000000000001c .L0 
     /tmp/cc1meBec.s:30     .text:000000000000001c .L0 
     /tmp/cc1meBec.s:38     .text:0000000000000034 .L0 
     /tmp/cc1meBec.s:39     .text:0000000000000034 .L0 
     /tmp/cc1meBec.s:42     .text:000000000000003c .L0 
     /tmp/cc1meBec.s:43     .text:000000000000003c .L0 
     /tmp/cc1meBec.s:48     .text:0000000000000048 .L0 
     /tmp/cc1meBec.s:49     .text:0000000000000048 .L0 
     /tmp/cc1meBec.s:53     .text:0000000000000054 .L0 
     /tmp/cc1meBec.s:54     .text:0000000000000054 .L0 
     /tmp/cc1meBec.s:60     .text:0000000000000068 .L0 
     /tmp/cc1meBec.s:61     .text:0000000000000068 .L0 
     /tmp/cc1meBec.s:64     .text:0000000000000070 .L0 
     /tmp/cc1meBec.s:65     .text:0000000000000070 .L0 
     /tmp/cc1meBec.s:70     .text:000000000000007c .L0 
     /tmp/cc1meBec.s:71     .text:000000000000007c .L0 
     /tmp/cc1meBec.s:75     .text:0000000000000088 .L0 
     /tmp/cc1meBec.s:76     .text:0000000000000088 .L0 
     /tmp/cc1meBec.s:84     .text:00000000000000a0 .L0 
     /tmp/cc1meBec.s:85     .text:00000000000000a0 .L0 
     /tmp/cc1meBec.s:88     .text:00000000000000a8 .L0 
     /tmp/cc1meBec.s:89     .text:00000000000000a8 .L0 
     /tmp/cc1meBec.s:94     .text:00000000000000b4 .L0 
     /tmp/cc1meBec.s:95     .text:00000000000000b4 .L0 
     /tmp/cc1meBec.s:99     .text:00000000000000c0 .L0 
     /tmp/cc1meBec.s:100    .text:00000000000000c0 .L0 
     /tmp/cc1meBec.s:108    .text:00000000000000d8 .L0 
     /tmp/cc1meBec.s:109    .text:00000000000000d8 .L0 
     /tmp/cc1meBec.s:112    .text:00000000000000e0 .L0 
     /tmp/cc1meBec.s:113    .text:00000000000000e0 .L0 
     /tmp/cc1meBec.s:117    .text:00000000000000ec .L0 
     /tmp/cc1meBec.s:118    .text:00000000000000ec .L0 
     /tmp/cc1meBec.s:122    .text:00000000000000f8 .L0 
     /tmp/cc1meBec.s:123    .text:00000000000000f8 .L0 
     /tmp/cc1meBec.s:129    .text:000000000000010c .L0 
     /tmp/cc1meBec.s:130    .text:000000000000010c .L0 
     /tmp/cc1meBec.s:133    .text:0000000000000114 .L0 
     /tmp/cc1meBec.s:134    .text:0000000000000114 .L0 
     /tmp/cc1meBec.s:139    .text:0000000000000120 .L0 
     /tmp/cc1meBec.s:140    .text:0000000000000120 .L0 
     /tmp/cc1meBec.s:144    .text:000000000000012c .L0 
     /tmp/cc1meBec.s:145    .text:000000000000012c .L0 
     /tmp/cc1meBec.s:151    .text:0000000000000140 .L0 
     /tmp/cc1meBec.s:152    .text:0000000000000140 .L0 
     /tmp/cc1meBec.s:158    .text:0000000000000154 .L0 
GAS LISTING /tmp/cc1meBec.s 			page 8


     /tmp/cc1meBec.s:159    .text:0000000000000154 .L0 
     /tmp/cc1meBec.s:165    .text:0000000000000168 .L0 
     /tmp/cc1meBec.s:166    .text:0000000000000168 .L0 
     /tmp/cc1meBec.s:172    .text:000000000000017c .L0 
     /tmp/cc1meBec.s:173    .text:000000000000017c .L0 
     /tmp/cc1meBec.s:176    .text:0000000000000184 .L0 
     /tmp/cc1meBec.s:177    .text:0000000000000184 .L0 
     /tmp/cc1meBec.s:182    .text:0000000000000190 .L0 
     /tmp/cc1meBec.s:183    .text:0000000000000190 .L0 
     /tmp/cc1meBec.s:187    .text:000000000000019c .L0 
     /tmp/cc1meBec.s:188    .text:00000000000001a0 .L0 
     /tmp/cc1meBec.s:190    .text:00000000000001a4 .L0 
     /tmp/cc1meBec.s:191    .text:00000000000001a4 .L0 
     /tmp/cc1meBec.s:193    .text:00000000000001a8 .L0 
     /tmp/cc1meBec.s:196    .text:00000000000001ac .L0 
     /tmp/cc1meBec.s:199    .text:00000000000001b0 .L0 
     /tmp/cc1meBec.s:202    .text:00000000000001b4 .L0 
     /tmp/cc1meBec.s:204    .text:00000000000001b8 .L0 
     /tmp/cc1meBec.s:211    .text:00000000000001b8 .L0 
     /tmp/cc1meBec.s:776    .debug_abbrev:0000000000000000 .Ldebug_abbrev0
     /tmp/cc1meBec.s:1267   .debug_str:000000000000016a .LASF29
     /tmp/cc1meBec.s:1277   .debug_str:000000000000025d .LASF30
     /tmp/cc1meBec.s:1251   .debug_str:00000000000000cb .LASF31
     /tmp/cc1meBec.s:5      .text:0000000000000000 .Ltext0
     /tmp/cc1meBec.s:207    .text:00000000000001b8 .Letext0
     /tmp/cc1meBec.s:1229   .debug_line:0000000000000000 .Ldebug_line0
     /tmp/cc1meBec.s:1279   .debug_str:000000000000026a .LASF0
     /tmp/cc1meBec.s:1259   .debug_str:0000000000000138 .LASF1
     /tmp/cc1meBec.s:1255   .debug_str:0000000000000118 .LASF2
     /tmp/cc1meBec.s:1241   .debug_str:0000000000000045 .LASF4
     /tmp/cc1meBec.s:1257   .debug_str:0000000000000126 .LASF3
     /tmp/cc1meBec.s:1235   .debug_str:0000000000000023 .LASF5
     /tmp/cc1meBec.s:1231   .debug_str:0000000000000000 .LASF6
     /tmp/cc1meBec.s:1247   .debug_str:0000000000000098 .LASF7
     /tmp/cc1meBec.s:1283   .debug_str:0000000000000286 .LASF8
     /tmp/cc1meBec.s:1239   .debug_str:0000000000000037 .LASF9
     /tmp/cc1meBec.s:1305   .debug_str:0000000000000318 .LASF10
     /tmp/cc1meBec.s:1281   .debug_str:0000000000000277 .LASF11
     /tmp/cc1meBec.s:1295   .debug_str:00000000000002ef .LASF12
     /tmp/cc1meBec.s:1287   .debug_str:00000000000002ac .LASF13
     /tmp/cc1meBec.s:1261   .debug_str:000000000000014b .LASF14
     /tmp/cc1meBec.s:1245   .debug_str:0000000000000082 .LASF15
     /tmp/cc1meBec.s:1285   .debug_str:0000000000000296 .LASF16
     /tmp/cc1meBec.s:1233   .debug_str:0000000000000013 .LASF21
     /tmp/cc1meBec.s:1237   .debug_str:000000000000002a .LASF32
     /tmp/cc1meBec.s:1301   .debug_str:000000000000030e .LASF17
     /tmp/cc1meBec.s:1299   .debug_str:0000000000000309 .LASF18
     /tmp/cc1meBec.s:1303   .debug_str:0000000000000313 .LASF19
     /tmp/cc1meBec.s:1291   .debug_str:00000000000002c5 .LASF33
     /tmp/cc1meBec.s:1249   .debug_str:00000000000000ab .LASF34
     /tmp/cc1meBec.s:1297   .debug_str:00000000000002ff .LASF35
     /tmp/cc1meBec.s:1293   .debug_str:00000000000002ce .LASF36
     /tmp/cc1meBec.s:1289   .debug_str:00000000000002bc .LASF20
     /tmp/cc1meBec.s:1253   .debug_str:00000000000000f7 .LASF22
     /tmp/cc1meBec.s:1271   .debug_str:0000000000000233 .LASF23
     /tmp/cc1meBec.s:1263   .debug_str:0000000000000157 .LASF24
     /tmp/cc1meBec.s:1243   .debug_str:000000000000004c .LASF25
GAS LISTING /tmp/cc1meBec.s 			page 9


     /tmp/cc1meBec.s:1275   .debug_str:0000000000000258 .LASF26
     /tmp/cc1meBec.s:1273   .debug_str:000000000000024c .LASF27
     /tmp/cc1meBec.s:1269   .debug_str:000000000000022e .LASF28
     /tmp/cc1meBec.s:10     .text:0000000000000000 .LFB0
     /tmp/cc1meBec.s:205    .text:00000000000001b8 .LFE0
     /tmp/cc1meBec.s:1166   .debug_loc:0000000000000000 .LLST0
     /tmp/cc1meBec.s:1177   .debug_loc:0000000000000036 .LLST1
     /tmp/cc1meBec.s:1184   .debug_loc:0000000000000059 .LLST2
     /tmp/cc1meBec.s:1195   .debug_loc:000000000000008f .LLST3
     /tmp/cc1meBec.s:1202   .debug_loc:00000000000000b2 .LLST4
     /tmp/cc1meBec.s:1209   .debug_loc:00000000000000d5 .LLST5
     /tmp/cc1meBec.s:31     .text:0000000000000024 .LVL0
     /tmp/cc1meBec.s:34     .text:0000000000000030 .LVL1
     /tmp/cc1meBec.s:46     .text:0000000000000048 .LVL4
     /tmp/cc1meBec.s:51     .text:0000000000000054 .LVL5
     /tmp/cc1meBec.s:55     .text:000000000000005c .LVL6
     /tmp/cc1meBec.s:58     .text:0000000000000068 .LVL7
     /tmp/cc1meBec.s:68     .text:000000000000007c .LVL9
     /tmp/cc1meBec.s:73     .text:0000000000000088 .LVL10
     /tmp/cc1meBec.s:77     .text:0000000000000090 .LVL11
     /tmp/cc1meBec.s:80     .text:000000000000009c .LVL12
     /tmp/cc1meBec.s:92     .text:00000000000000b4 .LVL15
     /tmp/cc1meBec.s:97     .text:00000000000000c0 .LVL16
     /tmp/cc1meBec.s:101    .text:00000000000000c8 .LVL17
     /tmp/cc1meBec.s:104    .text:00000000000000d4 .LVL18
     /tmp/cc1meBec.s:115    .text:00000000000000ec .LVL20
     /tmp/cc1meBec.s:120    .text:00000000000000f8 .LVL21
     /tmp/cc1meBec.s:124    .text:0000000000000100 .LVL22
     /tmp/cc1meBec.s:127    .text:000000000000010c .LVL23
     /tmp/cc1meBec.s:137    .text:0000000000000120 .LVL25
     /tmp/cc1meBec.s:142    .text:000000000000012c .LVL26
     /tmp/cc1meBec.s:146    .text:0000000000000134 .LVL27
     /tmp/cc1meBec.s:149    .text:0000000000000140 .LVL28
     /tmp/cc1meBec.s:153    .text:0000000000000148 .LVL29
     /tmp/cc1meBec.s:156    .text:0000000000000154 .LVL30
     /tmp/cc1meBec.s:160    .text:000000000000015c .LVL31
     /tmp/cc1meBec.s:163    .text:0000000000000168 .LVL32
     /tmp/cc1meBec.s:167    .text:0000000000000170 .LVL33
     /tmp/cc1meBec.s:170    .text:000000000000017c .LVL34
     /tmp/cc1meBec.s:180    .text:0000000000000190 .LVL36
     /tmp/cc1meBec.s:185    .text:000000000000019c .LVL37
     /tmp/cc1meBec.s:1265   .debug_str:0000000000000163 .LASF37
     /tmp/cc1meBec.s:36     .text:0000000000000034 .LVL2
     /tmp/cc1meBec.s:44     .text:0000000000000040 .LVL3
     /tmp/cc1meBec.s:200    .text:00000000000001b0 .LVL40
     /tmp/cc1meBec.s:66     .text:0000000000000074 .LVL8
     /tmp/cc1meBec.s:82     .text:00000000000000a0 .LVL13
     /tmp/cc1meBec.s:90     .text:00000000000000ac .LVL14
     /tmp/cc1meBec.s:197    .text:00000000000001ac .LVL39
     /tmp/cc1meBec.s:106    .text:00000000000000d8 .LVL19
     /tmp/cc1meBec.s:194    .text:00000000000001a8 .LVL38
     /tmp/cc1meBec.s:135    .text:0000000000000118 .LVL24
     /tmp/cc1meBec.s:178    .text:0000000000000188 .LVL35
     /tmp/cc1meBec.s:212    .debug_info:0000000000000000 .Ldebug_info0

UNDEFINED SYMBOLS
_ZN15MemoryAllocator8InstanceEv
GAS LISTING /tmp/cc1meBec.s 			page 10


_ZN15MemoryAllocator9mem_allocEm
__putc
_ZN15MemoryAllocator8mem_freeEPv
