GAS LISTING /tmp/ccCB76hb.s 			page 1


   1              		.file	"main.cpp"
   2              		.option pic
   3              		.option norelax
   4              		.text
   5              	.Ltext0:
   6              		.section	.rodata.str1.8,"aMS",@progbits,1
   7              		.align	3
   8              	.LC0:
   9 0000 75736572 		.string	"user main start:\n"
   9      206D6169 
   9      6E207374 
   9      6172743A 
   9      0A00
  10 0012 00000000 		.align	3
  10      0000
  11              	.LC1:
  12 0018 75736572 		.string	"user main end:\n"
  12      206D6169 
  12      6E20656E 
  12      643A0A00 
  13              		.text
  14              		.align	2
  15              		.globl	_Z11userWrapperPv
  17              	_Z11userWrapperPv:
  18              	.LFB41:
  19              		.file 1 "src/main.cpp"
   1:src/main.cpp  **** 
   2:src/main.cpp  **** #include "../lib/console.h"
   3:src/main.cpp  **** #include  "../lib/hw.h"
   4:src/main.cpp  **** 
   5:src/main.cpp  **** #include "../h/syscall_c.hpp"
   6:src/main.cpp  **** #include  "../h/syscall_cpp.hpp"
   7:src/main.cpp  **** #include "../h/Riscv.hpp"
   8:src/main.cpp  **** #include "../h/print.hpp"
   9:src/main.cpp  **** 
  10:src/main.cpp  **** #include  "../h/TCB.hpp"
  11:src/main.cpp  **** #include "../h/workers.hpp"
  12:src/main.cpp  **** 
  13:src/main.cpp  **** 
  14:src/main.cpp  **** 
  15:src/main.cpp  **** 
  16:src/main.cpp  **** 
  17:src/main.cpp  **** 
  18:src/main.cpp  **** 
  19:src/main.cpp  **** extern void userMain();
  20:src/main.cpp  **** static bool userfinished=false;
  21:src/main.cpp  **** static bool Afinished=false;
  22:src/main.cpp  **** static bool Bfinished=false;
  23:src/main.cpp  **** static bool Cfinished=false;
  24:src/main.cpp  **** void userWrapper(void* arg)
  25:src/main.cpp  **** {
  20              		.loc 1 25 1
  21              		.cfi_startproc
  22              	.LVL0:
  23 0000 130101FF 		addi	sp,sp,-16
  24              		.cfi_def_cfa_offset 16
  25 0004 23341100 		sd	ra,8(sp)
GAS LISTING /tmp/ccCB76hb.s 			page 2


  26 0008 23308100 		sd	s0,0(sp)
  27              		.cfi_offset 1, -8
  28              		.cfi_offset 8, -16
  29 000c 13040101 		addi	s0,sp,16
  30              		.cfi_def_cfa 8, 0
  26:src/main.cpp  ****     pprintString("user main start:\n");
  31              		.loc 1 26 5
  32              		.loc 1 26 17 is_stmt 0
  33 0010 17050000 		lla	a0,.LC0
  33      13050500 
  34              	.LVL1:
  35 0018 97000000 		call	_Z12pprintStringPKc@plt
  35      E7800000 
  36              	.LVL2:
  27:src/main.cpp  ****     userMain();
  37              		.loc 1 27 5 is_stmt 1
  38              		.loc 1 27 13 is_stmt 0
  39 0020 97000000 		call	_Z8userMainv@plt
  39      E7800000 
  40              	.LVL3:
  28:src/main.cpp  ****     pprintString("user main end:\n");
  41              		.loc 1 28 5 is_stmt 1
  42              		.loc 1 28 17 is_stmt 0
  43 0028 17050000 		lla	a0,.LC1
  43      13050500 
  44 0030 97000000 		call	_Z12pprintStringPKc@plt
  44      E7800000 
  45              	.LVL4:
  29:src/main.cpp  ****     userfinished=true;
  46              		.loc 1 29 5 is_stmt 1
  30:src/main.cpp  **** }
  47              		.loc 1 30 1 is_stmt 0
  48 0038 83308100 		ld	ra,8(sp)
  49              		.cfi_restore 1
  50 003c 03340100 		ld	s0,0(sp)
  51              		.cfi_restore 8
  52              		.cfi_def_cfa 2, 16
  53 0040 13010101 		addi	sp,sp,16
  54              		.cfi_def_cfa_offset 0
  55 0044 67800000 		jr	ra
  56              		.cfi_endproc
  57              	.LFE41:
  59              		.align	2
  60              		.globl	_Z14WorkerAWrapperPv
  62              	_Z14WorkerAWrapperPv:
  63              	.LFB42:
  31:src/main.cpp  **** 
  32:src/main.cpp  **** void WorkerAWrapper(void* arg)
  33:src/main.cpp  **** {
  64              		.loc 1 33 1 is_stmt 1
  65              		.cfi_startproc
  66              	.LVL5:
  67 0048 130101FF 		addi	sp,sp,-16
  68              		.cfi_def_cfa_offset 16
  69 004c 23341100 		sd	ra,8(sp)
  70 0050 23308100 		sd	s0,0(sp)
  71              		.cfi_offset 1, -8
GAS LISTING /tmp/ccCB76hb.s 			page 3


  72              		.cfi_offset 8, -16
  73 0054 13040101 		addi	s0,sp,16
  74              		.cfi_def_cfa 8, 0
  34:src/main.cpp  ****     //pprintString("worker A start:\n");
  35:src/main.cpp  ****     workerBodyA();
  75              		.loc 1 35 5
  76              		.loc 1 35 16 is_stmt 0
  77 0058 97000000 		call	_Z11workerBodyAv@plt
  77      E7800000 
  78              	.LVL6:
  36:src/main.cpp  ****     //pprintString("worker A end:\n");
  37:src/main.cpp  ****     Afinished=true;
  79              		.loc 1 37 5 is_stmt 1
  38:src/main.cpp  **** }
  80              		.loc 1 38 1 is_stmt 0
  81 0060 83308100 		ld	ra,8(sp)
  82              		.cfi_restore 1
  83 0064 03340100 		ld	s0,0(sp)
  84              		.cfi_restore 8
  85              		.cfi_def_cfa 2, 16
  86 0068 13010101 		addi	sp,sp,16
  87              		.cfi_def_cfa_offset 0
  88 006c 67800000 		jr	ra
  89              		.cfi_endproc
  90              	.LFE42:
  92              		.align	2
  93              		.globl	_Z14WorkerBWrapperPv
  95              	_Z14WorkerBWrapperPv:
  96              	.LFB43:
  39:src/main.cpp  **** 
  40:src/main.cpp  **** void WorkerBWrapper(void* arg)
  41:src/main.cpp  **** {
  97              		.loc 1 41 1 is_stmt 1
  98              		.cfi_startproc
  99              	.LVL7:
 100 0070 130101FF 		addi	sp,sp,-16
 101              		.cfi_def_cfa_offset 16
 102 0074 23341100 		sd	ra,8(sp)
 103 0078 23308100 		sd	s0,0(sp)
 104              		.cfi_offset 1, -8
 105              		.cfi_offset 8, -16
 106 007c 13040101 		addi	s0,sp,16
 107              		.cfi_def_cfa 8, 0
  42:src/main.cpp  ****     //pprintString("worker B start:\n");
  43:src/main.cpp  ****     workerBodyB();
 108              		.loc 1 43 5
 109              		.loc 1 43 16 is_stmt 0
 110 0080 97000000 		call	_Z11workerBodyBv@plt
 110      E7800000 
 111              	.LVL8:
  44:src/main.cpp  ****     //pprintString("worker B end:\n");
  45:src/main.cpp  ****     Bfinished=true;
 112              		.loc 1 45 5 is_stmt 1
  46:src/main.cpp  **** }
 113              		.loc 1 46 1 is_stmt 0
 114 0088 83308100 		ld	ra,8(sp)
 115              		.cfi_restore 1
GAS LISTING /tmp/ccCB76hb.s 			page 4


 116 008c 03340100 		ld	s0,0(sp)
 117              		.cfi_restore 8
 118              		.cfi_def_cfa 2, 16
 119 0090 13010101 		addi	sp,sp,16
 120              		.cfi_def_cfa_offset 0
 121 0094 67800000 		jr	ra
 122              		.cfi_endproc
 123              	.LFE43:
 125              		.align	2
 126              		.globl	_Z14WorkerCWrapperPv
 128              	_Z14WorkerCWrapperPv:
 129              	.LFB44:
  47:src/main.cpp  **** 
  48:src/main.cpp  **** void WorkerCWrapper(void* arg)
  49:src/main.cpp  **** {
 130              		.loc 1 49 1 is_stmt 1
 131              		.cfi_startproc
 132              	.LVL9:
 133 0098 130101FF 		addi	sp,sp,-16
 134              		.cfi_def_cfa_offset 16
 135 009c 23341100 		sd	ra,8(sp)
 136 00a0 23308100 		sd	s0,0(sp)
 137              		.cfi_offset 1, -8
 138              		.cfi_offset 8, -16
 139 00a4 13040101 		addi	s0,sp,16
 140              		.cfi_def_cfa 8, 0
  50:src/main.cpp  ****     //pprintString("worker C start:\n");
  51:src/main.cpp  ****     workerBodyC();
 141              		.loc 1 51 5
 142              		.loc 1 51 16 is_stmt 0
 143 00a8 97000000 		call	_Z11workerBodyCv@plt
 143      E7800000 
 144              	.LVL10:
  52:src/main.cpp  ****     //pprintString("worker C end:\n");
  53:src/main.cpp  ****     Cfinished=true;
 145              		.loc 1 53 5 is_stmt 1
  54:src/main.cpp  **** }
 146              		.loc 1 54 1 is_stmt 0
 147 00b0 83308100 		ld	ra,8(sp)
 148              		.cfi_restore 1
 149 00b4 03340100 		ld	s0,0(sp)
 150              		.cfi_restore 8
 151              		.cfi_def_cfa 2, 16
 152 00b8 13010101 		addi	sp,sp,16
 153              		.cfi_def_cfa_offset 0
 154 00bc 67800000 		jr	ra
 155              		.cfi_endproc
 156              	.LFE44:
 158              		.align	2
 159              		.globl	_Z13exit_emulatorv
 161              	_Z13exit_emulatorv:
 162              	.LFB45:
  55:src/main.cpp  **** 
  56:src/main.cpp  **** 
  57:src/main.cpp  **** 
  58:src/main.cpp  **** void exit_emulator() {
 163              		.loc 1 58 22 is_stmt 1
GAS LISTING /tmp/ccCB76hb.s 			page 5


 164              		.cfi_startproc
 165 00c0 130101FF 		addi	sp,sp,-16
 166              		.cfi_def_cfa_offset 16
 167 00c4 23348100 		sd	s0,8(sp)
 168              		.cfi_offset 8, -8
 169 00c8 13040101 		addi	s0,sp,16
 170              		.cfi_def_cfa 8, 0
  59:src/main.cpp  ****     uint64 *stop_adr = (uint64*)0x100000;
 171              		.loc 1 59 5
 172              	.LVL11:
  60:src/main.cpp  ****     uint64 stop_val = 0x5555;
 173              		.loc 1 60 5
  61:src/main.cpp  **** 
  62:src/main.cpp  ****     asm volatile ("sw %0, 0(%1)":: "r" (stop_val), "r" (stop_adr));
 174              		.loc 1 62 5
 175              		.loc 1 62 67 is_stmt 0
 176 00cc B7570000 		li	a5,20480
 177 00d0 93875755 		addi	a5,a5,1365
 178 00d4 37071000 		li	a4,1048576
 179              	#APP
 180              	# 62 "src/main.cpp" 1
  63              	}
 181              		sw a5, 0(a4)
 182              	# 0 "" 2
 183              		.loc 1 63 1
 184              	#NO_APP
 185 00dc 03348100 		ld	s0,8(sp)
 186              		.cfi_restore 8
 187              		.cfi_def_cfa 2, 16
 188 00e0 13010101 		addi	sp,sp,16
 189              		.cfi_def_cfa_offset 0
 190 00e4 67800000 		jr	ra
 191              		.cfi_endproc
 192              	.LFE45:
 194              		.section	.rodata.str1.8
 195              		.align	3
 196              	.LC2:
 197 0028 46696E69 		.string	"Finished\n"
 197      73686564 
 197      0A00
 198              		.text
 199              		.align	2
 200              		.globl	main
 202              	main:
 203              	.LFB46:
  64:src/main.cpp  **** 
  65:src/main.cpp  **** void main() {
 204              		.loc 1 65 13 is_stmt 1
 205              		.cfi_startproc
 206 00e8 130101FB 		addi	sp,sp,-80
 207              		.cfi_def_cfa_offset 80
 208 00ec 23341104 		sd	ra,72(sp)
 209 00f0 23308104 		sd	s0,64(sp)
 210 00f4 233C9102 		sd	s1,56(sp)
 211 00f8 23382103 		sd	s2,48(sp)
 212              		.cfi_offset 1, -8
 213              		.cfi_offset 8, -16
GAS LISTING /tmp/ccCB76hb.s 			page 6


 214              		.cfi_offset 9, -24
 215              		.cfi_offset 18, -32
 216 00fc 13040105 		addi	s0,sp,80
 217              		.cfi_def_cfa 8, 0
  66:src/main.cpp  ****     Riscv::set_stvec((uint64)&Riscv::SupervisorTrap);
 218              		.loc 1 66 5
 219              		.loc 1 66 21 is_stmt 0
 220 0100 97070000 		la	a5,_ZN5Riscv14SupervisorTrapEv
 220      83B70700 
 221              	.LVL12:
 222              	.LBB16:
 223              	.LBB17:
 224              		.file 2 "src/../h/Riscv.hpp"
   1:src/../h/Riscv.hpp **** //
   2:src/../h/Riscv.hpp **** // Created by os on 9/8/25.
   3:src/../h/Riscv.hpp **** //
   4:src/../h/Riscv.hpp **** 
   5:src/../h/Riscv.hpp **** #ifndef PROJECT_BASE_V1_1_COPY_RISCV_HPP
   6:src/../h/Riscv.hpp **** #define PROJECT_BASE_V1_1_COPY_RISCV_HPP
   7:src/../h/Riscv.hpp **** #include "../lib/hw.h"
   8:src/../h/Riscv.hpp **** #include "BBuff.hpp"
   9:src/../h/Riscv.hpp **** class Riscv {
  10:src/../h/Riscv.hpp **** public:
  11:src/../h/Riscv.hpp ****     static void set_stvec(uint64 stvec);
  12:src/../h/Riscv.hpp ****     static void set_sepc(uint64 sepc);
  13:src/../h/Riscv.hpp ****     static uint64 get_sepc();
  14:src/../h/Riscv.hpp ****     static void set_sstatus(uint64 sstatus);
  15:src/../h/Riscv.hpp ****     static uint64 get_sstatus();
  16:src/../h/Riscv.hpp ****     static uint64 get_scause();
  17:src/../h/Riscv.hpp ****     static uint64 get_stval();
  18:src/../h/Riscv.hpp ****     static void ms_sstatus(uint64 mask);
  19:src/../h/Riscv.hpp ****     static void mc_sstatus(uint64 mask);
  20:src/../h/Riscv.hpp ****     static void mc_sip(uint64 mask);
  21:src/../h/Riscv.hpp ****     static void ms_sie(uint64 mask);
  22:src/../h/Riscv.hpp **** 
  23:src/../h/Riscv.hpp ****     static void InitBBuffs();
  24:src/../h/Riscv.hpp ****     enum BitMaskSstatus
  25:src/../h/Riscv.hpp ****     {
  26:src/../h/Riscv.hpp ****         SSTATUS_SIE=(1UL<<1),
  27:src/../h/Riscv.hpp ****         SSTATUS_SPIE=(1UL<<5),
  28:src/../h/Riscv.hpp ****         SSTATUS_SPP=(1UL<<8)
  29:src/../h/Riscv.hpp ****     };
  30:src/../h/Riscv.hpp ****     enum BitMaskSip: uint64
  31:src/../h/Riscv.hpp ****     {
  32:src/../h/Riscv.hpp ****         SIP_SSIP=(1UL<<1),
  33:src/../h/Riscv.hpp ****         SIP_STIP=(1UL<<5),
  34:src/../h/Riscv.hpp ****         SIP_SEIP=(1UL<<9)
  35:src/../h/Riscv.hpp ****     };
  36:src/../h/Riscv.hpp ****     enum BitMaskSie: uint64
  37:src/../h/Riscv.hpp ****     {
  38:src/../h/Riscv.hpp ****         SIE_SSIE=(1UL<<1),
  39:src/../h/Riscv.hpp ****         SIE_SEIE=(1UL<<9)
  40:src/../h/Riscv.hpp ****     };
  41:src/../h/Riscv.hpp **** 
  42:src/../h/Riscv.hpp **** 
  43:src/../h/Riscv.hpp ****     static void SupervisorTrap();
  44:src/../h/Riscv.hpp ****     static void popSppSpie();
GAS LISTING /tmp/ccCB76hb.s 			page 7


  45:src/../h/Riscv.hpp ****     static void SupervisorTrapHandler();
  46:src/../h/Riscv.hpp ****     static void restoreSPP();
  47:src/../h/Riscv.hpp **** 
  48:src/../h/Riscv.hpp **** 
  49:src/../h/Riscv.hpp ****     static BBuff* INbuff;
  50:src/../h/Riscv.hpp ****     static BBuff* OUTbuff;
  51:src/../h/Riscv.hpp **** 
  52:src/../h/Riscv.hpp **** };
  53:src/../h/Riscv.hpp **** 
  54:src/../h/Riscv.hpp **** 
  55:src/../h/Riscv.hpp **** inline void Riscv::set_stvec(uint64 stvec) {
  56:src/../h/Riscv.hpp ****     __asm__ volatile ("csrw stvec, %[x]" :: [x] "r" (stvec));
 225              		.loc 2 56 5 is_stmt 1
 226              		.loc 2 56 61 is_stmt 0
 227              	#APP
 228              	# 56 "src/../h/Riscv.hpp" 1
  57              	}
 229              		csrw stvec, a5
 230              	# 0 "" 2
 231              	.LVL13:
 232              	#NO_APP
 233              	.LBE17:
 234              	.LBE16:
  67:src/main.cpp  ****     Riscv::ms_sstatus(Riscv::SSTATUS_SIE);
 235              		.loc 1 67 5 is_stmt 1
 236              	.LBB18:
 237              	.LBB19:
  58:src/../h/Riscv.hpp **** 
  59:src/../h/Riscv.hpp **** inline void Riscv::set_sepc(uint64 sepc) {
  60:src/../h/Riscv.hpp ****     __asm__ volatile ("csrw sepc, %[x]" :: [x] "r" (sepc));
  61:src/../h/Riscv.hpp **** }
  62:src/../h/Riscv.hpp **** 
  63:src/../h/Riscv.hpp **** inline uint64 Riscv::get_sepc() {
  64:src/../h/Riscv.hpp ****     uint64 sepc;
  65:src/../h/Riscv.hpp ****     __asm__ volatile ("csrr %[x],sepc" : [x] "=r" (sepc));
  66:src/../h/Riscv.hpp ****     return sepc;
  67:src/../h/Riscv.hpp **** }
  68:src/../h/Riscv.hpp **** 
  69:src/../h/Riscv.hpp **** inline void Riscv::set_sstatus(uint64 sstatus) {
  70:src/../h/Riscv.hpp ****     __asm__ volatile ("csrw sstatus, %[x]" :: [x] "r" (sstatus));
  71:src/../h/Riscv.hpp **** }
  72:src/../h/Riscv.hpp **** 
  73:src/../h/Riscv.hpp **** inline uint64 Riscv::get_sstatus() {
  74:src/../h/Riscv.hpp ****     uint64 sstatus;
  75:src/../h/Riscv.hpp ****     __asm__ volatile ("csrr %[x],sstatus" : [x] "=r" (sstatus));
  76:src/../h/Riscv.hpp ****     return sstatus;
  77:src/../h/Riscv.hpp **** }
  78:src/../h/Riscv.hpp **** 
  79:src/../h/Riscv.hpp **** inline uint64 Riscv::get_scause() {
  80:src/../h/Riscv.hpp ****     uint64 volatile scause;
  81:src/../h/Riscv.hpp ****     __asm__ volatile("csrr %[scause], scause":[scause]"=r"(scause));
  82:src/../h/Riscv.hpp ****     return scause;
  83:src/../h/Riscv.hpp **** }
  84:src/../h/Riscv.hpp **** inline uint64 Riscv::get_stval() {
  85:src/../h/Riscv.hpp ****     uint64 volatile stval;
  86:src/../h/Riscv.hpp ****     __asm__ volatile("csrr %[stval], stval":[stval]"=r"(stval));
  87:src/../h/Riscv.hpp ****     return stval;
GAS LISTING /tmp/ccCB76hb.s 			page 8


  88:src/../h/Riscv.hpp **** }
  89:src/../h/Riscv.hpp **** inline void Riscv::ms_sstatus(uint64 mask) {
  90:src/../h/Riscv.hpp ****     __asm__ volatile("csrs sstatus,%[mask]"::[mask]"r"(mask));
 238              		.loc 2 90 5
 239              		.loc 2 90 62 is_stmt 0
 240 010c 93072000 		li	a5,2
 241              	#APP
 242              	# 90 "src/../h/Riscv.hpp" 1
  91              	}
 243              		csrs sstatus,a5
 244              	# 0 "" 2
 245              	.LVL14:
 246              	#NO_APP
 247              	.LBE19:
 248              	.LBE18:
  68:src/main.cpp  ****     Riscv::InitBBuffs();
 249              		.loc 1 68 5 is_stmt 1
 250              		.loc 1 68 22 is_stmt 0
 251 0114 97000000 		call	_ZN5Riscv10InitBBuffsEv@plt
 251      E7800000 
 252              	.LVL15:
  69:src/main.cpp  ****     thread_t kernelThread;
 253              		.loc 1 69 5 is_stmt 1
  70:src/main.cpp  ****     thread_create(&kernelThread,nullptr,nullptr);
 254              		.loc 1 70 5
 255              		.loc 1 70 18 is_stmt 0
 256 011c 13060000 		li	a2,0
 257 0120 93050000 		li	a1,0
 258 0124 130584FD 		addi	a0,s0,-40
 259 0128 97000000 		call	_Z13thread_createPP3TCBPFvPvES2_@plt
 259      E7800000 
 260              	.LVL16:
  71:src/main.cpp  ****     // thread_t coroutines[4];
  72:src/main.cpp  ****     // thread_create(&coroutines[0],nullptr,nullptr);
  73:src/main.cpp  ****     TCB::InitOutputThread();
 261              		.loc 1 73 5 is_stmt 1
 262              		.loc 1 73 26 is_stmt 0
 263 0130 97000000 		call	_ZN3TCB16InitOutputThreadEv@plt
 263      E7800000 
 264              	.LVL17:
  74:src/main.cpp  **** 
  75:src/main.cpp  **** 
  76:src/main.cpp  ****     thread_t coroutines[4];
 265              		.loc 1 76 5 is_stmt 1
  77:src/main.cpp  ****     // PeriodicThread* periodican= new WorkerP(5);
  78:src/main.cpp  ****     // periodican->start();
  79:src/main.cpp  ****     thread_create(&coroutines[1],userWrapper,nullptr);
 266              		.loc 1 79 5
 267              		.loc 1 79 18 is_stmt 0
 268 0138 13060000 		li	a2,0
 269 013c 97050000 		lla	a1,_Z11userWrapperPv
 269      93850500 
 270 0144 130504FC 		addi	a0,s0,-64
 271 0148 97000000 		call	_Z13thread_createPP3TCBPFvPvES2_@plt
 271      E7800000 
 272              	.LVL18:
 273 0150 6F00C000 		j	.L14
GAS LISTING /tmp/ccCB76hb.s 			page 9


 274              	.L12:
  80:src/main.cpp  ****     //thread_create(&coroutines[2],WorkerBWrapper,nullptr);
  81:src/main.cpp  ****     //thread_create(&coroutines[3],WorkerCWrapper,nullptr);
  82:src/main.cpp  **** 
  83:src/main.cpp  **** 
  84:src/main.cpp  **** 
  85:src/main.cpp  ****     while (!coroutines[1]->isFinished()  || Riscv::OUTbuff->getCnt()>0 ) {
  86:src/main.cpp  ****         thread_dispatch();
 275              		.loc 1 86 9 is_stmt 1 discriminator 3
 276              		.loc 1 86 24 is_stmt 0 discriminator 3
 277 0154 97000000 		call	_Z15thread_dispatchv@plt
 277      E7800000 
 278              	.LVL19:
 279              	.L14:
  85:src/main.cpp  ****         thread_dispatch();
 280              		.loc 1 85 5 is_stmt 1
  85:src/main.cpp  ****         thread_dispatch();
 281              		.loc 1 85 42
  85:src/main.cpp  ****         thread_dispatch();
 282              		.loc 1 85 25 is_stmt 0
 283 015c 833704FC 		ld	a5,-64(s0)
 284              	.LVL20:
 285              	.LBB20:
 286              	.LBB21:
 287              		.file 3 "src/../h/TCB.hpp"
   1:src/../h/TCB.hpp **** //
   2:src/../h/TCB.hpp **** // Created by os on 9/23/25.
   3:src/../h/TCB.hpp **** //
   4:src/../h/TCB.hpp **** 
   5:src/../h/TCB.hpp **** #ifndef PROJECT_BASE_V1_1_COPY_TCB_HPP
   6:src/../h/TCB.hpp **** #define PROJECT_BASE_V1_1_COPY_TCB_HPP
   7:src/../h/TCB.hpp **** #include "../lib/hw.h"
   8:src/../h/TCB.hpp **** #include "../h/Scheduler.hpp"
   9:src/../h/TCB.hpp **** #include "../h/MemoryAllocator.hpp"
  10:src/../h/TCB.hpp **** 
  11:src/../h/TCB.hpp **** class TCB
  12:src/../h/TCB.hpp **** {
  13:src/../h/TCB.hpp **** public:
  14:src/../h/TCB.hpp ****     void* operator new(size_t size)
  15:src/../h/TCB.hpp **** {
  16:src/../h/TCB.hpp ****     return MemoryAllocator::Instance()->mem_alloc(size);
  17:src/../h/TCB.hpp **** }
  18:src/../h/TCB.hpp **** 
  19:src/../h/TCB.hpp ****     void operator delete(void* ptr)
  20:src/../h/TCB.hpp ****     {
  21:src/../h/TCB.hpp ****         return MemoryAllocator::Instance()->mem_free(ptr);
  22:src/../h/TCB.hpp ****     }
  23:src/../h/TCB.hpp **** 
  24:src/../h/TCB.hpp **** 
  25:src/../h/TCB.hpp ****     using Body=void(*)(void*);
  26:src/../h/TCB.hpp **** 
  27:src/../h/TCB.hpp ****     ~TCB()
  28:src/../h/TCB.hpp ****     {
  29:src/../h/TCB.hpp ****         delete stack;
  30:src/../h/TCB.hpp ****     }
  31:src/../h/TCB.hpp **** 
  32:src/../h/TCB.hpp ****     static TCB* createThread(Body body, void* arg, uint64* stack);
GAS LISTING /tmp/ccCB76hb.s 			page 10


  33:src/../h/TCB.hpp **** 
  34:src/../h/TCB.hpp ****     static void dispatch();
  35:src/../h/TCB.hpp ****     static int exit();
  36:src/../h/TCB.hpp ****     static void InitOutputThread();
  37:src/../h/TCB.hpp **** 
  38:src/../h/TCB.hpp **** 
  39:src/../h/TCB.hpp ****     bool isFinished() const { return finished;}
 288              		.loc 3 39 31 is_stmt 1
 289              		.loc 3 39 38 is_stmt 0
 290 0160 83C72700 		lbu	a5,2(a5)
 291              	.LVL21:
 292              	.LBE21:
 293              	.LBE20:
  85:src/main.cpp  ****         thread_dispatch();
 294              		.loc 1 85 42
 295 0164 E38807FE 		beqz	a5,.L12
  85:src/main.cpp  ****         thread_dispatch();
 296              		.loc 1 85 67 discriminator 2
 297 0168 97070000 		la	a5,_ZN5Riscv7OUTbuffE
 297      83B70700 
 298 0170 83B70700 		ld	a5,0(a5)
 299              	.LVL22:
 300              	.LBB22:
 301              	.LBB23:
 302              		.file 4 "src/../h/BBuff.hpp"
   1:src/../h/BBuff.hpp **** //
   2:src/../h/BBuff.hpp **** // Created by os on 9/26/25.
   3:src/../h/BBuff.hpp **** //
   4:src/../h/BBuff.hpp **** 
   5:src/../h/BBuff.hpp **** #ifndef PROJECT_BASE_V1_1_COPY_BBUFF_HPP
   6:src/../h/BBuff.hpp **** #define PROJECT_BASE_V1_1_COPY_BBUFF_HPP
   7:src/../h/BBuff.hpp **** 
   8:src/../h/BBuff.hpp **** #include "../h/syscall_c.hpp"
   9:src/../h/BBuff.hpp **** 
  10:src/../h/BBuff.hpp **** 
  11:src/../h/BBuff.hpp **** class BBuff {
  12:src/../h/BBuff.hpp **** public:
  13:src/../h/BBuff.hpp ****     void put(char c);
  14:src/../h/BBuff.hpp ****     char get();
  15:src/../h/BBuff.hpp ****     BBuff(int size);
  16:src/../h/BBuff.hpp ****     ~BBuff();
  17:src/../h/BBuff.hpp ****     int getCnt() {
  18:src/../h/BBuff.hpp ****         return count;
 303              		.loc 4 18 9 is_stmt 1 discriminator 2
 304              		.loc 4 18 16 is_stmt 0 discriminator 2
 305 0174 83A78702 		lw	a5,40(a5)
 306              	.LVL23:
 307              	.LBE23:
 308              	.LBE22:
  85:src/main.cpp  ****         thread_dispatch();
 309              		.loc 1 85 42 discriminator 2
 310 0178 E34EF0FC 		bgtz	a5,.L12
 311 017c 930484FB 		addi	s1,s0,-72
 312 0180 6F00C001 		j	.L13
 313              	.LVL24:
 314              	.L17:
 315              	.LBB24:
GAS LISTING /tmp/ccCB76hb.s 			page 11


 316              	.LBB25:
 317              	.LBB26:
  21:src/../h/TCB.hpp ****     }
 318              		.loc 3 21 9 is_stmt 1
  21:src/../h/TCB.hpp ****     }
 319              		.loc 3 21 53 is_stmt 0
 320 0184 97000000 		call	_ZN15MemoryAllocator8InstanceEv@plt
 320      E7800000 
 321              	.LVL25:
 322 018c 93050900 		mv	a1,s2
 323 0190 97000000 		call	_ZN15MemoryAllocator8mem_freeEPv@plt
 323      E7800000 
 324              	.LVL26:
 325              	.L16:
 326              	.LBE26:
 327              	.LBE25:
  87:src/main.cpp  ****     }
  88:src/main.cpp  **** 
  89:src/main.cpp  **** 
  90:src/main.cpp  ****     for (auto coroutine: coroutines) { delete coroutine; }
 328              		.loc 1 90 5 is_stmt 1 discriminator 4
 329 0198 93848400 		addi	s1,s1,8
 330              	.LVL27:
 331              	.L13:
 332              		.loc 1 90 26 discriminator 5
 333 019c 930784FD 		addi	a5,s0,-40
 334 01a0 6380F402 		beq	s1,a5,.L15
 335              		.loc 1 90 15 is_stmt 0 discriminator 2
 336 01a4 03B90400 		ld	s2,0(s1)
 337              	.LVL28:
 338              		.loc 1 90 40 is_stmt 1 discriminator 2
 339              		.loc 1 90 56 is_stmt 0 discriminator 2
 340 01a8 E30809FE 		beqz	s2,.L16
 341              	.LVL29:
 342              	.LBB27:
 343              	.LBB28:
  29:src/../h/TCB.hpp ****     }
 344              		.loc 3 29 9 is_stmt 1
  29:src/../h/TCB.hpp ****     }
 345              		.loc 3 29 16 is_stmt 0
 346 01ac 03358900 		ld	a0,8(s2)
  29:src/../h/TCB.hpp ****     }
 347              		.loc 3 29 21
 348 01b0 E30A05FC 		beqz	a0,.L17
  29:src/../h/TCB.hpp ****     }
 349              		.loc 3 29 16
 350 01b4 97000000 		call	_ZdlPv@plt
 350      E7800000 
 351              	.LVL30:
 352 01bc 6FF09FFC 		j	.L17
 353              	.LVL31:
 354              	.L15:
 355              	.LBE28:
 356              	.LBE27:
 357              	.LBE24:
  91:src/main.cpp  **** 
  92:src/main.cpp  ****     pprintString("Finished\n");
GAS LISTING /tmp/ccCB76hb.s 			page 12


 358              		.loc 1 92 5 is_stmt 1
 359              		.loc 1 92 17 is_stmt 0
 360 01c0 17050000 		lla	a0,.LC2
 360      13050500 
 361 01c8 97000000 		call	_Z12pprintStringPKc@plt
 361      E7800000 
 362              	.LVL32:
  93:src/main.cpp  **** 
  94:src/main.cpp  ****     exit_emulator();
 363              		.loc 1 94 5 is_stmt 1
 364              		.loc 1 94 18 is_stmt 0
 365 01d0 97000000 		call	_Z13exit_emulatorv
 365      E7800000 
 366              	.LVL33:
  95:src/main.cpp  **** 
  96:src/main.cpp  **** 
  97:src/main.cpp  **** }
 367              		.loc 1 97 1
 368 01d8 83308104 		ld	ra,72(sp)
 369              		.cfi_restore 1
 370 01dc 03340104 		ld	s0,64(sp)
 371              		.cfi_restore 8
 372              		.cfi_def_cfa 2, 80
 373 01e0 83348103 		ld	s1,56(sp)
 374              		.cfi_restore 9
 375              	.LVL34:
 376 01e4 03390103 		ld	s2,48(sp)
 377              		.cfi_restore 18
 378 01e8 13010105 		addi	sp,sp,80
 379              		.cfi_def_cfa_offset 0
 380 01ec 67800000 		jr	ra
 381              		.cfi_endproc
 382              	.LFE46:
 384              	.Letext0:
 385              		.file 5 "src/../lib/hw.h"
 386              		.file 6 "src/../h/../h/List.hpp"
 387              		.file 7 "src/../h/../h/MemoryAllocator.hpp"
 388              		.file 8 "src/../h/SEM.hpp"
 389              		.file 9 "src/../h/syscall_c.hpp"
 390              		.file 10 "src/../h/syscall_cpp.hpp"
 391              		.file 11 "src/../h/print.hpp"
 392              		.file 12 "src/../h/workers.hpp"
GAS LISTING /tmp/ccCB76hb.s 			page 13


DEFINED SYMBOLS
                            *ABS*:0000000000000000 main.cpp
     /tmp/ccCB76hb.s:17     .text:0000000000000000 _Z11userWrapperPv
     /tmp/ccCB76hb.s:21     .text:0000000000000000 .L0 
     /tmp/ccCB76hb.s:23     .text:0000000000000000 .L0 
     /tmp/ccCB76hb.s:24     .text:0000000000000004 .L0 
     /tmp/ccCB76hb.s:27     .text:000000000000000c .L0 
     /tmp/ccCB76hb.s:28     .text:000000000000000c .L0 
     /tmp/ccCB76hb.s:30     .text:0000000000000010 .L0 
     /tmp/ccCB76hb.s:32     .text:0000000000000010 .L0 
     /tmp/ccCB76hb.s:33     .text:0000000000000010 .L0 
     /tmp/ccCB76hb.s:38     .text:0000000000000020 .L0 
     /tmp/ccCB76hb.s:39     .text:0000000000000020 .L0 
     /tmp/ccCB76hb.s:42     .text:0000000000000028 .L0 
     /tmp/ccCB76hb.s:43     .text:0000000000000028 .L0 
     /tmp/ccCB76hb.s:47     .text:0000000000000038 .L0 
     /tmp/ccCB76hb.s:48     .text:0000000000000038 .L0 
     /tmp/ccCB76hb.s:49     .text:000000000000003c .L0 
     /tmp/ccCB76hb.s:51     .text:0000000000000040 .L0 
     /tmp/ccCB76hb.s:52     .text:0000000000000040 .L0 
     /tmp/ccCB76hb.s:54     .text:0000000000000044 .L0 
     /tmp/ccCB76hb.s:56     .text:0000000000000048 .L0 
     /tmp/ccCB76hb.s:62     .text:0000000000000048 _Z14WorkerAWrapperPv
     /tmp/ccCB76hb.s:65     .text:0000000000000048 .L0 
     /tmp/ccCB76hb.s:67     .text:0000000000000048 .L0 
     /tmp/ccCB76hb.s:68     .text:000000000000004c .L0 
     /tmp/ccCB76hb.s:71     .text:0000000000000054 .L0 
     /tmp/ccCB76hb.s:72     .text:0000000000000054 .L0 
     /tmp/ccCB76hb.s:74     .text:0000000000000058 .L0 
     /tmp/ccCB76hb.s:76     .text:0000000000000058 .L0 
     /tmp/ccCB76hb.s:77     .text:0000000000000058 .L0 
     /tmp/ccCB76hb.s:80     .text:0000000000000060 .L0 
     /tmp/ccCB76hb.s:81     .text:0000000000000060 .L0 
     /tmp/ccCB76hb.s:82     .text:0000000000000064 .L0 
     /tmp/ccCB76hb.s:84     .text:0000000000000068 .L0 
     /tmp/ccCB76hb.s:85     .text:0000000000000068 .L0 
     /tmp/ccCB76hb.s:87     .text:000000000000006c .L0 
     /tmp/ccCB76hb.s:89     .text:0000000000000070 .L0 
     /tmp/ccCB76hb.s:95     .text:0000000000000070 _Z14WorkerBWrapperPv
     /tmp/ccCB76hb.s:98     .text:0000000000000070 .L0 
     /tmp/ccCB76hb.s:100    .text:0000000000000070 .L0 
     /tmp/ccCB76hb.s:101    .text:0000000000000074 .L0 
     /tmp/ccCB76hb.s:104    .text:000000000000007c .L0 
     /tmp/ccCB76hb.s:105    .text:000000000000007c .L0 
     /tmp/ccCB76hb.s:107    .text:0000000000000080 .L0 
     /tmp/ccCB76hb.s:109    .text:0000000000000080 .L0 
     /tmp/ccCB76hb.s:110    .text:0000000000000080 .L0 
     /tmp/ccCB76hb.s:113    .text:0000000000000088 .L0 
     /tmp/ccCB76hb.s:114    .text:0000000000000088 .L0 
     /tmp/ccCB76hb.s:115    .text:000000000000008c .L0 
     /tmp/ccCB76hb.s:117    .text:0000000000000090 .L0 
     /tmp/ccCB76hb.s:118    .text:0000000000000090 .L0 
     /tmp/ccCB76hb.s:120    .text:0000000000000094 .L0 
     /tmp/ccCB76hb.s:122    .text:0000000000000098 .L0 
     /tmp/ccCB76hb.s:128    .text:0000000000000098 _Z14WorkerCWrapperPv
     /tmp/ccCB76hb.s:131    .text:0000000000000098 .L0 
     /tmp/ccCB76hb.s:133    .text:0000000000000098 .L0 
GAS LISTING /tmp/ccCB76hb.s 			page 14


     /tmp/ccCB76hb.s:134    .text:000000000000009c .L0 
     /tmp/ccCB76hb.s:137    .text:00000000000000a4 .L0 
     /tmp/ccCB76hb.s:138    .text:00000000000000a4 .L0 
     /tmp/ccCB76hb.s:140    .text:00000000000000a8 .L0 
     /tmp/ccCB76hb.s:142    .text:00000000000000a8 .L0 
     /tmp/ccCB76hb.s:143    .text:00000000000000a8 .L0 
     /tmp/ccCB76hb.s:146    .text:00000000000000b0 .L0 
     /tmp/ccCB76hb.s:147    .text:00000000000000b0 .L0 
     /tmp/ccCB76hb.s:148    .text:00000000000000b4 .L0 
     /tmp/ccCB76hb.s:150    .text:00000000000000b8 .L0 
     /tmp/ccCB76hb.s:151    .text:00000000000000b8 .L0 
     /tmp/ccCB76hb.s:153    .text:00000000000000bc .L0 
     /tmp/ccCB76hb.s:155    .text:00000000000000c0 .L0 
     /tmp/ccCB76hb.s:161    .text:00000000000000c0 _Z13exit_emulatorv
     /tmp/ccCB76hb.s:164    .text:00000000000000c0 .L0 
     /tmp/ccCB76hb.s:165    .text:00000000000000c0 .L0 
     /tmp/ccCB76hb.s:166    .text:00000000000000c4 .L0 
     /tmp/ccCB76hb.s:168    .text:00000000000000c8 .L0 
     /tmp/ccCB76hb.s:170    .text:00000000000000cc .L0 
     /tmp/ccCB76hb.s:173    .text:00000000000000cc .L0 
     /tmp/ccCB76hb.s:174    .text:00000000000000cc .L0 
     /tmp/ccCB76hb.s:175    .text:00000000000000cc .L0 
     /tmp/ccCB76hb.s:176    .text:00000000000000cc .L0 
     /tmp/ccCB76hb.s:185    .text:00000000000000dc .L0 
     /tmp/ccCB76hb.s:186    .text:00000000000000e0 .L0 
     /tmp/ccCB76hb.s:187    .text:00000000000000e0 .L0 
     /tmp/ccCB76hb.s:189    .text:00000000000000e4 .L0 
     /tmp/ccCB76hb.s:191    .text:00000000000000e8 .L0 
     /tmp/ccCB76hb.s:202    .text:00000000000000e8 main
     /tmp/ccCB76hb.s:205    .text:00000000000000e8 .L0 
     /tmp/ccCB76hb.s:206    .text:00000000000000e8 .L0 
     /tmp/ccCB76hb.s:207    .text:00000000000000ec .L0 
     /tmp/ccCB76hb.s:212    .text:00000000000000fc .L0 
     /tmp/ccCB76hb.s:213    .text:00000000000000fc .L0 
     /tmp/ccCB76hb.s:214    .text:00000000000000fc .L0 
     /tmp/ccCB76hb.s:215    .text:00000000000000fc .L0 
     /tmp/ccCB76hb.s:217    .text:0000000000000100 .L0 
     /tmp/ccCB76hb.s:219    .text:0000000000000100 .L0 
     /tmp/ccCB76hb.s:220    .text:0000000000000100 .L0 
     /tmp/ccCB76hb.s:226    .text:0000000000000108 .L0 
  src/../h/Riscv.hpp:56     .text:0000000000000108 .L0 
     /tmp/ccCB76hb.s:238    .text:000000000000010c .L0 
     /tmp/ccCB76hb.s:239    .text:000000000000010c .L0 
     /tmp/ccCB76hb.s:240    .text:000000000000010c .L0 
     /tmp/ccCB76hb.s:250    .text:0000000000000114 .L0 
     /tmp/ccCB76hb.s:251    .text:0000000000000114 .L0 
     /tmp/ccCB76hb.s:254    .text:000000000000011c .L0 
     /tmp/ccCB76hb.s:255    .text:000000000000011c .L0 
     /tmp/ccCB76hb.s:256    .text:000000000000011c .L0 
     /tmp/ccCB76hb.s:262    .text:0000000000000130 .L0 
     /tmp/ccCB76hb.s:263    .text:0000000000000130 .L0 
     /tmp/ccCB76hb.s:266    .text:0000000000000138 .L0 
     /tmp/ccCB76hb.s:267    .text:0000000000000138 .L0 
     /tmp/ccCB76hb.s:268    .text:0000000000000138 .L0 
     /tmp/ccCB76hb.s:276    .text:0000000000000154 .L0 
     /tmp/ccCB76hb.s:277    .text:0000000000000154 .L0 
     /tmp/ccCB76hb.s:281    .text:000000000000015c .L0 
GAS LISTING /tmp/ccCB76hb.s 			page 15


     /tmp/ccCB76hb.s:282    .text:000000000000015c .L0 
     /tmp/ccCB76hb.s:283    .text:000000000000015c .L0 
     /tmp/ccCB76hb.s:289    .text:0000000000000160 .L0 
     /tmp/ccCB76hb.s:290    .text:0000000000000160 .L0 
     /tmp/ccCB76hb.s:295    .text:0000000000000164 .L0 
     /tmp/ccCB76hb.s:297    .text:0000000000000168 .L0 
     /tmp/ccCB76hb.s:304    .text:0000000000000174 .L0 
     /tmp/ccCB76hb.s:305    .text:0000000000000174 .L0 
     /tmp/ccCB76hb.s:310    .text:0000000000000178 .L0 
     /tmp/ccCB76hb.s:319    .text:0000000000000184 .L0 
     /tmp/ccCB76hb.s:320    .text:0000000000000184 .L0 
     /tmp/ccCB76hb.s:329    .text:0000000000000198 .L0 
     /tmp/ccCB76hb.s:333    .text:000000000000019c .L0 
     /tmp/ccCB76hb.s:336    .text:00000000000001a4 .L0 
     /tmp/ccCB76hb.s:339    .text:00000000000001a8 .L0 
     /tmp/ccCB76hb.s:340    .text:00000000000001a8 .L0 
     /tmp/ccCB76hb.s:345    .text:00000000000001ac .L0 
     /tmp/ccCB76hb.s:346    .text:00000000000001ac .L0 
     /tmp/ccCB76hb.s:348    .text:00000000000001b0 .L0 
     /tmp/ccCB76hb.s:350    .text:00000000000001b4 .L0 
     /tmp/ccCB76hb.s:359    .text:00000000000001c0 .L0 
     /tmp/ccCB76hb.s:360    .text:00000000000001c0 .L0 
     /tmp/ccCB76hb.s:364    .text:00000000000001d0 .L0 
     /tmp/ccCB76hb.s:365    .text:00000000000001d0 .L0 
     /tmp/ccCB76hb.s:368    .text:00000000000001d8 .L0 
     /tmp/ccCB76hb.s:369    .text:00000000000001dc .L0 
     /tmp/ccCB76hb.s:371    .text:00000000000001e0 .L0 
     /tmp/ccCB76hb.s:372    .text:00000000000001e0 .L0 
     /tmp/ccCB76hb.s:374    .text:00000000000001e4 .L0 
     /tmp/ccCB76hb.s:377    .text:00000000000001e8 .L0 
     /tmp/ccCB76hb.s:379    .text:00000000000001ec .L0 
     /tmp/ccCB76hb.s:381    .text:00000000000001f0 .L0 
     /tmp/ccCB76hb.s:393    .text:00000000000001f0 .L0 
     /tmp/ccCB76hb.s:8      .rodata.str1.8:0000000000000000 .LC0
     /tmp/ccCB76hb.s:33     .text:0000000000000010 .L0 
     /tmp/ccCB76hb.s:11     .rodata.str1.8:0000000000000018 .LC1
     /tmp/ccCB76hb.s:43     .text:0000000000000028 .L0 
     /tmp/ccCB76hb.s:220    .text:0000000000000100 .L0 
     /tmp/ccCB76hb.s:269    .text:000000000000013c .L0 
     /tmp/ccCB76hb.s:297    .text:0000000000000168 .L0 
     /tmp/ccCB76hb.s:196    .rodata.str1.8:0000000000000028 .LC2
     /tmp/ccCB76hb.s:360    .text:00000000000001c0 .L0 
     /tmp/ccCB76hb.s:279    .text:000000000000015c .L14
     /tmp/ccCB76hb.s:274    .text:0000000000000154 .L12
     /tmp/ccCB76hb.s:331    .text:000000000000019c .L13
     /tmp/ccCB76hb.s:354    .text:00000000000001c0 .L15
     /tmp/ccCB76hb.s:325    .text:0000000000000198 .L16
     /tmp/ccCB76hb.s:314    .text:0000000000000184 .L17
     /tmp/ccCB76hb.s:2061   .debug_abbrev:0000000000000000 .Ldebug_abbrev0
     /tmp/ccCB76hb.s:3592   .debug_str:000000000000094a .LASF190
     /tmp/ccCB76hb.s:3360   .debug_str:0000000000000300 .LASF191
     /tmp/ccCB76hb.s:3502   .debug_str:00000000000006e6 .LASF192
     /tmp/ccCB76hb.s:5      .text:0000000000000000 .Ltext0
     /tmp/ccCB76hb.s:384    .text:00000000000001f0 .Letext0
     /tmp/ccCB76hb.s:3264   .debug_line:0000000000000000 .Ldebug_line0
     /tmp/ccCB76hb.s:3398   .debug_str:0000000000000401 .LASF0
     /tmp/ccCB76hb.s:3428   .debug_str:00000000000004f3 .LASF1
GAS LISTING /tmp/ccCB76hb.s 			page 16


     /tmp/ccCB76hb.s:3514   .debug_str:000000000000074d .LASF2
     /tmp/ccCB76hb.s:3528   .debug_str:00000000000007c7 .LASF4
     /tmp/ccCB76hb.s:3404   .debug_str:000000000000042a .LASF3
     /tmp/ccCB76hb.s:3282   .debug_str:0000000000000057 .LASF5
     /tmp/ccCB76hb.s:3498   .debug_str:00000000000006d6 .LASF6
     /tmp/ccCB76hb.s:3484   .debug_str:0000000000000677 .LASF7
     /tmp/ccCB76hb.s:3416   .debug_str:000000000000048f .LASF8
     /tmp/ccCB76hb.s:3370   .debug_str:0000000000000327 .LASF9
     /tmp/ccCB76hb.s:3378   .debug_str:0000000000000374 .LASF10
     /tmp/ccCB76hb.s:3316   .debug_str:000000000000017a .LASF11
     /tmp/ccCB76hb.s:3356   .debug_str:00000000000002e4 .LASF12
     /tmp/ccCB76hb.s:3328   .debug_str:00000000000001ca .LASF13
     /tmp/ccCB76hb.s:3314   .debug_str:000000000000016a .LASF14
     /tmp/ccCB76hb.s:3568   .debug_str:00000000000008be .LASF15
     /tmp/ccCB76hb.s:3344   .debug_str:0000000000000236 .LASF16
     /tmp/ccCB76hb.s:3554   .debug_str:0000000000000860 .LASF17
     /tmp/ccCB76hb.s:3574   .debug_str:00000000000008e2 .LASF63
     /tmp/ccCB76hb.s:3666   .debug_str:0000000000000c16 .LASF18
     /tmp/ccCB76hb.s:3374   .debug_str:0000000000000358 .LASF20
     /tmp/ccCB76hb.s:3274   .debug_str:0000000000000029 .LASF45
     /tmp/ccCB76hb.s:3442   .debug_str:0000000000000542 .LASF115
     /tmp/ccCB76hb.s:3530   .debug_str:00000000000007ce .LASF19
     /tmp/ccCB76hb.s:3278   .debug_str:0000000000000041 .LASF21
     /tmp/ccCB76hb.s:3566   .debug_str:00000000000008b1 .LASF22
     /tmp/ccCB76hb.s:3646   .debug_str:0000000000000b7a .LASF23
     /tmp/ccCB76hb.s:3478   .debug_str:0000000000000658 .LASF82
     /tmp/ccCB76hb.s:3340   .debug_str:0000000000000228 .LASF24
     /tmp/ccCB76hb.s:3324   .debug_str:00000000000001a7 .LASF26
     /tmp/ccCB76hb.s:3548   .debug_str:000000000000084b .LASF67
     /tmp/ccCB76hb.s:3408   .debug_str:0000000000000446 .LASF69
     /tmp/ccCB76hb.s:3456   .debug_str:00000000000005be .LASF25
     /tmp/ccCB76hb.s:3304   .debug_str:00000000000000f9 .LASF27
     /tmp/ccCB76hb.s:3576   .debug_str:00000000000008ea .LASF32
     /tmp/ccCB76hb.s:3462   .debug_str:00000000000005e2 .LASF34
     /tmp/ccCB76hb.s:3396   .debug_str:00000000000003fb .LASF28
     /tmp/ccCB76hb.s:3284   .debug_str:000000000000005e .LASF29
     /tmp/ccCB76hb.s:3276   .debug_str:0000000000000039 .LASF30
     /tmp/ccCB76hb.s:3476   .debug_str:0000000000000646 .LASF31
     /tmp/ccCB76hb.s:3516   .debug_str:000000000000075b .LASF33
     /tmp/ccCB76hb.s:3308   .debug_str:0000000000000132 .LASF35
     /tmp/ccCB76hb.s:3434   .debug_str:0000000000000512 .LASF36
     /tmp/ccCB76hb.s:3626   .debug_str:0000000000000afe .LASF37
     /tmp/ccCB76hb.s:3588   .debug_str:0000000000000935 .LASF38
     /tmp/ccCB76hb.s:3492   .debug_str:00000000000006ad .LASF39
     /tmp/ccCB76hb.s:3300   .debug_str:00000000000000e5 .LASF40
     /tmp/ccCB76hb.s:3362   .debug_str:000000000000030d .LASF41
     /tmp/ccCB76hb.s:3654   .debug_str:0000000000000bb2 .LASF42
     /tmp/ccCB76hb.s:3432   .debug_str:000000000000050c .LASF43
     /tmp/ccCB76hb.s:3524   .debug_str:00000000000007a2 .LASF44
     /tmp/ccCB76hb.s:3656   .debug_str:0000000000000bbe .LASF93
     /tmp/ccCB76hb.s:3552   .debug_str:0000000000000857 .LASF46
     /tmp/ccCB76hb.s:3662   .debug_str:0000000000000bf8 .LASF47
     /tmp/ccCB76hb.s:3608   .debug_str:0000000000000a8d .LASF48
     /tmp/ccCB76hb.s:3272   .debug_str:0000000000000024 .LASF49
     /tmp/ccCB76hb.s:3472   .debug_str:000000000000061e .LASF50
     /tmp/ccCB76hb.s:3600   .debug_str:0000000000000a55 .LASF51
     /tmp/ccCB76hb.s:3312   .debug_str:000000000000015f .LASF193
GAS LISTING /tmp/ccCB76hb.s 			page 17


     /tmp/ccCB76hb.s:3288   .debug_str:000000000000008f .LASF194
     /tmp/ccCB76hb.s:3426   .debug_str:00000000000004e2 .LASF195
     /tmp/ccCB76hb.s:3612   .debug_str:0000000000000aa1 .LASF196
     /tmp/ccCB76hb.s:3496   .debug_str:00000000000006c7 .LASF197
     /tmp/ccCB76hb.s:3332   .debug_str:00000000000001e3 .LASF198
     /tmp/ccCB76hb.s:3636   .debug_str:0000000000000b3b .LASF52
     /tmp/ccCB76hb.s:3622   .debug_str:0000000000000aeb .LASF199
     /tmp/ccCB76hb.s:3562   .debug_str:00000000000008a0 .LASF53
     /tmp/ccCB76hb.s:3464   .debug_str:00000000000005f9 .LASF54
     /tmp/ccCB76hb.s:3460   .debug_str:00000000000005dd .LASF55
     /tmp/ccCB76hb.s:3556   .debug_str:0000000000000876 .LASF56
     /tmp/ccCB76hb.s:3422   .debug_str:00000000000004ca .LASF57
     /tmp/ccCB76hb.s:3306   .debug_str:0000000000000115 .LASF58
     /tmp/ccCB76hb.s:3542   .debug_str:0000000000000823 .LASF59
     /tmp/ccCB76hb.s:3414   .debug_str:0000000000000472 .LASF60
     /tmp/ccCB76hb.s:3334   .debug_str:00000000000001fe .LASF61
     /tmp/ccCB76hb.s:3482   .debug_str:0000000000000667 .LASF62
     /tmp/ccCB76hb.s:3358   .debug_str:00000000000002f3 .LASF64
     /tmp/ccCB76hb.s:3318   .debug_str:0000000000000189 .LASF65
     /tmp/ccCB76hb.s:3294   .debug_str:00000000000000c4 .LASF66
     /tmp/ccCB76hb.s:3500   .debug_str:00000000000006dd .LASF68
     /tmp/ccCB76hb.s:3474   .debug_str:0000000000000626 .LASF70
     /tmp/ccCB76hb.s:3452   .debug_str:0000000000000593 .LASF71
     /tmp/ccCB76hb.s:3286   .debug_str:000000000000006e .LASF72
     /tmp/ccCB76hb.s:3390   .debug_str:00000000000003c6 .LASF73
     /tmp/ccCB76hb.s:3454   .debug_str:000000000000059d .LASF74
     /tmp/ccCB76hb.s:3420   .debug_str:00000000000004bb .LASF75
     /tmp/ccCB76hb.s:3536   .debug_str:00000000000007df .LASF76
     /tmp/ccCB76hb.s:3354   .debug_str:00000000000002d0 .LASF77
     /tmp/ccCB76hb.s:3350   .debug_str:0000000000000298 .LASF78
     /tmp/ccCB76hb.s:3292   .debug_str:00000000000000ab .LASF79
     /tmp/ccCB76hb.s:3444   .debug_str:000000000000054f .LASF80
     /tmp/ccCB76hb.s:3348   .debug_str:0000000000000262 .LASF81
     /tmp/ccCB76hb.s:3674   .debug_str:0000000000000c43 .LASF83
     /tmp/ccCB76hb.s:3508   .debug_str:000000000000072c .LASF84
     /tmp/ccCB76hb.s:3342   .debug_str:0000000000000231 .LASF85
     /tmp/ccCB76hb.s:3660   .debug_str:0000000000000be9 .LASF86
     /tmp/ccCB76hb.s:3570   .debug_str:00000000000008ca .LASF87
     /tmp/ccCB76hb.s:3572   .debug_str:00000000000008d1 .LASF88
     /tmp/ccCB76hb.s:3470   .debug_str:0000000000000619 .LASF89
     /tmp/ccCB76hb.s:3620   .debug_str:0000000000000adc .LASF90
     /tmp/ccCB76hb.s:3290   .debug_str:00000000000000a5 .LASF91
     /tmp/ccCB76hb.s:3298   .debug_str:00000000000000d5 .LASF92
     /tmp/ccCB76hb.s:3582   .debug_str:0000000000000906 .LASF94
     /tmp/ccCB76hb.s:3638   .debug_str:0000000000000b45 .LASF95
     /tmp/ccCB76hb.s:3614   .debug_str:0000000000000abe .LASF96
     /tmp/ccCB76hb.s:3634   .debug_str:0000000000000b32 .LASF97
     /tmp/ccCB76hb.s:3652   .debug_str:0000000000000bac .LASF98
     /tmp/ccCB76hb.s:3578   .debug_str:00000000000008f5 .LASF99
     /tmp/ccCB76hb.s:3320   .debug_str:000000000000018e .LASF100
     /tmp/ccCB76hb.s:3326   .debug_str:00000000000001ba .LASF200
     /tmp/ccCB76hb.s:3376   .debug_str:0000000000000364 .LASF201
     /tmp/ccCB76hb.s:3410   .debug_str:0000000000000455 .LASF101
     /tmp/ccCB76hb.s:3648   .debug_str:0000000000000b9c .LASF102
     /tmp/ccCB76hb.s:3380   .debug_str:0000000000000382 .LASF103
     /tmp/ccCB76hb.s:3618   .debug_str:0000000000000ad5 .LASF104
     /tmp/ccCB76hb.s:3268   .debug_str:000000000000000b .LASF105
GAS LISTING /tmp/ccCB76hb.s 			page 18


     /tmp/ccCB76hb.s:3534   .debug_str:00000000000007da .LASF106
     /tmp/ccCB76hb.s:3430   .debug_str:0000000000000506 .LASF107
     /tmp/ccCB76hb.s:3672   .debug_str:0000000000000c3d .LASF108
     /tmp/ccCB76hb.s:3270   .debug_str:000000000000001e .LASF109
     /tmp/ccCB76hb.s:3640   .debug_str:0000000000000b4c .LASF110
     /tmp/ccCB76hb.s:3628   .debug_str:0000000000000b17 .LASF202
     /tmp/ccCB76hb.s:3352   .debug_str:00000000000002c4 .LASF111
     /tmp/ccCB76hb.s:3590   .debug_str:000000000000093d .LASF112
     /tmp/ccCB76hb.s:3336   .debug_str:0000000000000203 .LASF113
     /tmp/ccCB76hb.s:3506   .debug_str:0000000000000722 .LASF114
     /tmp/ccCB76hb.s:3346   .debug_str:000000000000024c .LASF116
     /tmp/ccCB76hb.s:3668   .debug_str:0000000000000c23 .LASF117
     /tmp/ccCB76hb.s:3540   .debug_str:000000000000080e .LASF118
     /tmp/ccCB76hb.s:3302   .debug_str:00000000000000f0 .LASF119
     /tmp/ccCB76hb.s:3658   .debug_str:0000000000000bd4 .LASF120
     /tmp/ccCB76hb.s:3518   .debug_str:0000000000000765 .LASF121
     /tmp/ccCB76hb.s:3418   .debug_str:00000000000004a2 .LASF122
     /tmp/ccCB76hb.s:3296   .debug_str:00000000000000c9 .LASF123
     /tmp/ccCB76hb.s:3338   .debug_str:000000000000020f .LASF124
     /tmp/ccCB76hb.s:3558   .debug_str:0000000000000889 .LASF125
     /tmp/ccCB76hb.s:3310   .debug_str:0000000000000147 .LASF126
     /tmp/ccCB76hb.s:3382   .debug_str:0000000000000390 .LASF127
     /tmp/ccCB76hb.s:3446   .debug_str:000000000000055b .LASF128
     /tmp/ccCB76hb.s:3266   .debug_str:0000000000000000 .LASF129
     /tmp/ccCB76hb.s:3584   .debug_str:0000000000000912 .LASF130
     /tmp/ccCB76hb.s:3512   .debug_str:0000000000000742 .LASF131
     /tmp/ccCB76hb.s:3664   .debug_str:0000000000000bfe .LASF132
     /tmp/ccCB76hb.s:3532   .debug_str:00000000000007d3 .LASF133
     /tmp/ccCB76hb.s:3322   .debug_str:0000000000000194 .LASF134
     /tmp/ccCB76hb.s:3550   .debug_str:0000000000000850 .LASF135
     /tmp/ccCB76hb.s:3438   .debug_str:0000000000000525 .LASF136
     /tmp/ccCB76hb.s:3368   .debug_str:000000000000031c .LASF137
     /tmp/ccCB76hb.s:3594   .debug_str:0000000000000a0e .LASF138
     /tmp/ccCB76hb.s:3424   .debug_str:00000000000004d3 .LASF139
     /tmp/ccCB76hb.s:3520   .debug_str:0000000000000771 .LASF140
     /tmp/ccCB76hb.s:3386   .debug_str:00000000000003a9 .LASF141
     /tmp/ccCB76hb.s:3392   .debug_str:00000000000003cf .LASF142
     /tmp/ccCB76hb.s:3544   .debug_str:000000000000082e .LASF143
     /tmp/ccCB76hb.s:3596   .debug_str:0000000000000a26 .LASF144
     /tmp/ccCB76hb.s:3486   .debug_str:000000000000068a .LASF145
     /tmp/ccCB76hb.s:3604   .debug_str:0000000000000a6c .LASF146
     /tmp/ccCB76hb.s:3546   .debug_str:0000000000000844 .LASF147
     /tmp/ccCB76hb.s:3538   .debug_str:0000000000000806 .LASF148
     /tmp/ccCB76hb.s:3602   .debug_str:0000000000000a5f .LASF149
     /tmp/ccCB76hb.s:3480   .debug_str:000000000000065d .LASF150
     /tmp/ccCB76hb.s:3406   .debug_str:000000000000043c .LASF151
     /tmp/ccCB76hb.s:3616   .debug_str:0000000000000acb .LASF152
     /tmp/ccCB76hb.s:3366   .debug_str:0000000000000317 .LASF153
     /tmp/ccCB76hb.s:203    .text:00000000000000e8 .LFB46
     /tmp/ccCB76hb.s:382    .text:00000000000001f0 .LFE46
     /tmp/ccCB76hb.s:3400   .debug_str:000000000000040e .LASF154
     /tmp/ccCB76hb.s:3586   .debug_str:000000000000092a .LASF155
     /tmp/ccCB76hb.s:315    .text:0000000000000184 .LBB24
     /tmp/ccCB76hb.s:357    .text:00000000000001c0 .LBE24
     /tmp/ccCB76hb.s:3440   .debug_str:0000000000000538 .LASF156
     /tmp/ccCB76hb.s:3141   .debug_loc:0000000000000000 .LLST7
     /tmp/ccCB76hb.s:3560   .debug_str:0000000000000894 .LASF157
GAS LISTING /tmp/ccCB76hb.s 			page 19


     /tmp/ccCB76hb.s:3580   .debug_str:00000000000008fa .LASF203
     /tmp/ccCB76hb.s:3152   .debug_loc:0000000000000036 .LLST8
     /tmp/ccCB76hb.s:3466   .debug_str:00000000000005fe .LASF158
     /tmp/ccCB76hb.s:316    .text:0000000000000184 .LBB25
     /tmp/ccCB76hb.s:327    .text:0000000000000198 .LBE25
     /tmp/ccCB76hb.s:3159   .debug_loc:0000000000000059 .LLST9
     /tmp/ccCB76hb.s:321    .text:000000000000018c .LVL25
     /tmp/ccCB76hb.s:324    .text:0000000000000198 .LVL26
     /tmp/ccCB76hb.s:342    .text:00000000000001ac .LBB27
     /tmp/ccCB76hb.s:356    .text:00000000000001c0 .LBE27
     /tmp/ccCB76hb.s:3166   .debug_loc:000000000000007c .LLST10
     /tmp/ccCB76hb.s:351    .text:00000000000001bc .LVL30
     /tmp/ccCB76hb.s:222    .text:0000000000000108 .LBB16
     /tmp/ccCB76hb.s:234    .text:000000000000010c .LBE16
     /tmp/ccCB76hb.s:236    .text:000000000000010c .LBB18
     /tmp/ccCB76hb.s:248    .text:0000000000000114 .LBE18
     /tmp/ccCB76hb.s:3173   .debug_loc:000000000000009f .LLST4
     /tmp/ccCB76hb.s:285    .text:0000000000000160 .LBB20
     /tmp/ccCB76hb.s:293    .text:0000000000000164 .LBE20
     /tmp/ccCB76hb.s:3181   .debug_loc:00000000000000c3 .LLST5
     /tmp/ccCB76hb.s:300    .text:0000000000000174 .LBB22
     /tmp/ccCB76hb.s:308    .text:0000000000000178 .LBE22
     /tmp/ccCB76hb.s:3188   .debug_loc:00000000000000e6 .LLST6
     /tmp/ccCB76hb.s:252    .text:000000000000011c .LVL15
     /tmp/ccCB76hb.s:260    .text:0000000000000130 .LVL16
     /tmp/ccCB76hb.s:264    .text:0000000000000138 .LVL17
     /tmp/ccCB76hb.s:272    .text:0000000000000150 .LVL18
     /tmp/ccCB76hb.s:278    .text:000000000000015c .LVL19
     /tmp/ccCB76hb.s:362    .text:00000000000001d0 .LVL32
     /tmp/ccCB76hb.s:366    .text:00000000000001d8 .LVL33
     /tmp/ccCB76hb.s:3458   .debug_str:00000000000005cf .LASF159
     /tmp/ccCB76hb.s:3642   .debug_str:0000000000000b52 .LASF160
     /tmp/ccCB76hb.s:162    .text:00000000000000c0 .LFB45
     /tmp/ccCB76hb.s:192    .text:00000000000000e8 .LFE45
     /tmp/ccCB76hb.s:3650   .debug_str:0000000000000ba3 .LASF161
     /tmp/ccCB76hb.s:3330   .debug_str:00000000000001da .LASF162
     /tmp/ccCB76hb.s:3412   .debug_str:0000000000000463 .LASF163
     /tmp/ccCB76hb.s:3526   .debug_str:00000000000007b2 .LASF164
     /tmp/ccCB76hb.s:129    .text:0000000000000098 .LFB44
     /tmp/ccCB76hb.s:156    .text:00000000000000c0 .LFE44
     /tmp/ccCB76hb.s:3195   .debug_loc:0000000000000109 .LLST3
     /tmp/ccCB76hb.s:144    .text:00000000000000b0 .LVL10
     /tmp/ccCB76hb.s:3384   .debug_str:000000000000039a .LASF165
     /tmp/ccCB76hb.s:3522   .debug_str:000000000000078d .LASF166
     /tmp/ccCB76hb.s:96     .text:0000000000000070 .LFB43
     /tmp/ccCB76hb.s:123    .text:0000000000000098 .LFE43
     /tmp/ccCB76hb.s:3209   .debug_loc:0000000000000142 .LLST2
     /tmp/ccCB76hb.s:111    .text:0000000000000088 .LVL8
     /tmp/ccCB76hb.s:3402   .debug_str:000000000000041b .LASF167
     /tmp/ccCB76hb.s:3448   .debug_str:0000000000000571 .LASF168
     /tmp/ccCB76hb.s:63     .text:0000000000000048 .LFB42
     /tmp/ccCB76hb.s:90     .text:0000000000000070 .LFE42
     /tmp/ccCB76hb.s:3223   .debug_loc:000000000000017b .LLST1
     /tmp/ccCB76hb.s:78     .text:0000000000000060 .LVL6
     /tmp/ccCB76hb.s:3598   .debug_str:0000000000000a49 .LASF169
     /tmp/ccCB76hb.s:3388   .debug_str:00000000000003b4 .LASF170
     /tmp/ccCB76hb.s:18     .text:0000000000000000 .LFB41
GAS LISTING /tmp/ccCB76hb.s 			page 20


     /tmp/ccCB76hb.s:57     .text:0000000000000048 .LFE41
     /tmp/ccCB76hb.s:3237   .debug_loc:00000000000001b4 .LLST0
     /tmp/ccCB76hb.s:36     .text:0000000000000020 .LVL2
     /tmp/ccCB76hb.s:40     .text:0000000000000028 .LVL3
     /tmp/ccCB76hb.s:45     .text:0000000000000038 .LVL4
     /tmp/ccCB76hb.s:3630   .debug_str:0000000000000b26 .LASF171
     /tmp/ccCB76hb.s:3436   .debug_str:000000000000051f .LASF172
     /tmp/ccCB76hb.s:3364   .debug_str:0000000000000312 .LASF173
     /tmp/ccCB76hb.s:3280   .debug_str:000000000000004d .LASF174
     /tmp/ccCB76hb.s:3564   .debug_str:00000000000008a5 .LASF204
     /tmp/ccCB76hb.s:3632   .debug_str:0000000000000b2b .LASF175
     /tmp/ccCB76hb.s:3372   .debug_str:0000000000000337 .LASF176
     /tmp/ccCB76hb.s:3624   .debug_str:0000000000000af0 .LASF177
     /tmp/ccCB76hb.s:3644   .debug_str:0000000000000b65 .LASF178
     /tmp/ccCB76hb.s:3504   .debug_str:0000000000000712 .LASF179
     /tmp/ccCB76hb.s:3394   .debug_str:00000000000003e7 .LASF180
     /tmp/ccCB76hb.s:3494   .debug_str:00000000000006ba .LASF181
     /tmp/ccCB76hb.s:3510   .debug_str:0000000000000731 .LASF182
     /tmp/ccCB76hb.s:3610   .debug_str:0000000000000a95 .LASF183
     /tmp/ccCB76hb.s:3468   .debug_str:0000000000000608 .LASF184
     /tmp/ccCB76hb.s:3490   .debug_str:00000000000006a1 .LASF185
     /tmp/ccCB76hb.s:3670   .debug_str:0000000000000c2c .LASF186
     /tmp/ccCB76hb.s:3488   .debug_str:0000000000000695 .LASF187
     /tmp/ccCB76hb.s:3450   .debug_str:0000000000000586 .LASF188
     /tmp/ccCB76hb.s:3606   .debug_str:0000000000000a84 .LASF189
     /tmp/ccCB76hb.s:313    .text:0000000000000184 .LVL24
     /tmp/ccCB76hb.s:330    .text:000000000000019c .LVL27
     /tmp/ccCB76hb.s:337    .text:00000000000001a8 .LVL28
     /tmp/ccCB76hb.s:353    .text:00000000000001c0 .LVL31
     /tmp/ccCB76hb.s:375    .text:00000000000001e4 .LVL34
     /tmp/ccCB76hb.s:341    .text:00000000000001ac .LVL29
     /tmp/ccCB76hb.s:231    .text:000000000000010c .LVL13
     /tmp/ccCB76hb.s:245    .text:0000000000000114 .LVL14
     /tmp/ccCB76hb.s:284    .text:0000000000000160 .LVL20
     /tmp/ccCB76hb.s:291    .text:0000000000000164 .LVL21
     /tmp/ccCB76hb.s:299    .text:0000000000000174 .LVL22
     /tmp/ccCB76hb.s:306    .text:0000000000000178 .LVL23
     /tmp/ccCB76hb.s:132    .text:0000000000000098 .LVL9
     /tmp/ccCB76hb.s:99     .text:0000000000000070 .LVL7
     /tmp/ccCB76hb.s:66     .text:0000000000000048 .LVL5
     /tmp/ccCB76hb.s:22     .text:0000000000000000 .LVL0
     /tmp/ccCB76hb.s:34     .text:0000000000000018 .LVL1
     /tmp/ccCB76hb.s:394    .debug_info:0000000000000000 .Ldebug_info0

UNDEFINED SYMBOLS
_Z12pprintStringPKc
_Z8userMainv
_Z11workerBodyAv
_Z11workerBodyBv
_Z11workerBodyCv
_ZN5Riscv14SupervisorTrapEv
_ZN5Riscv10InitBBuffsEv
_Z13thread_createPP3TCBPFvPvES2_
_ZN3TCB16InitOutputThreadEv
_Z15thread_dispatchv
_ZN5Riscv7OUTbuffE
_ZN15MemoryAllocator8InstanceEv
GAS LISTING /tmp/ccCB76hb.s 			page 21


_ZN15MemoryAllocator8mem_freeEPv
_ZdlPv
