GAS LISTING /tmp/cc7Tuaet.s 			page 1


   1              		.file	"main.cpp"
   2              		.option pic
   3              		.option norelax
   4              		.text
   5              	.Ltext0:
   6              		.align	2
   7              		.globl	_Z14WorkerAWrapperPv
   9              	_Z14WorkerAWrapperPv:
  10              	.LFB32:
  11              		.file 1 "src/main.cpp"
   1:src/main.cpp  **** 
   2:src/main.cpp  **** #include "../lib/console.h"
   3:src/main.cpp  **** #include  "../lib/hw.h"
   4:src/main.cpp  **** #include "../h/MemoryAllocator.hpp"
   5:src/main.cpp  **** #include "../h/syscall_c.hpp"
   6:src/main.cpp  **** #include  "../h/syscall_cpp.hpp"
   7:src/main.cpp  **** #include "../h/Riscv.hpp"
   8:src/main.cpp  **** #include "../h/print.hpp"
   9:src/main.cpp  **** #include "../h/List.hpp"
  10:src/main.cpp  **** #include  "../h/TCB.hpp"
  11:src/main.cpp  **** #include "../h/workers.hpp"
  12:src/main.cpp  **** 
  13:src/main.cpp  **** 
  14:src/main.cpp  **** 
  15:src/main.cpp  **** 
  16:src/main.cpp  **** 
  17:src/main.cpp  **** void AllocatorTest() {
  18:src/main.cpp  ****     uint64* a1=new uint64;
  19:src/main.cpp  ****     *a1=4;
  20:src/main.cpp  ****     __putc(*a1+'0');
  21:src/main.cpp  ****     __putc('\n');
  22:src/main.cpp  ****     uint64* a2=new uint64;
  23:src/main.cpp  ****     *a2=5;
  24:src/main.cpp  ****     __putc(*a2+'0');
  25:src/main.cpp  ****     __putc('\n');
  26:src/main.cpp  ****     uint64* a3=new uint64;
  27:src/main.cpp  ****     *a3=6;
  28:src/main.cpp  ****     __putc(*a3+'0');
  29:src/main.cpp  ****     __putc('\n');
  30:src/main.cpp  ****     uint64* a4=new uint64;
  31:src/main.cpp  ****     *a4=7;
  32:src/main.cpp  ****     __putc(*a4+'0');
  33:src/main.cpp  ****     __putc('\n');
  34:src/main.cpp  ****     uint64* a5=new uint64;
  35:src/main.cpp  ****     *a5=8;
  36:src/main.cpp  ****     __putc(*a5+'0');
  37:src/main.cpp  ****     __putc('\n');
  38:src/main.cpp  ****     delete a1;
  39:src/main.cpp  ****     delete a3;
  40:src/main.cpp  ****     delete a4;
  41:src/main.cpp  ****     uint64* a6=new uint64;
  42:src/main.cpp  ****     *a6=9;
  43:src/main.cpp  ****     __putc(*a6+'0');
  44:src/main.cpp  ****     __putc('\n');
  45:src/main.cpp  **** }
  46:src/main.cpp  **** extern void userMain();
  47:src/main.cpp  **** 
GAS LISTING /tmp/cc7Tuaet.s 			page 2


  48:src/main.cpp  **** void userWrapper(void* arg)
  49:src/main.cpp  **** {
  50:src/main.cpp  ****     printString("user main start:\n");
  51:src/main.cpp  ****     userMain();
  52:src/main.cpp  ****     printString("user main end:\n");
  53:src/main.cpp  **** }
  54:src/main.cpp  **** 
  55:src/main.cpp  **** void WorkerAWrapper(void* arg)
  56:src/main.cpp  **** {
  12              		.loc 1 56 1
  13              		.cfi_startproc
  14              	.LVL0:
  15 0000 130101FF 		addi	sp,sp,-16
  16              		.cfi_def_cfa_offset 16
  17 0004 23341100 		sd	ra,8(sp)
  18 0008 23308100 		sd	s0,0(sp)
  19              		.cfi_offset 1, -8
  20              		.cfi_offset 8, -16
  21 000c 13040101 		addi	s0,sp,16
  22              		.cfi_def_cfa 8, 0
  57:src/main.cpp  ****     //printString("worker A start:\n");
  58:src/main.cpp  ****     workerBodyA();
  23              		.loc 1 58 5
  24              		.loc 1 58 16 is_stmt 0
  25 0010 97000000 		call	_Z11workerBodyAv@plt
  25      E7800000 
  26              	.LVL1:
  59:src/main.cpp  ****     //printString("worker A end:\n");
  60:src/main.cpp  **** }
  27              		.loc 1 60 1
  28 0018 83308100 		ld	ra,8(sp)
  29              		.cfi_restore 1
  30 001c 03340100 		ld	s0,0(sp)
  31              		.cfi_restore 8
  32              		.cfi_def_cfa 2, 16
  33 0020 13010101 		addi	sp,sp,16
  34              		.cfi_def_cfa_offset 0
  35 0024 67800000 		jr	ra
  36              		.cfi_endproc
  37              	.LFE32:
  39              		.align	2
  40              		.globl	_Z14WorkerBWrapperPv
  42              	_Z14WorkerBWrapperPv:
  43              	.LFB33:
  61:src/main.cpp  **** 
  62:src/main.cpp  **** void WorkerBWrapper(void* arg)
  63:src/main.cpp  **** {
  44              		.loc 1 63 1 is_stmt 1
  45              		.cfi_startproc
  46              	.LVL2:
  47 0028 130101FF 		addi	sp,sp,-16
  48              		.cfi_def_cfa_offset 16
  49 002c 23341100 		sd	ra,8(sp)
  50 0030 23308100 		sd	s0,0(sp)
  51              		.cfi_offset 1, -8
  52              		.cfi_offset 8, -16
  53 0034 13040101 		addi	s0,sp,16
GAS LISTING /tmp/cc7Tuaet.s 			page 3


  54              		.cfi_def_cfa 8, 0
  64:src/main.cpp  ****     //printString("worker B start:\n");
  65:src/main.cpp  ****     workerBodyB();
  55              		.loc 1 65 5
  56              		.loc 1 65 16 is_stmt 0
  57 0038 97000000 		call	_Z11workerBodyBv@plt
  57      E7800000 
  58              	.LVL3:
  66:src/main.cpp  ****     //printString("worker B end:\n");
  67:src/main.cpp  **** }
  59              		.loc 1 67 1
  60 0040 83308100 		ld	ra,8(sp)
  61              		.cfi_restore 1
  62 0044 03340100 		ld	s0,0(sp)
  63              		.cfi_restore 8
  64              		.cfi_def_cfa 2, 16
  65 0048 13010101 		addi	sp,sp,16
  66              		.cfi_def_cfa_offset 0
  67 004c 67800000 		jr	ra
  68              		.cfi_endproc
  69              	.LFE33:
  71              		.align	2
  72              		.globl	_Z14WorkerCWrapperPv
  74              	_Z14WorkerCWrapperPv:
  75              	.LFB34:
  68:src/main.cpp  **** 
  69:src/main.cpp  **** void WorkerCWrapper(void* arg)
  70:src/main.cpp  **** {
  76              		.loc 1 70 1 is_stmt 1
  77              		.cfi_startproc
  78              	.LVL4:
  79 0050 130101FF 		addi	sp,sp,-16
  80              		.cfi_def_cfa_offset 16
  81 0054 23341100 		sd	ra,8(sp)
  82 0058 23308100 		sd	s0,0(sp)
  83              		.cfi_offset 1, -8
  84              		.cfi_offset 8, -16
  85 005c 13040101 		addi	s0,sp,16
  86              		.cfi_def_cfa 8, 0
  71:src/main.cpp  ****     //printString("worker C start:\n");
  72:src/main.cpp  ****     workerBodyC();
  87              		.loc 1 72 5
  88              		.loc 1 72 16 is_stmt 0
  89 0060 97000000 		call	_Z11workerBodyCv@plt
  89      E7800000 
  90              	.LVL5:
  73:src/main.cpp  ****     //printString("worker C end:\n");
  74:src/main.cpp  **** }
  91              		.loc 1 74 1
  92 0068 83308100 		ld	ra,8(sp)
  93              		.cfi_restore 1
  94 006c 03340100 		ld	s0,0(sp)
  95              		.cfi_restore 8
  96              		.cfi_def_cfa 2, 16
  97 0070 13010101 		addi	sp,sp,16
  98              		.cfi_def_cfa_offset 0
  99 0074 67800000 		jr	ra
GAS LISTING /tmp/cc7Tuaet.s 			page 4


 100              		.cfi_endproc
 101              	.LFE34:
 103              		.align	2
 104              		.globl	_Z13AllocatorTestv
 106              	_Z13AllocatorTestv:
 107              	.LFB30:
  17:src/main.cpp  ****     uint64* a1=new uint64;
 108              		.loc 1 17 22 is_stmt 1
 109              		.cfi_startproc
 110 0078 130101FD 		addi	sp,sp,-48
 111              		.cfi_def_cfa_offset 48
 112 007c 23341102 		sd	ra,40(sp)
 113 0080 23308102 		sd	s0,32(sp)
 114 0084 233C9100 		sd	s1,24(sp)
 115 0088 23382101 		sd	s2,16(sp)
 116 008c 23343101 		sd	s3,8(sp)
 117              		.cfi_offset 1, -8
 118              		.cfi_offset 8, -16
 119              		.cfi_offset 9, -24
 120              		.cfi_offset 18, -32
 121              		.cfi_offset 19, -40
 122 0090 13040103 		addi	s0,sp,48
 123              		.cfi_def_cfa 8, 0
  18:src/main.cpp  ****     *a1=4;
 124              		.loc 1 18 5
  18:src/main.cpp  ****     *a1=4;
 125              		.loc 1 18 20 is_stmt 0
 126 0094 13058000 		li	a0,8
 127 0098 97000000 		call	_Znwm@plt
 127      E7800000 
 128              	.LVL6:
 129 00a0 93090500 		mv	s3,a0
 130              	.LVL7:
  19:src/main.cpp  ****     __putc(*a1+'0');
 131              		.loc 1 19 5 is_stmt 1
  19:src/main.cpp  ****     __putc(*a1+'0');
 132              		.loc 1 19 8 is_stmt 0
 133 00a4 93074000 		li	a5,4
 134 00a8 2330F500 		sd	a5,0(a0)
  20:src/main.cpp  ****     __putc('\n');
 135              		.loc 1 20 5 is_stmt 1
  20:src/main.cpp  ****     __putc('\n');
 136              		.loc 1 20 11 is_stmt 0
 137 00ac 13054003 		li	a0,52
 138              	.LVL8:
 139 00b0 97000000 		call	__putc@plt
 139      E7800000 
 140              	.LVL9:
  21:src/main.cpp  ****     uint64* a2=new uint64;
 141              		.loc 1 21 5 is_stmt 1
  21:src/main.cpp  ****     uint64* a2=new uint64;
 142              		.loc 1 21 11 is_stmt 0
 143 00b8 1305A000 		li	a0,10
 144 00bc 97000000 		call	__putc@plt
 144      E7800000 
 145              	.LVL10:
  22:src/main.cpp  ****     *a2=5;
GAS LISTING /tmp/cc7Tuaet.s 			page 5


 146              		.loc 1 22 5 is_stmt 1
  22:src/main.cpp  ****     *a2=5;
 147              		.loc 1 22 20 is_stmt 0
 148 00c4 13058000 		li	a0,8
 149 00c8 97000000 		call	_Znwm@plt
 149      E7800000 
 150              	.LVL11:
  23:src/main.cpp  ****     __putc(*a2+'0');
 151              		.loc 1 23 5 is_stmt 1
  23:src/main.cpp  ****     __putc(*a2+'0');
 152              		.loc 1 23 8 is_stmt 0
 153 00d0 93075000 		li	a5,5
 154 00d4 2330F500 		sd	a5,0(a0)
  24:src/main.cpp  ****     __putc('\n');
 155              		.loc 1 24 5 is_stmt 1
  24:src/main.cpp  ****     __putc('\n');
 156              		.loc 1 24 11 is_stmt 0
 157 00d8 13055003 		li	a0,53
 158              	.LVL12:
 159 00dc 97000000 		call	__putc@plt
 159      E7800000 
 160              	.LVL13:
  25:src/main.cpp  ****     uint64* a3=new uint64;
 161              		.loc 1 25 5 is_stmt 1
  25:src/main.cpp  ****     uint64* a3=new uint64;
 162              		.loc 1 25 11 is_stmt 0
 163 00e4 1305A000 		li	a0,10
 164 00e8 97000000 		call	__putc@plt
 164      E7800000 
 165              	.LVL14:
  26:src/main.cpp  ****     *a3=6;
 166              		.loc 1 26 5 is_stmt 1
  26:src/main.cpp  ****     *a3=6;
 167              		.loc 1 26 20 is_stmt 0
 168 00f0 13058000 		li	a0,8
 169 00f4 97000000 		call	_Znwm@plt
 169      E7800000 
 170              	.LVL15:
 171 00fc 13090500 		mv	s2,a0
 172              	.LVL16:
  27:src/main.cpp  ****     __putc(*a3+'0');
 173              		.loc 1 27 5 is_stmt 1
  27:src/main.cpp  ****     __putc(*a3+'0');
 174              		.loc 1 27 8 is_stmt 0
 175 0100 93076000 		li	a5,6
 176 0104 2330F500 		sd	a5,0(a0)
  28:src/main.cpp  ****     __putc('\n');
 177              		.loc 1 28 5 is_stmt 1
  28:src/main.cpp  ****     __putc('\n');
 178              		.loc 1 28 11 is_stmt 0
 179 0108 13056003 		li	a0,54
 180              	.LVL17:
 181 010c 97000000 		call	__putc@plt
 181      E7800000 
 182              	.LVL18:
  29:src/main.cpp  ****     uint64* a4=new uint64;
 183              		.loc 1 29 5 is_stmt 1
GAS LISTING /tmp/cc7Tuaet.s 			page 6


  29:src/main.cpp  ****     uint64* a4=new uint64;
 184              		.loc 1 29 11 is_stmt 0
 185 0114 1305A000 		li	a0,10
 186 0118 97000000 		call	__putc@plt
 186      E7800000 
 187              	.LVL19:
  30:src/main.cpp  ****     *a4=7;
 188              		.loc 1 30 5 is_stmt 1
  30:src/main.cpp  ****     *a4=7;
 189              		.loc 1 30 20 is_stmt 0
 190 0120 13058000 		li	a0,8
 191 0124 97000000 		call	_Znwm@plt
 191      E7800000 
 192              	.LVL20:
 193 012c 93040500 		mv	s1,a0
 194              	.LVL21:
  31:src/main.cpp  ****     __putc(*a4+'0');
 195              		.loc 1 31 5 is_stmt 1
  31:src/main.cpp  ****     __putc(*a4+'0');
 196              		.loc 1 31 8 is_stmt 0
 197 0130 93077000 		li	a5,7
 198 0134 2330F500 		sd	a5,0(a0)
  32:src/main.cpp  ****     __putc('\n');
 199              		.loc 1 32 5 is_stmt 1
  32:src/main.cpp  ****     __putc('\n');
 200              		.loc 1 32 11 is_stmt 0
 201 0138 13057003 		li	a0,55
 202 013c 97000000 		call	__putc@plt
 202      E7800000 
 203              	.LVL22:
  33:src/main.cpp  ****     uint64* a5=new uint64;
 204              		.loc 1 33 5 is_stmt 1
  33:src/main.cpp  ****     uint64* a5=new uint64;
 205              		.loc 1 33 11 is_stmt 0
 206 0144 1305A000 		li	a0,10
 207 0148 97000000 		call	__putc@plt
 207      E7800000 
 208              	.LVL23:
  34:src/main.cpp  ****     *a5=8;
 209              		.loc 1 34 5 is_stmt 1
  34:src/main.cpp  ****     *a5=8;
 210              		.loc 1 34 20 is_stmt 0
 211 0150 13058000 		li	a0,8
 212 0154 97000000 		call	_Znwm@plt
 212      E7800000 
 213              	.LVL24:
  35:src/main.cpp  ****     __putc(*a5+'0');
 214              		.loc 1 35 5 is_stmt 1
  35:src/main.cpp  ****     __putc(*a5+'0');
 215              		.loc 1 35 8 is_stmt 0
 216 015c 93078000 		li	a5,8
 217 0160 2330F500 		sd	a5,0(a0)
  36:src/main.cpp  ****     __putc('\n');
 218              		.loc 1 36 5 is_stmt 1
  36:src/main.cpp  ****     __putc('\n');
 219              		.loc 1 36 11 is_stmt 0
 220 0164 13058003 		li	a0,56
GAS LISTING /tmp/cc7Tuaet.s 			page 7


 221              	.LVL25:
 222 0168 97000000 		call	__putc@plt
 222      E7800000 
 223              	.LVL26:
  37:src/main.cpp  ****     delete a1;
 224              		.loc 1 37 5 is_stmt 1
  37:src/main.cpp  ****     delete a1;
 225              		.loc 1 37 11 is_stmt 0
 226 0170 1305A000 		li	a0,10
 227 0174 97000000 		call	__putc@plt
 227      E7800000 
 228              	.LVL27:
  38:src/main.cpp  ****     delete a3;
 229              		.loc 1 38 5 is_stmt 1
  38:src/main.cpp  ****     delete a3;
 230              		.loc 1 38 14 is_stmt 0
 231 017c 63880900 		beqz	s3,.L8
  38:src/main.cpp  ****     delete a3;
 232              		.loc 1 38 12 discriminator 1
 233 0180 13850900 		mv	a0,s3
 234 0184 97000000 		call	_ZdlPv@plt
 234      E7800000 
 235              	.LVL28:
 236              	.L8:
  39:src/main.cpp  ****     delete a4;
 237              		.loc 1 39 5 is_stmt 1
  39:src/main.cpp  ****     delete a4;
 238              		.loc 1 39 14 is_stmt 0
 239 018c 63080900 		beqz	s2,.L9
  39:src/main.cpp  ****     delete a4;
 240              		.loc 1 39 12 discriminator 1
 241 0190 13050900 		mv	a0,s2
 242 0194 97000000 		call	_ZdlPv@plt
 242      E7800000 
 243              	.LVL29:
 244              	.L9:
  40:src/main.cpp  ****     uint64* a6=new uint64;
 245              		.loc 1 40 5 is_stmt 1
  40:src/main.cpp  ****     uint64* a6=new uint64;
 246              		.loc 1 40 14 is_stmt 0
 247 019c 63880400 		beqz	s1,.L10
  40:src/main.cpp  ****     uint64* a6=new uint64;
 248              		.loc 1 40 12 discriminator 1
 249 01a0 13850400 		mv	a0,s1
 250 01a4 97000000 		call	_ZdlPv@plt
 250      E7800000 
 251              	.LVL30:
 252              	.L10:
  41:src/main.cpp  ****     *a6=9;
 253              		.loc 1 41 5 is_stmt 1
  41:src/main.cpp  ****     *a6=9;
 254              		.loc 1 41 20 is_stmt 0
 255 01ac 13058000 		li	a0,8
 256 01b0 97000000 		call	_Znwm@plt
 256      E7800000 
 257              	.LVL31:
  42:src/main.cpp  ****     __putc(*a6+'0');
GAS LISTING /tmp/cc7Tuaet.s 			page 8


 258              		.loc 1 42 5 is_stmt 1
  42:src/main.cpp  ****     __putc(*a6+'0');
 259              		.loc 1 42 8 is_stmt 0
 260 01b8 93079000 		li	a5,9
 261 01bc 2330F500 		sd	a5,0(a0)
  43:src/main.cpp  ****     __putc('\n');
 262              		.loc 1 43 5 is_stmt 1
  43:src/main.cpp  ****     __putc('\n');
 263              		.loc 1 43 11 is_stmt 0
 264 01c0 13059003 		li	a0,57
 265              	.LVL32:
 266 01c4 97000000 		call	__putc@plt
 266      E7800000 
 267              	.LVL33:
  44:src/main.cpp  **** }
 268              		.loc 1 44 5 is_stmt 1
  44:src/main.cpp  **** }
 269              		.loc 1 44 11 is_stmt 0
 270 01cc 1305A000 		li	a0,10
 271 01d0 97000000 		call	__putc@plt
 271      E7800000 
 272              	.LVL34:
  45:src/main.cpp  **** extern void userMain();
 273              		.loc 1 45 1
 274 01d8 83308102 		ld	ra,40(sp)
 275              		.cfi_restore 1
 276 01dc 03340102 		ld	s0,32(sp)
 277              		.cfi_restore 8
 278              		.cfi_def_cfa 2, 48
 279 01e0 83348101 		ld	s1,24(sp)
 280              		.cfi_restore 9
 281              	.LVL35:
 282 01e4 03390101 		ld	s2,16(sp)
 283              		.cfi_restore 18
 284              	.LVL36:
 285 01e8 83398100 		ld	s3,8(sp)
 286              		.cfi_restore 19
 287              	.LVL37:
 288 01ec 13010103 		addi	sp,sp,48
 289              		.cfi_def_cfa_offset 0
 290 01f0 67800000 		jr	ra
 291              		.cfi_endproc
 292              	.LFE30:
 294              		.section	.rodata.str1.8,"aMS",@progbits,1
 295              		.align	3
 296              	.LC0:
 297 0000 75736572 		.string	"user main start:\n"
 297      206D6169 
 297      6E207374 
 297      6172743A 
 297      0A00
 298 0012 00000000 		.align	3
 298      0000
 299              	.LC1:
 300 0018 75736572 		.string	"user main end:\n"
 300      206D6169 
 300      6E20656E 
GAS LISTING /tmp/cc7Tuaet.s 			page 9


 300      643A0A00 
 301              		.text
 302              		.align	2
 303              		.globl	_Z11userWrapperPv
 305              	_Z11userWrapperPv:
 306              	.LFB31:
  49:src/main.cpp  ****     printString("user main start:\n");
 307              		.loc 1 49 1 is_stmt 1
 308              		.cfi_startproc
 309              	.LVL38:
 310 01f4 130101FF 		addi	sp,sp,-16
 311              		.cfi_def_cfa_offset 16
 312 01f8 23341100 		sd	ra,8(sp)
 313 01fc 23308100 		sd	s0,0(sp)
 314              		.cfi_offset 1, -8
 315              		.cfi_offset 8, -16
 316 0200 13040101 		addi	s0,sp,16
 317              		.cfi_def_cfa 8, 0
  50:src/main.cpp  ****     userMain();
 318              		.loc 1 50 5
  50:src/main.cpp  ****     userMain();
 319              		.loc 1 50 16 is_stmt 0
 320 0204 17050000 		lla	a0,.LC0
 320      13050500 
 321              	.LVL39:
 322 020c 97000000 		call	_Z11printStringPKc@plt
 322      E7800000 
 323              	.LVL40:
  51:src/main.cpp  ****     printString("user main end:\n");
 324              		.loc 1 51 5 is_stmt 1
  51:src/main.cpp  ****     printString("user main end:\n");
 325              		.loc 1 51 13 is_stmt 0
 326 0214 97000000 		call	_Z8userMainv@plt
 326      E7800000 
 327              	.LVL41:
  52:src/main.cpp  **** }
 328              		.loc 1 52 5 is_stmt 1
  52:src/main.cpp  **** }
 329              		.loc 1 52 16 is_stmt 0
 330 021c 17050000 		lla	a0,.LC1
 330      13050500 
 331 0224 97000000 		call	_Z11printStringPKc@plt
 331      E7800000 
 332              	.LVL42:
  53:src/main.cpp  **** 
 333              		.loc 1 53 1
 334 022c 83308100 		ld	ra,8(sp)
 335              		.cfi_restore 1
 336 0230 03340100 		ld	s0,0(sp)
 337              		.cfi_restore 8
 338              		.cfi_def_cfa 2, 16
 339 0234 13010101 		addi	sp,sp,16
 340              		.cfi_def_cfa_offset 0
 341 0238 67800000 		jr	ra
 342              		.cfi_endproc
 343              	.LFE31:
 345              		.section	.rodata.str1.8
GAS LISTING /tmp/cc7Tuaet.s 			page 10


 346              		.align	3
 347              	.LC2:
 348 0028 46696E69 		.string	"Finished\n"
 348      73686564 
 348      0A00
 349              		.text
 350              		.align	2
 351              		.globl	main
 353              	main:
 354              	.LFB35:
  75:src/main.cpp  **** 
  76:src/main.cpp  **** 
  77:src/main.cpp  **** 
  78:src/main.cpp  **** 
  79:src/main.cpp  **** 
  80:src/main.cpp  **** void main() {
 355              		.loc 1 80 13 is_stmt 1
 356              		.cfi_startproc
 357 023c 130101FC 		addi	sp,sp,-64
 358              		.cfi_def_cfa_offset 64
 359 0240 233C1102 		sd	ra,56(sp)
 360 0244 23388102 		sd	s0,48(sp)
 361 0248 23349102 		sd	s1,40(sp)
 362 024c 23302103 		sd	s2,32(sp)
 363              		.cfi_offset 1, -8
 364              		.cfi_offset 8, -16
 365              		.cfi_offset 9, -24
 366              		.cfi_offset 18, -32
 367 0250 13040104 		addi	s0,sp,64
 368              		.cfi_def_cfa 8, 0
  81:src/main.cpp  ****     Riscv::set_stvec((uint64)Riscv::SupervisorTrap);
 369              		.loc 1 81 5
 370              		.loc 1 81 21 is_stmt 0
 371 0254 97070000 		la	a5,_ZN5Riscv14SupervisorTrapEv
 371      83B70700 
 372              	.LVL43:
 373              	.LBB12:
 374              	.LBB13:
 375              		.file 2 "src/../h/Riscv.hpp"
   1:src/../h/Riscv.hpp **** //
   2:src/../h/Riscv.hpp **** // Created by os on 9/8/25.
   3:src/../h/Riscv.hpp **** //
   4:src/../h/Riscv.hpp **** 
   5:src/../h/Riscv.hpp **** #ifndef PROJECT_BASE_V1_1_COPY_RISCV_HPP
   6:src/../h/Riscv.hpp **** #define PROJECT_BASE_V1_1_COPY_RISCV_HPP
   7:src/../h/Riscv.hpp **** #include "../lib/hw.h"
   8:src/../h/Riscv.hpp **** 
   9:src/../h/Riscv.hpp **** class Riscv {
  10:src/../h/Riscv.hpp **** public:
  11:src/../h/Riscv.hpp ****     static void set_stvec(uint64 stvec);
  12:src/../h/Riscv.hpp ****     static void set_sepc(uint64 sepc);
  13:src/../h/Riscv.hpp ****     static uint64 get_sepc();
  14:src/../h/Riscv.hpp ****     static void set_sstatus(uint64 sstatus);
  15:src/../h/Riscv.hpp ****     static uint64 get_sstatus();
  16:src/../h/Riscv.hpp ****     static uint64 get_scause();
  17:src/../h/Riscv.hpp ****     static uint64 get_stval();
  18:src/../h/Riscv.hpp ****     static void ms_sstatus(uint64 mask);
GAS LISTING /tmp/cc7Tuaet.s 			page 11


  19:src/../h/Riscv.hpp ****     static void mc_sstatus(uint64 mask);
  20:src/../h/Riscv.hpp ****     static void mc_sip(uint64 mask);
  21:src/../h/Riscv.hpp ****     static void ms_sie(uint64 mask);
  22:src/../h/Riscv.hpp ****     enum BitMaskSstatus
  23:src/../h/Riscv.hpp ****     {
  24:src/../h/Riscv.hpp ****         SSTATUS_SIE=(1UL<<1),
  25:src/../h/Riscv.hpp ****         SSTATUS_SPIE=(1UL<<5),
  26:src/../h/Riscv.hpp ****         SSTATUS_SPP=(1UL<<8)
  27:src/../h/Riscv.hpp ****     };
  28:src/../h/Riscv.hpp ****     enum BitMaskSip: uint64
  29:src/../h/Riscv.hpp ****     {
  30:src/../h/Riscv.hpp ****         SIP_SSIP=(1UL<<1),
  31:src/../h/Riscv.hpp ****         SIP_STIP=(1UL<<5),
  32:src/../h/Riscv.hpp ****         SIP_SEIP=(1UL<<9)
  33:src/../h/Riscv.hpp ****     };
  34:src/../h/Riscv.hpp ****     enum BitMaskSie: uint64
  35:src/../h/Riscv.hpp ****     {
  36:src/../h/Riscv.hpp ****         SIE_SSIE=(1UL<<1),
  37:src/../h/Riscv.hpp ****         SIE_SEIE=(1UL<<9)
  38:src/../h/Riscv.hpp ****     };
  39:src/../h/Riscv.hpp **** 
  40:src/../h/Riscv.hpp **** 
  41:src/../h/Riscv.hpp ****     static void SupervisorTrap();
  42:src/../h/Riscv.hpp **** 
  43:src/../h/Riscv.hpp ****     static void restorePrivilege();
  44:src/../h/Riscv.hpp ****     static void popSppSpie();
  45:src/../h/Riscv.hpp **** 
  46:src/../h/Riscv.hpp **** 
  47:src/../h/Riscv.hpp **** 
  48:src/../h/Riscv.hpp ****     static void SupervisorTrapHandler();
  49:src/../h/Riscv.hpp **** };
  50:src/../h/Riscv.hpp **** 
  51:src/../h/Riscv.hpp **** 
  52:src/../h/Riscv.hpp **** inline void Riscv::set_stvec(uint64 stvec) {
  53:src/../h/Riscv.hpp ****     __asm__ volatile ("csrw stvec, %[x]" :: [x] "r" (stvec));
 376              		.loc 2 53 5 is_stmt 1
 377              		.loc 2 53 61 is_stmt 0
 378              	#APP
 379              	# 53 "src/../h/Riscv.hpp" 1
  54              	}
 380              		csrw stvec, a5
 381              	# 0 "" 2
 382              	.LVL44:
 383              	#NO_APP
 384              	.LBE13:
 385              	.LBE12:
  82:src/main.cpp  ****     //AllocatorTest();
  83:src/main.cpp  **** 
  84:src/main.cpp  **** 
  85:src/main.cpp  **** 
  86:src/main.cpp  ****      thread_t coroutines[4];
 386              		.loc 1 86 6 is_stmt 1
  87:src/main.cpp  ****      thread_create(&coroutines[0],nullptr,nullptr);
 387              		.loc 1 87 6
 388              		.loc 1 87 19 is_stmt 0
 389 0260 13060000 		li	a2,0
 390 0264 93050000 		li	a1,0
GAS LISTING /tmp/cc7Tuaet.s 			page 12


 391 0268 130504FC 		addi	a0,s0,-64
 392 026c 97000000 		call	_Z13thread_createPP3TCBPFvPvES2_@plt
 392      E7800000 
 393              	.LVL45:
  88:src/main.cpp  ****      thread_create(&coroutines[1],WorkerAWrapper,nullptr);
 394              		.loc 1 88 6 is_stmt 1
 395              		.loc 1 88 19 is_stmt 0
 396 0274 13060000 		li	a2,0
 397 0278 97050000 		lla	a1,_Z14WorkerAWrapperPv
 397      93850500 
 398 0280 130584FC 		addi	a0,s0,-56
 399 0284 97000000 		call	_Z13thread_createPP3TCBPFvPvES2_@plt
 399      E7800000 
 400              	.LVL46:
  89:src/main.cpp  ****      thread_create(&coroutines[2],WorkerBWrapper,nullptr);
 401              		.loc 1 89 6 is_stmt 1
 402              		.loc 1 89 19 is_stmt 0
 403 028c 13060000 		li	a2,0
 404 0290 97050000 		lla	a1,_Z14WorkerBWrapperPv
 404      93850500 
 405 0298 130504FD 		addi	a0,s0,-48
 406 029c 97000000 		call	_Z13thread_createPP3TCBPFvPvES2_@plt
 406      E7800000 
 407              	.LVL47:
  90:src/main.cpp  ****      thread_create(&coroutines[3],WorkerCWrapper,nullptr);
 408              		.loc 1 90 6 is_stmt 1
 409              		.loc 1 90 19 is_stmt 0
 410 02a4 13060000 		li	a2,0
 411 02a8 97050000 		lla	a1,_Z14WorkerCWrapperPv
 411      93850500 
 412 02b0 130584FD 		addi	a0,s0,-40
 413 02b4 97000000 		call	_Z13thread_createPP3TCBPFvPvES2_@plt
 413      E7800000 
 414              	.LVL48:
 415              	.L16:
  91:src/main.cpp  **** 
  92:src/main.cpp  **** 
  93:src/main.cpp  ****      while (Scheduler::getSize()>0 ) {
 416              		.loc 1 93 6 is_stmt 1
 417              		.loc 1 93 33
 418              	.LBB14:
 419              	.LBB15:
 420              		.file 3 "src/../h/../h/Scheduler.hpp"
   1:src/../h/../h/Scheduler.hpp **** //
   2:src/../h/../h/Scheduler.hpp **** // Created by os on 9/23/25.
   3:src/../h/../h/Scheduler.hpp **** //
   4:src/../h/../h/Scheduler.hpp **** 
   5:src/../h/../h/Scheduler.hpp **** #ifndef PROJECT_BASE_V1_1_COPY_SCHEDULER_HPP
   6:src/../h/../h/Scheduler.hpp **** #define PROJECT_BASE_V1_1_COPY_SCHEDULER_HPP
   7:src/../h/../h/Scheduler.hpp **** 
   8:src/../h/../h/Scheduler.hpp **** 
   9:src/../h/../h/Scheduler.hpp **** #include "List.hpp"
  10:src/../h/../h/Scheduler.hpp **** 
  11:src/../h/../h/Scheduler.hpp **** class TCB;
  12:src/../h/../h/Scheduler.hpp **** 
  13:src/../h/../h/Scheduler.hpp **** class Scheduler
  14:src/../h/../h/Scheduler.hpp **** {
GAS LISTING /tmp/cc7Tuaet.s 			page 13


  15:src/../h/../h/Scheduler.hpp **** public:
  16:src/../h/../h/Scheduler.hpp **** 
  17:src/../h/../h/Scheduler.hpp ****     static void put(TCB* x);
  18:src/../h/../h/Scheduler.hpp ****     static TCB* get();
  19:src/../h/../h/Scheduler.hpp **** 
  20:src/../h/../h/Scheduler.hpp ****     static int getSize() { return queue.size; }
 421              		.loc 3 20 28
 422              		.loc 3 20 41 is_stmt 0
 423 02bc 97070000 		la	a5,_ZN9Scheduler5queueE
 423      83B70700 
 424 02c4 83A70701 		lw	a5,16(a5)
 425              	.LBE15:
 426              	.LBE14:
 427              		.loc 1 93 33
 428 02c8 6358F000 		blez	a5,.L20
  94:src/main.cpp  ****          thread_dispatch();
 429              		.loc 1 94 10 is_stmt 1
 430              		.loc 1 94 25 is_stmt 0
 431 02cc 97000000 		call	_Z15thread_dispatchv@plt
 431      E7800000 
 432              	.LVL49:
 433 02d4 6FF09FFE 		j	.L16
 434              	.L20:
 435              	.LBB16:
  95:src/main.cpp  ****      }
  96:src/main.cpp  **** 
  97:src/main.cpp  ****      for (auto coroutine: coroutines) { delete coroutine; }
 436              		.loc 1 97 27
 437 02d8 930404FC 		addi	s1,s0,-64
 438 02dc 6F004002 		j	.L15
 439              	.LVL50:
 440              	.L22:
 441              	.LBB17:
 442              	.LBB18:
 443              		.file 4 "src/../h/TCB.hpp"
   1:src/../h/TCB.hpp **** //
   2:src/../h/TCB.hpp **** // Created by os on 9/23/25.
   3:src/../h/TCB.hpp **** //
   4:src/../h/TCB.hpp **** 
   5:src/../h/TCB.hpp **** #ifndef PROJECT_BASE_V1_1_COPY_TCB_HPP
   6:src/../h/TCB.hpp **** #define PROJECT_BASE_V1_1_COPY_TCB_HPP
   7:src/../h/TCB.hpp **** #include "../lib/hw.h"
   8:src/../h/TCB.hpp **** #include "../h/Scheduler.hpp"
   9:src/../h/TCB.hpp **** #include "../h/MemoryAllocator.hpp"
  10:src/../h/TCB.hpp **** 
  11:src/../h/TCB.hpp **** class TCB
  12:src/../h/TCB.hpp **** {
  13:src/../h/TCB.hpp **** public:
  14:src/../h/TCB.hpp ****     void* operator new(size_t size)
  15:src/../h/TCB.hpp **** {
  16:src/../h/TCB.hpp ****     return MemoryAllocator::Instance()->mem_alloc(size);
  17:src/../h/TCB.hpp **** }
  18:src/../h/TCB.hpp **** 
  19:src/../h/TCB.hpp ****     void operator delete(void* ptr)
  20:src/../h/TCB.hpp ****     {
  21:src/../h/TCB.hpp ****         return MemoryAllocator::Instance()->mem_free(ptr);
  22:src/../h/TCB.hpp ****     }
GAS LISTING /tmp/cc7Tuaet.s 			page 14


  23:src/../h/TCB.hpp **** 
  24:src/../h/TCB.hpp **** 
  25:src/../h/TCB.hpp ****     using Body=void(*)(void*);
  26:src/../h/TCB.hpp **** 
  27:src/../h/TCB.hpp ****     ~TCB()
  28:src/../h/TCB.hpp ****     {
  29:src/../h/TCB.hpp ****         delete stack;
 444              		.loc 4 29 16
 445 02e0 97000000 		call	_ZdlPv@plt
 445      E7800000 
 446              	.LVL51:
 447              	.L19:
 448              	.LBE18:
 449              	.LBE17:
 450              	.LBB20:
 451              	.LBB21:
  21:src/../h/TCB.hpp ****     }
 452              		.loc 4 21 9 is_stmt 1
  21:src/../h/TCB.hpp ****     }
 453              		.loc 4 21 53 is_stmt 0
 454 02e8 97000000 		call	_ZN15MemoryAllocator8InstanceEv@plt
 454      E7800000 
 455              	.LVL52:
 456 02f0 93050900 		mv	a1,s2
 457 02f4 97000000 		call	_ZN15MemoryAllocator8mem_freeEPv@plt
 457      E7800000 
 458              	.LVL53:
 459              	.L18:
 460              	.LBE21:
 461              	.LBE20:
 462              		.loc 1 97 6 is_stmt 1 discriminator 4
 463 02fc 93848400 		addi	s1,s1,8
 464              	.LVL54:
 465              	.L15:
 466              		.loc 1 97 27 discriminator 5
 467 0300 930704FE 		addi	a5,s0,-32
 468 0304 638CF400 		beq	s1,a5,.L17
 469              		.loc 1 97 16 is_stmt 0 discriminator 2
 470 0308 03B90400 		ld	s2,0(s1)
 471              	.LVL55:
 472              		.loc 1 97 41 is_stmt 1 discriminator 2
 473              		.loc 1 97 57 is_stmt 0 discriminator 2
 474 030c E30809FE 		beqz	s2,.L18
 475              	.LVL56:
 476              	.LBB22:
 477              	.LBB19:
 478              		.loc 4 29 9 is_stmt 1
 479              		.loc 4 29 16 is_stmt 0
 480 0310 03358900 		ld	a0,8(s2)
 481              		.loc 4 29 21
 482 0314 E31605FC 		bnez	a0,.L22
 483 0318 6FF01FFD 		j	.L19
 484              	.LVL57:
 485              	.L17:
 486              	.LBE19:
 487              	.LBE22:
 488              	.LBE16:
GAS LISTING /tmp/cc7Tuaet.s 			page 15


  98:src/main.cpp  **** 
  99:src/main.cpp  ****      AllocatorTest();
 489              		.loc 1 99 6 is_stmt 1
 490              		.loc 1 99 19 is_stmt 0
 491 031c 97000000 		call	_Z13AllocatorTestv
 491      E7800000 
 492              	.LVL58:
 100:src/main.cpp  ****      printString("Finished\n");
 493              		.loc 1 100 6 is_stmt 1
 494              		.loc 1 100 17 is_stmt 0
 495 0324 17050000 		lla	a0,.LC2
 495      13050500 
 496 032c 97000000 		call	_Z11printStringPKc@plt
 496      E7800000 
 497              	.LVL59:
 101:src/main.cpp  **** 
 102:src/main.cpp  ****     //printString("OK\n");
 103:src/main.cpp  **** 
 104:src/main.cpp  **** 
 105:src/main.cpp  ****     // size_t pom1= mem_get_free_space();
 106:src/main.cpp  ****     // printString("Free mem: ");
 107:src/main.cpp  ****     // printInteger(pom1);
 108:src/main.cpp  ****     // printString("\n");
 109:src/main.cpp  ****     // size_t pom2= mem_get_largest_free_block();
 110:src/main.cpp  ****     // printString("Largest free block: ");
 111:src/main.cpp  ****     // printInteger(pom2);
 112:src/main.cpp  ****     // printString("\n");
 113:src/main.cpp  **** }
 498              		.loc 1 113 1
 499 0334 83308103 		ld	ra,56(sp)
 500              		.cfi_restore 1
 501 0338 03340103 		ld	s0,48(sp)
 502              		.cfi_restore 8
 503              		.cfi_def_cfa 2, 64
 504 033c 83348102 		ld	s1,40(sp)
 505              		.cfi_restore 9
 506              	.LVL60:
 507 0340 03390102 		ld	s2,32(sp)
 508              		.cfi_restore 18
 509 0344 13010104 		addi	sp,sp,64
 510              		.cfi_def_cfa_offset 0
 511 0348 67800000 		jr	ra
 512              		.cfi_endproc
 513              	.LFE35:
 515              	.Letext0:
 516              		.file 5 "src/../lib/hw.h"
 517              		.file 6 "src/../h/MemoryAllocator.hpp"
 518              		.file 7 "src/../h/../h/List.hpp"
 519              		.file 8 "src/../h/syscall_c.hpp"
 520              		.file 9 "src/../h/syscall_cpp.hpp"
 521              		.file 10 "src/../h/print.hpp"
 522              		.file 11 "src/../h/workers.hpp"
 523              		.file 12 "src/../lib/console.h"
GAS LISTING /tmp/cc7Tuaet.s 			page 16


DEFINED SYMBOLS
                            *ABS*:0000000000000000 main.cpp
     /tmp/cc7Tuaet.s:9      .text:0000000000000000 _Z14WorkerAWrapperPv
     /tmp/cc7Tuaet.s:13     .text:0000000000000000 .L0 
     /tmp/cc7Tuaet.s:15     .text:0000000000000000 .L0 
     /tmp/cc7Tuaet.s:16     .text:0000000000000004 .L0 
     /tmp/cc7Tuaet.s:19     .text:000000000000000c .L0 
     /tmp/cc7Tuaet.s:20     .text:000000000000000c .L0 
     /tmp/cc7Tuaet.s:22     .text:0000000000000010 .L0 
     /tmp/cc7Tuaet.s:24     .text:0000000000000010 .L0 
     /tmp/cc7Tuaet.s:25     .text:0000000000000010 .L0 
     /tmp/cc7Tuaet.s:28     .text:0000000000000018 .L0 
     /tmp/cc7Tuaet.s:29     .text:000000000000001c .L0 
     /tmp/cc7Tuaet.s:31     .text:0000000000000020 .L0 
     /tmp/cc7Tuaet.s:32     .text:0000000000000020 .L0 
     /tmp/cc7Tuaet.s:34     .text:0000000000000024 .L0 
     /tmp/cc7Tuaet.s:36     .text:0000000000000028 .L0 
     /tmp/cc7Tuaet.s:42     .text:0000000000000028 _Z14WorkerBWrapperPv
     /tmp/cc7Tuaet.s:45     .text:0000000000000028 .L0 
     /tmp/cc7Tuaet.s:47     .text:0000000000000028 .L0 
     /tmp/cc7Tuaet.s:48     .text:000000000000002c .L0 
     /tmp/cc7Tuaet.s:51     .text:0000000000000034 .L0 
     /tmp/cc7Tuaet.s:52     .text:0000000000000034 .L0 
     /tmp/cc7Tuaet.s:54     .text:0000000000000038 .L0 
     /tmp/cc7Tuaet.s:56     .text:0000000000000038 .L0 
     /tmp/cc7Tuaet.s:57     .text:0000000000000038 .L0 
     /tmp/cc7Tuaet.s:60     .text:0000000000000040 .L0 
     /tmp/cc7Tuaet.s:61     .text:0000000000000044 .L0 
     /tmp/cc7Tuaet.s:63     .text:0000000000000048 .L0 
     /tmp/cc7Tuaet.s:64     .text:0000000000000048 .L0 
     /tmp/cc7Tuaet.s:66     .text:000000000000004c .L0 
     /tmp/cc7Tuaet.s:68     .text:0000000000000050 .L0 
     /tmp/cc7Tuaet.s:74     .text:0000000000000050 _Z14WorkerCWrapperPv
     /tmp/cc7Tuaet.s:77     .text:0000000000000050 .L0 
     /tmp/cc7Tuaet.s:79     .text:0000000000000050 .L0 
     /tmp/cc7Tuaet.s:80     .text:0000000000000054 .L0 
     /tmp/cc7Tuaet.s:83     .text:000000000000005c .L0 
     /tmp/cc7Tuaet.s:84     .text:000000000000005c .L0 
     /tmp/cc7Tuaet.s:86     .text:0000000000000060 .L0 
     /tmp/cc7Tuaet.s:88     .text:0000000000000060 .L0 
     /tmp/cc7Tuaet.s:89     .text:0000000000000060 .L0 
     /tmp/cc7Tuaet.s:92     .text:0000000000000068 .L0 
     /tmp/cc7Tuaet.s:93     .text:000000000000006c .L0 
     /tmp/cc7Tuaet.s:95     .text:0000000000000070 .L0 
     /tmp/cc7Tuaet.s:96     .text:0000000000000070 .L0 
     /tmp/cc7Tuaet.s:98     .text:0000000000000074 .L0 
     /tmp/cc7Tuaet.s:100    .text:0000000000000078 .L0 
     /tmp/cc7Tuaet.s:106    .text:0000000000000078 _Z13AllocatorTestv
     /tmp/cc7Tuaet.s:109    .text:0000000000000078 .L0 
     /tmp/cc7Tuaet.s:110    .text:0000000000000078 .L0 
     /tmp/cc7Tuaet.s:111    .text:000000000000007c .L0 
     /tmp/cc7Tuaet.s:117    .text:0000000000000090 .L0 
     /tmp/cc7Tuaet.s:118    .text:0000000000000090 .L0 
     /tmp/cc7Tuaet.s:119    .text:0000000000000090 .L0 
     /tmp/cc7Tuaet.s:120    .text:0000000000000090 .L0 
     /tmp/cc7Tuaet.s:121    .text:0000000000000090 .L0 
     /tmp/cc7Tuaet.s:123    .text:0000000000000094 .L0 
GAS LISTING /tmp/cc7Tuaet.s 			page 17


     /tmp/cc7Tuaet.s:125    .text:0000000000000094 .L0 
     /tmp/cc7Tuaet.s:126    .text:0000000000000094 .L0 
     /tmp/cc7Tuaet.s:132    .text:00000000000000a4 .L0 
     /tmp/cc7Tuaet.s:133    .text:00000000000000a4 .L0 
     /tmp/cc7Tuaet.s:136    .text:00000000000000ac .L0 
     /tmp/cc7Tuaet.s:137    .text:00000000000000ac .L0 
     /tmp/cc7Tuaet.s:142    .text:00000000000000b8 .L0 
     /tmp/cc7Tuaet.s:143    .text:00000000000000b8 .L0 
     /tmp/cc7Tuaet.s:147    .text:00000000000000c4 .L0 
     /tmp/cc7Tuaet.s:148    .text:00000000000000c4 .L0 
     /tmp/cc7Tuaet.s:152    .text:00000000000000d0 .L0 
     /tmp/cc7Tuaet.s:153    .text:00000000000000d0 .L0 
     /tmp/cc7Tuaet.s:156    .text:00000000000000d8 .L0 
     /tmp/cc7Tuaet.s:157    .text:00000000000000d8 .L0 
     /tmp/cc7Tuaet.s:162    .text:00000000000000e4 .L0 
     /tmp/cc7Tuaet.s:163    .text:00000000000000e4 .L0 
     /tmp/cc7Tuaet.s:167    .text:00000000000000f0 .L0 
     /tmp/cc7Tuaet.s:168    .text:00000000000000f0 .L0 
     /tmp/cc7Tuaet.s:174    .text:0000000000000100 .L0 
     /tmp/cc7Tuaet.s:175    .text:0000000000000100 .L0 
     /tmp/cc7Tuaet.s:178    .text:0000000000000108 .L0 
     /tmp/cc7Tuaet.s:179    .text:0000000000000108 .L0 
     /tmp/cc7Tuaet.s:184    .text:0000000000000114 .L0 
     /tmp/cc7Tuaet.s:185    .text:0000000000000114 .L0 
     /tmp/cc7Tuaet.s:189    .text:0000000000000120 .L0 
     /tmp/cc7Tuaet.s:190    .text:0000000000000120 .L0 
     /tmp/cc7Tuaet.s:196    .text:0000000000000130 .L0 
     /tmp/cc7Tuaet.s:197    .text:0000000000000130 .L0 
     /tmp/cc7Tuaet.s:200    .text:0000000000000138 .L0 
     /tmp/cc7Tuaet.s:201    .text:0000000000000138 .L0 
     /tmp/cc7Tuaet.s:205    .text:0000000000000144 .L0 
     /tmp/cc7Tuaet.s:206    .text:0000000000000144 .L0 
     /tmp/cc7Tuaet.s:210    .text:0000000000000150 .L0 
     /tmp/cc7Tuaet.s:211    .text:0000000000000150 .L0 
     /tmp/cc7Tuaet.s:215    .text:000000000000015c .L0 
     /tmp/cc7Tuaet.s:216    .text:000000000000015c .L0 
     /tmp/cc7Tuaet.s:219    .text:0000000000000164 .L0 
     /tmp/cc7Tuaet.s:220    .text:0000000000000164 .L0 
     /tmp/cc7Tuaet.s:225    .text:0000000000000170 .L0 
     /tmp/cc7Tuaet.s:226    .text:0000000000000170 .L0 
     /tmp/cc7Tuaet.s:230    .text:000000000000017c .L0 
     /tmp/cc7Tuaet.s:231    .text:000000000000017c .L0 
     /tmp/cc7Tuaet.s:233    .text:0000000000000180 .L0 
     /tmp/cc7Tuaet.s:238    .text:000000000000018c .L0 
     /tmp/cc7Tuaet.s:239    .text:000000000000018c .L0 
     /tmp/cc7Tuaet.s:241    .text:0000000000000190 .L0 
     /tmp/cc7Tuaet.s:246    .text:000000000000019c .L0 
     /tmp/cc7Tuaet.s:247    .text:000000000000019c .L0 
     /tmp/cc7Tuaet.s:249    .text:00000000000001a0 .L0 
     /tmp/cc7Tuaet.s:254    .text:00000000000001ac .L0 
     /tmp/cc7Tuaet.s:255    .text:00000000000001ac .L0 
     /tmp/cc7Tuaet.s:259    .text:00000000000001b8 .L0 
     /tmp/cc7Tuaet.s:260    .text:00000000000001b8 .L0 
     /tmp/cc7Tuaet.s:263    .text:00000000000001c0 .L0 
     /tmp/cc7Tuaet.s:264    .text:00000000000001c0 .L0 
     /tmp/cc7Tuaet.s:269    .text:00000000000001cc .L0 
     /tmp/cc7Tuaet.s:270    .text:00000000000001cc .L0 
GAS LISTING /tmp/cc7Tuaet.s 			page 18


     /tmp/cc7Tuaet.s:274    .text:00000000000001d8 .L0 
     /tmp/cc7Tuaet.s:275    .text:00000000000001dc .L0 
     /tmp/cc7Tuaet.s:277    .text:00000000000001e0 .L0 
     /tmp/cc7Tuaet.s:278    .text:00000000000001e0 .L0 
     /tmp/cc7Tuaet.s:280    .text:00000000000001e4 .L0 
     /tmp/cc7Tuaet.s:283    .text:00000000000001e8 .L0 
     /tmp/cc7Tuaet.s:286    .text:00000000000001ec .L0 
     /tmp/cc7Tuaet.s:289    .text:00000000000001f0 .L0 
     /tmp/cc7Tuaet.s:291    .text:00000000000001f4 .L0 
     /tmp/cc7Tuaet.s:305    .text:00000000000001f4 _Z11userWrapperPv
     /tmp/cc7Tuaet.s:308    .text:00000000000001f4 .L0 
     /tmp/cc7Tuaet.s:310    .text:00000000000001f4 .L0 
     /tmp/cc7Tuaet.s:311    .text:00000000000001f8 .L0 
     /tmp/cc7Tuaet.s:314    .text:0000000000000200 .L0 
     /tmp/cc7Tuaet.s:315    .text:0000000000000200 .L0 
     /tmp/cc7Tuaet.s:317    .text:0000000000000204 .L0 
     /tmp/cc7Tuaet.s:319    .text:0000000000000204 .L0 
     /tmp/cc7Tuaet.s:320    .text:0000000000000204 .L0 
     /tmp/cc7Tuaet.s:325    .text:0000000000000214 .L0 
     /tmp/cc7Tuaet.s:326    .text:0000000000000214 .L0 
     /tmp/cc7Tuaet.s:329    .text:000000000000021c .L0 
     /tmp/cc7Tuaet.s:330    .text:000000000000021c .L0 
     /tmp/cc7Tuaet.s:334    .text:000000000000022c .L0 
     /tmp/cc7Tuaet.s:335    .text:0000000000000230 .L0 
     /tmp/cc7Tuaet.s:337    .text:0000000000000234 .L0 
     /tmp/cc7Tuaet.s:338    .text:0000000000000234 .L0 
     /tmp/cc7Tuaet.s:340    .text:0000000000000238 .L0 
     /tmp/cc7Tuaet.s:342    .text:000000000000023c .L0 
     /tmp/cc7Tuaet.s:353    .text:000000000000023c main
     /tmp/cc7Tuaet.s:356    .text:000000000000023c .L0 
     /tmp/cc7Tuaet.s:357    .text:000000000000023c .L0 
     /tmp/cc7Tuaet.s:358    .text:0000000000000240 .L0 
     /tmp/cc7Tuaet.s:363    .text:0000000000000250 .L0 
     /tmp/cc7Tuaet.s:364    .text:0000000000000250 .L0 
     /tmp/cc7Tuaet.s:365    .text:0000000000000250 .L0 
     /tmp/cc7Tuaet.s:366    .text:0000000000000250 .L0 
     /tmp/cc7Tuaet.s:368    .text:0000000000000254 .L0 
     /tmp/cc7Tuaet.s:370    .text:0000000000000254 .L0 
     /tmp/cc7Tuaet.s:371    .text:0000000000000254 .L0 
     /tmp/cc7Tuaet.s:377    .text:000000000000025c .L0 
  src/../h/Riscv.hpp:53     .text:000000000000025c .L0 
     /tmp/cc7Tuaet.s:387    .text:0000000000000260 .L0 
     /tmp/cc7Tuaet.s:388    .text:0000000000000260 .L0 
     /tmp/cc7Tuaet.s:389    .text:0000000000000260 .L0 
     /tmp/cc7Tuaet.s:395    .text:0000000000000274 .L0 
     /tmp/cc7Tuaet.s:396    .text:0000000000000274 .L0 
     /tmp/cc7Tuaet.s:402    .text:000000000000028c .L0 
     /tmp/cc7Tuaet.s:403    .text:000000000000028c .L0 
     /tmp/cc7Tuaet.s:409    .text:00000000000002a4 .L0 
     /tmp/cc7Tuaet.s:410    .text:00000000000002a4 .L0 
     /tmp/cc7Tuaet.s:417    .text:00000000000002bc .L0 
     /tmp/cc7Tuaet.s:421    .text:00000000000002bc .L0 
     /tmp/cc7Tuaet.s:422    .text:00000000000002bc .L0 
     /tmp/cc7Tuaet.s:423    .text:00000000000002bc .L0 
     /tmp/cc7Tuaet.s:428    .text:00000000000002c8 .L0 
     /tmp/cc7Tuaet.s:430    .text:00000000000002cc .L0 
     /tmp/cc7Tuaet.s:431    .text:00000000000002cc .L0 
GAS LISTING /tmp/cc7Tuaet.s 			page 19


     /tmp/cc7Tuaet.s:437    .text:00000000000002d8 .L0 
     /tmp/cc7Tuaet.s:445    .text:00000000000002e0 .L0 
     /tmp/cc7Tuaet.s:453    .text:00000000000002e8 .L0 
     /tmp/cc7Tuaet.s:454    .text:00000000000002e8 .L0 
     /tmp/cc7Tuaet.s:463    .text:00000000000002fc .L0 
     /tmp/cc7Tuaet.s:467    .text:0000000000000300 .L0 
     /tmp/cc7Tuaet.s:470    .text:0000000000000308 .L0 
     /tmp/cc7Tuaet.s:473    .text:000000000000030c .L0 
     /tmp/cc7Tuaet.s:474    .text:000000000000030c .L0 
     /tmp/cc7Tuaet.s:479    .text:0000000000000310 .L0 
     /tmp/cc7Tuaet.s:480    .text:0000000000000310 .L0 
     /tmp/cc7Tuaet.s:482    .text:0000000000000314 .L0 
     /tmp/cc7Tuaet.s:490    .text:000000000000031c .L0 
     /tmp/cc7Tuaet.s:491    .text:000000000000031c .L0 
     /tmp/cc7Tuaet.s:494    .text:0000000000000324 .L0 
     /tmp/cc7Tuaet.s:495    .text:0000000000000324 .L0 
     /tmp/cc7Tuaet.s:499    .text:0000000000000334 .L0 
     /tmp/cc7Tuaet.s:500    .text:0000000000000338 .L0 
     /tmp/cc7Tuaet.s:502    .text:000000000000033c .L0 
     /tmp/cc7Tuaet.s:503    .text:000000000000033c .L0 
     /tmp/cc7Tuaet.s:505    .text:0000000000000340 .L0 
     /tmp/cc7Tuaet.s:508    .text:0000000000000344 .L0 
     /tmp/cc7Tuaet.s:510    .text:0000000000000348 .L0 
     /tmp/cc7Tuaet.s:512    .text:000000000000034c .L0 
     /tmp/cc7Tuaet.s:524    .text:000000000000034c .L0 
     /tmp/cc7Tuaet.s:296    .rodata.str1.8:0000000000000000 .LC0
     /tmp/cc7Tuaet.s:320    .text:0000000000000204 .L0 
     /tmp/cc7Tuaet.s:299    .rodata.str1.8:0000000000000018 .LC1
     /tmp/cc7Tuaet.s:330    .text:000000000000021c .L0 
     /tmp/cc7Tuaet.s:371    .text:0000000000000254 .L0 
     /tmp/cc7Tuaet.s:397    .text:0000000000000278 .L0 
     /tmp/cc7Tuaet.s:404    .text:0000000000000290 .L0 
     /tmp/cc7Tuaet.s:411    .text:00000000000002a8 .L0 
     /tmp/cc7Tuaet.s:423    .text:00000000000002bc .L0 
     /tmp/cc7Tuaet.s:347    .rodata.str1.8:0000000000000028 .LC2
     /tmp/cc7Tuaet.s:495    .text:0000000000000324 .L0 
     /tmp/cc7Tuaet.s:236    .text:000000000000018c .L8
     /tmp/cc7Tuaet.s:244    .text:000000000000019c .L9
     /tmp/cc7Tuaet.s:252    .text:00000000000001ac .L10
     /tmp/cc7Tuaet.s:434    .text:00000000000002d8 .L20
     /tmp/cc7Tuaet.s:415    .text:00000000000002bc .L16
     /tmp/cc7Tuaet.s:465    .text:0000000000000300 .L15
     /tmp/cc7Tuaet.s:485    .text:000000000000031c .L17
     /tmp/cc7Tuaet.s:459    .text:00000000000002fc .L18
     /tmp/cc7Tuaet.s:440    .text:00000000000002e0 .L22
     /tmp/cc7Tuaet.s:447    .text:00000000000002e8 .L19
     /tmp/cc7Tuaet.s:2048   .debug_abbrev:0000000000000000 .Ldebug_abbrev0
     /tmp/cc7Tuaet.s:3481   .debug_str:00000000000007ed .LASF146
     /tmp/cc7Tuaet.s:3299   .debug_str:00000000000002ad .LASF147
     /tmp/cc7Tuaet.s:3407   .debug_str:00000000000005ab .LASF148
     /tmp/cc7Tuaet.s:5      .text:0000000000000000 .Ltext0
     /tmp/cc7Tuaet.s:515    .text:000000000000034c .Letext0
     /tmp/cc7Tuaet.s:3217   .debug_line:0000000000000000 .Ldebug_line0
     /tmp/cc7Tuaet.s:3331   .debug_str:0000000000000393 .LASF0
     /tmp/cc7Tuaet.s:3353   .debug_str:0000000000000442 .LASF1
     /tmp/cc7Tuaet.s:3419   .debug_str:0000000000000620 .LASF2
     /tmp/cc7Tuaet.s:3433   .debug_str:000000000000069d .LASF4
GAS LISTING /tmp/cc7Tuaet.s 			page 20


     /tmp/cc7Tuaet.s:3333   .debug_str:00000000000003a0 .LASF3
     /tmp/cc7Tuaet.s:3231   .debug_str:000000000000003e .LASF5
     /tmp/cc7Tuaet.s:3391   .debug_str:0000000000000549 .LASF6
     /tmp/cc7Tuaet.s:3341   .debug_str:00000000000003ed .LASF7
     /tmp/cc7Tuaet.s:3307   .debug_str:00000000000002ce .LASF8
     /tmp/cc7Tuaet.s:3315   .debug_str:0000000000000315 .LASF9
     /tmp/cc7Tuaet.s:3259   .debug_str:0000000000000142 .LASF10
     /tmp/cc7Tuaet.s:3295   .debug_str:0000000000000291 .LASF11
     /tmp/cc7Tuaet.s:3271   .debug_str:000000000000018f .LASF12
     /tmp/cc7Tuaet.s:3257   .debug_str:0000000000000132 .LASF13
     /tmp/cc7Tuaet.s:3469   .debug_str:00000000000007a1 .LASF14
     /tmp/cc7Tuaet.s:3281   .debug_str:00000000000001e3 .LASF15
     /tmp/cc7Tuaet.s:3457   .debug_str:000000000000074f .LASF16
     /tmp/cc7Tuaet.s:3389   .debug_str:0000000000000539 .LASF27
     /tmp/cc7Tuaet.s:3297   .debug_str:00000000000002a0 .LASF39
     /tmp/cc7Tuaet.s:3351   .debug_str:000000000000043d .LASF17
     /tmp/cc7Tuaet.s:3261   .debug_str:0000000000000151 .LASF18
     /tmp/cc7Tuaet.s:3241   .debug_str:00000000000000a5 .LASF19
     /tmp/cc7Tuaet.s:3405   .debug_str:00000000000005a2 .LASF35
     /tmp/cc7Tuaet.s:3435   .debug_str:00000000000006a4 .LASF37
     /tmp/cc7Tuaet.s:3369   .debug_str:00000000000004b3 .LASF20
     /tmp/cc7Tuaet.s:3235   .debug_str:0000000000000055 .LASF22
     /tmp/cc7Tuaet.s:3471   .debug_str:00000000000007ad .LASF26
     /tmp/cc7Tuaet.s:3371   .debug_str:00000000000004bd .LASF28
     /tmp/cc7Tuaet.s:3345   .debug_str:0000000000000419 .LASF21
     /tmp/cc7Tuaet.s:3441   .debug_str:00000000000006d3 .LASF23
     /tmp/cc7Tuaet.s:3293   .debug_str:000000000000027d .LASF24
     /tmp/cc7Tuaet.s:3287   .debug_str:0000000000000245 .LASF25
     /tmp/cc7Tuaet.s:3239   .debug_str:000000000000008c .LASF29
     /tmp/cc7Tuaet.s:3361   .debug_str:000000000000046f .LASF30
     /tmp/cc7Tuaet.s:3285   .debug_str:000000000000020f .LASF31
     /tmp/cc7Tuaet.s:3465   .debug_str:000000000000078f .LASF32
     /tmp/cc7Tuaet.s:3529   .debug_str:0000000000000a0b .LASF33
     /tmp/cc7Tuaet.s:3305   .debug_str:00000000000002c4 .LASF34
     /tmp/cc7Tuaet.s:3325   .debug_str:000000000000035d .LASF59
     /tmp/cc7Tuaet.s:3515   .debug_str:000000000000098f .LASF149
     /tmp/cc7Tuaet.s:3439   .debug_str:00000000000006cb .LASF36
     /tmp/cc7Tuaet.s:3415   .debug_str:00000000000005fd .LASF38
     /tmp/cc7Tuaet.s:3289   .debug_str:0000000000000271 .LASF74
     /tmp/cc7Tuaet.s:3265   .debug_str:0000000000000169 .LASF40
     /tmp/cc7Tuaet.s:3523   .debug_str:00000000000009e4 .LASF41
     /tmp/cc7Tuaet.s:3311   .debug_str:00000000000002ff .LASF42
     /tmp/cc7Tuaet.s:3223   .debug_str:0000000000000010 .LASF43
     /tmp/cc7Tuaet.s:3359   .debug_str:0000000000000462 .LASF79
     /tmp/cc7Tuaet.s:3403   .debug_str:000000000000059d .LASF44
     /tmp/cc7Tuaet.s:3227   .debug_str:0000000000000028 .LASF45
     /tmp/cc7Tuaet.s:3467   .debug_str:0000000000000794 .LASF46
     /tmp/cc7Tuaet.s:3503   .debug_str:0000000000000916 .LASF47
     /tmp/cc7Tuaet.s:3387   .debug_str:0000000000000534 .LASF48
     /tmp/cc7Tuaet.s:3279   .debug_str:00000000000001da .LASF101
     /tmp/cc7Tuaet.s:3267   .debug_str:0000000000000171 .LASF103
     /tmp/cc7Tuaet.s:3451   .debug_str:000000000000073a .LASF49
     /tmp/cc7Tuaet.s:3335   .debug_str:00000000000003b2 .LASF50
     /tmp/cc7Tuaet.s:3473   .debug_str:00000000000007b6 .LASF51
     /tmp/cc7Tuaet.s:3375   .debug_str:00000000000004e3 .LASF52
     /tmp/cc7Tuaet.s:3329   .debug_str:000000000000038d .LASF53
     /tmp/cc7Tuaet.s:3233   .debug_str:0000000000000045 .LASF54
GAS LISTING /tmp/cc7Tuaet.s 			page 21


     /tmp/cc7Tuaet.s:3225   .debug_str:0000000000000020 .LASF55
     /tmp/cc7Tuaet.s:3385   .debug_str:0000000000000522 .LASF56
     /tmp/cc7Tuaet.s:3421   .debug_str:000000000000062e .LASF57
     /tmp/cc7Tuaet.s:3251   .debug_str:00000000000000fa .LASF58
     /tmp/cc7Tuaet.s:3479   .debug_str:00000000000007e5 .LASF150
     /tmp/cc7Tuaet.s:3513   .debug_str:0000000000000979 .LASF60
     /tmp/cc7Tuaet.s:3455   .debug_str:0000000000000746 .LASF61
     /tmp/cc7Tuaet.s:3519   .debug_str:00000000000009c6 .LASF62
     /tmp/cc7Tuaet.s:3383   .debug_str:000000000000051a .LASF63
     /tmp/cc7Tuaet.s:3487   .debug_str:00000000000008c6 .LASF64
     /tmp/cc7Tuaet.s:3221   .debug_str:000000000000000b .LASF65
     /tmp/cc7Tuaet.s:3255   .debug_str:0000000000000127 .LASF151
     /tmp/cc7Tuaet.s:3237   .debug_str:0000000000000076 .LASF152
     /tmp/cc7Tuaet.s:3497   .debug_str:00000000000008f1 .LASF66
     /tmp/cc7Tuaet.s:3489   .debug_str:00000000000008ce .LASF153
     /tmp/cc7Tuaet.s:3377   .debug_str:00000000000004fa .LASF67
     /tmp/cc7Tuaet.s:3373   .debug_str:00000000000004de .LASF68
     /tmp/cc7Tuaet.s:3459   .debug_str:0000000000000765 .LASF69
     /tmp/cc7Tuaet.s:3347   .debug_str:0000000000000428 .LASF70
     /tmp/cc7Tuaet.s:3249   .debug_str:00000000000000dd .LASF71
     /tmp/cc7Tuaet.s:3445   .debug_str:000000000000070f .LASF72
     /tmp/cc7Tuaet.s:3339   .debug_str:00000000000003d0 .LASF73
     /tmp/cc7Tuaet.s:3411   .debug_str:00000000000005e7 .LASF75
     /tmp/cc7Tuaet.s:3495   .debug_str:00000000000008e8 .LASF76
     /tmp/cc7Tuaet.s:3499   .debug_str:00000000000008fb .LASF77
     /tmp/cc7Tuaet.s:3401   .debug_str:0000000000000593 .LASF78
     /tmp/cc7Tuaet.s:3283   .debug_str:00000000000001f9 .LASF80
     /tmp/cc7Tuaet.s:3525   .debug_str:00000000000009f1 .LASF81
     /tmp/cc7Tuaet.s:3443   .debug_str:00000000000006fa .LASF82
     /tmp/cc7Tuaet.s:3247   .debug_str:00000000000000d4 .LASF83
     /tmp/cc7Tuaet.s:3505   .debug_str:0000000000000938 .LASF84
     /tmp/cc7Tuaet.s:3423   .debug_str:0000000000000638 .LASF85
     /tmp/cc7Tuaet.s:3343   .debug_str:0000000000000400 .LASF86
     /tmp/cc7Tuaet.s:3245   .debug_str:00000000000000c8 .LASF87
     /tmp/cc7Tuaet.s:3277   .debug_str:00000000000001c1 .LASF88
     /tmp/cc7Tuaet.s:3461   .debug_str:0000000000000778 .LASF89
     /tmp/cc7Tuaet.s:3253   .debug_str:000000000000010f .LASF90
     /tmp/cc7Tuaet.s:3313   .debug_str:000000000000030b .LASF91
     /tmp/cc7Tuaet.s:3363   .debug_str:000000000000047b .LASF92
     /tmp/cc7Tuaet.s:3219   .debug_str:0000000000000000 .LASF93
     /tmp/cc7Tuaet.s:3477   .debug_str:00000000000007cd .LASF94
     /tmp/cc7Tuaet.s:3417   .debug_str:0000000000000615 .LASF95
     /tmp/cc7Tuaet.s:3521   .debug_str:00000000000009cc .LASF96
     /tmp/cc7Tuaet.s:3437   .debug_str:00000000000006c4 .LASF97
     /tmp/cc7Tuaet.s:3263   .debug_str:0000000000000156 .LASF98
     /tmp/cc7Tuaet.s:3453   .debug_str:000000000000073f .LASF99
     /tmp/cc7Tuaet.s:3429   .debug_str:0000000000000675 .LASF100
     /tmp/cc7Tuaet.s:3509   .debug_str:000000000000095e .LASF102
     /tmp/cc7Tuaet.s:3425   .debug_str:0000000000000644 .LASF104
     /tmp/cc7Tuaet.s:3507   .debug_str:000000000000094d .LASF105
     /tmp/cc7Tuaet.s:3243   .debug_str:00000000000000aa .LASF106
     /tmp/cc7Tuaet.s:3321   .debug_str:0000000000000340 .LASF107
     /tmp/cc7Tuaet.s:3327   .debug_str:0000000000000375 .LASF108
     /tmp/cc7Tuaet.s:3447   .debug_str:000000000000071a .LASF109
     /tmp/cc7Tuaet.s:3517   .debug_str:00000000000009a3 .LASF110
     /tmp/cc7Tuaet.s:3303   .debug_str:00000000000002bf .LASF111
     /tmp/cc7Tuaet.s:354    .text:000000000000023c .LFB35
GAS LISTING /tmp/cc7Tuaet.s 			page 22


     /tmp/cc7Tuaet.s:513    .text:000000000000034c .LFE35
     /tmp/cc7Tuaet.s:3269   .debug_str:0000000000000184 .LASF112
     /tmp/cc7Tuaet.s:435    .text:00000000000002d8 .LBB16
     /tmp/cc7Tuaet.s:488    .text:000000000000031c .LBE16
     /tmp/cc7Tuaet.s:3449   .debug_str:0000000000000730 .LASF113
     /tmp/cc7Tuaet.s:3054   .debug_loc:0000000000000000 .LLST10
     /tmp/cc7Tuaet.s:3463   .debug_str:0000000000000783 .LASF114
     /tmp/cc7Tuaet.s:3475   .debug_str:00000000000007c1 .LASF154
     /tmp/cc7Tuaet.s:3065   .debug_loc:0000000000000036 .LLST11
     /tmp/cc7Tuaet.s:3379   .debug_str:00000000000004ff .LASF115
     /tmp/cc7Tuaet.s:441    .text:00000000000002e0 .LBB17
     /tmp/cc7Tuaet.s:3209   .debug_ranges:0000000000000000 .Ldebug_ranges0
     /tmp/cc7Tuaet.s:3072   .debug_loc:0000000000000059 .LLST12
     /tmp/cc7Tuaet.s:446    .text:00000000000002e8 .LVL51
     /tmp/cc7Tuaet.s:450    .text:00000000000002e8 .LBB20
     /tmp/cc7Tuaet.s:461    .text:00000000000002fc .LBE20
     /tmp/cc7Tuaet.s:3083   .debug_loc:000000000000008f .LLST13
     /tmp/cc7Tuaet.s:455    .text:00000000000002f0 .LVL52
     /tmp/cc7Tuaet.s:458    .text:00000000000002fc .LVL53
     /tmp/cc7Tuaet.s:373    .text:000000000000025c .LBB12
     /tmp/cc7Tuaet.s:385    .text:0000000000000260 .LBE12
     /tmp/cc7Tuaet.s:418    .text:00000000000002bc .LBB14
     /tmp/cc7Tuaet.s:426    .text:00000000000002c8 .LBE14
     /tmp/cc7Tuaet.s:393    .text:0000000000000274 .LVL45
     /tmp/cc7Tuaet.s:400    .text:000000000000028c .LVL46
     /tmp/cc7Tuaet.s:407    .text:00000000000002a4 .LVL47
     /tmp/cc7Tuaet.s:414    .text:00000000000002bc .LVL48
     /tmp/cc7Tuaet.s:432    .text:00000000000002d4 .LVL49
     /tmp/cc7Tuaet.s:492    .text:0000000000000324 .LVL58
     /tmp/cc7Tuaet.s:497    .text:0000000000000334 .LVL59
     /tmp/cc7Tuaet.s:3337   .debug_str:00000000000003c1 .LASF116
     /tmp/cc7Tuaet.s:3431   .debug_str:0000000000000688 .LASF117
     /tmp/cc7Tuaet.s:75     .text:0000000000000050 .LFB34
     /tmp/cc7Tuaet.s:101    .text:0000000000000078 .LFE34
     /tmp/cc7Tuaet.s:3090   .debug_loc:00000000000000b2 .LLST2
     /tmp/cc7Tuaet.s:90     .text:0000000000000068 .LVL5
     /tmp/cc7Tuaet.s:3317   .debug_str:0000000000000323 .LASF118
     /tmp/cc7Tuaet.s:3427   .debug_str:0000000000000660 .LASF119
     /tmp/cc7Tuaet.s:43     .text:0000000000000028 .LFB33
     /tmp/cc7Tuaet.s:69     .text:0000000000000050 .LFE33
     /tmp/cc7Tuaet.s:3104   .debug_loc:00000000000000eb .LLST1
     /tmp/cc7Tuaet.s:58     .text:0000000000000040 .LVL3
     /tmp/cc7Tuaet.s:3273   .debug_str:000000000000019f .LASF120
     /tmp/cc7Tuaet.s:3365   .debug_str:0000000000000491 .LASF121
     /tmp/cc7Tuaet.s:10     .text:0000000000000000 .LFB32
     /tmp/cc7Tuaet.s:37     .text:0000000000000028 .LFE32
     /tmp/cc7Tuaet.s:3118   .debug_loc:0000000000000124 .LLST0
     /tmp/cc7Tuaet.s:26     .text:0000000000000018 .LVL1
     /tmp/cc7Tuaet.s:3483   .debug_str:00000000000008b1 .LASF122
     /tmp/cc7Tuaet.s:3323   .debug_str:000000000000034b .LASF123
     /tmp/cc7Tuaet.s:306    .text:00000000000001f4 .LFB31
     /tmp/cc7Tuaet.s:343    .text:000000000000023c .LFE31
     /tmp/cc7Tuaet.s:3132   .debug_loc:000000000000015d .LLST9
     /tmp/cc7Tuaet.s:323    .text:0000000000000214 .LVL40
     /tmp/cc7Tuaet.s:327    .text:000000000000021c .LVL41
     /tmp/cc7Tuaet.s:332    .text:000000000000022c .LVL42
     /tmp/cc7Tuaet.s:3319   .debug_str:0000000000000332 .LASF124
GAS LISTING /tmp/cc7Tuaet.s 			page 23


     /tmp/cc7Tuaet.s:3275   .debug_str:00000000000001ae .LASF125
     /tmp/cc7Tuaet.s:107    .text:0000000000000078 .LFB30
     /tmp/cc7Tuaet.s:292    .text:00000000000001f4 .LFE30
     /tmp/cc7Tuaet.s:3146   .debug_loc:0000000000000196 .LLST3
     /tmp/cc7Tuaet.s:3157   .debug_loc:00000000000001cc .LLST4
     /tmp/cc7Tuaet.s:3164   .debug_loc:00000000000001ef .LLST5
     /tmp/cc7Tuaet.s:3175   .debug_loc:0000000000000225 .LLST6
     /tmp/cc7Tuaet.s:3182   .debug_loc:0000000000000248 .LLST7
     /tmp/cc7Tuaet.s:3189   .debug_loc:000000000000026b .LLST8
     /tmp/cc7Tuaet.s:128    .text:00000000000000a0 .LVL6
     /tmp/cc7Tuaet.s:140    .text:00000000000000b8 .LVL9
     /tmp/cc7Tuaet.s:145    .text:00000000000000c4 .LVL10
     /tmp/cc7Tuaet.s:150    .text:00000000000000d0 .LVL11
     /tmp/cc7Tuaet.s:160    .text:00000000000000e4 .LVL13
     /tmp/cc7Tuaet.s:165    .text:00000000000000f0 .LVL14
     /tmp/cc7Tuaet.s:170    .text:00000000000000fc .LVL15
     /tmp/cc7Tuaet.s:182    .text:0000000000000114 .LVL18
     /tmp/cc7Tuaet.s:187    .text:0000000000000120 .LVL19
     /tmp/cc7Tuaet.s:192    .text:000000000000012c .LVL20
     /tmp/cc7Tuaet.s:203    .text:0000000000000144 .LVL22
     /tmp/cc7Tuaet.s:208    .text:0000000000000150 .LVL23
     /tmp/cc7Tuaet.s:213    .text:000000000000015c .LVL24
     /tmp/cc7Tuaet.s:223    .text:0000000000000170 .LVL26
     /tmp/cc7Tuaet.s:228    .text:000000000000017c .LVL27
     /tmp/cc7Tuaet.s:235    .text:000000000000018c .LVL28
     /tmp/cc7Tuaet.s:243    .text:000000000000019c .LVL29
     /tmp/cc7Tuaet.s:251    .text:00000000000001ac .LVL30
     /tmp/cc7Tuaet.s:257    .text:00000000000001b8 .LVL31
     /tmp/cc7Tuaet.s:267    .text:00000000000001cc .LVL33
     /tmp/cc7Tuaet.s:272    .text:00000000000001d8 .LVL34
     /tmp/cc7Tuaet.s:3355   .debug_str:0000000000000455 .LASF128
     /tmp/cc7Tuaet.s:3301   .debug_str:00000000000002ba .LASF126
     /tmp/cc7Tuaet.s:3229   .debug_str:0000000000000034 .LASF127
     /tmp/cc7Tuaet.s:3349   .debug_str:0000000000000431 .LASF155
     /tmp/cc7Tuaet.s:3493   .debug_str:00000000000008e1 .LASF129
     /tmp/cc7Tuaet.s:3309   .debug_str:00000000000002de .LASF130
     /tmp/cc7Tuaet.s:3491   .debug_str:00000000000008d3 .LASF131
     /tmp/cc7Tuaet.s:3501   .debug_str:0000000000000901 .LASF132
     /tmp/cc7Tuaet.s:3409   .debug_str:00000000000005d7 .LASF133
     /tmp/cc7Tuaet.s:3393   .debug_str:000000000000055c .LASF134
     /tmp/cc7Tuaet.s:3511   .debug_str:000000000000096d .LASF135
     /tmp/cc7Tuaet.s:3413   .debug_str:00000000000005ec .LASF136
     /tmp/cc7Tuaet.s:3399   .debug_str:0000000000000587 .LASF137
     /tmp/cc7Tuaet.s:3381   .debug_str:0000000000000509 .LASF138
     /tmp/cc7Tuaet.s:3397   .debug_str:000000000000057b .LASF139
     /tmp/cc7Tuaet.s:3527   .debug_str:00000000000009fa .LASF140
     /tmp/cc7Tuaet.s:3395   .debug_str:000000000000056f .LASF141
     /tmp/cc7Tuaet.s:3367   .debug_str:00000000000004a6 .LASF142
     /tmp/cc7Tuaet.s:3485   .debug_str:00000000000008bd .LASF143
     /tmp/cc7Tuaet.s:3291   .debug_str:0000000000000277 .LASF144
     /tmp/cc7Tuaet.s:3357   .debug_str:000000000000045b .LASF145
     /tmp/cc7Tuaet.s:439    .text:00000000000002e0 .LVL50
     /tmp/cc7Tuaet.s:464    .text:0000000000000300 .LVL54
     /tmp/cc7Tuaet.s:471    .text:000000000000030c .LVL55
     /tmp/cc7Tuaet.s:484    .text:000000000000031c .LVL57
     /tmp/cc7Tuaet.s:506    .text:0000000000000340 .LVL60
     /tmp/cc7Tuaet.s:475    .text:0000000000000310 .LVL56
GAS LISTING /tmp/cc7Tuaet.s 			page 24


     /tmp/cc7Tuaet.s:78     .text:0000000000000050 .LVL4
     /tmp/cc7Tuaet.s:46     .text:0000000000000028 .LVL2
     /tmp/cc7Tuaet.s:14     .text:0000000000000000 .LVL0
     /tmp/cc7Tuaet.s:309    .text:00000000000001f4 .LVL38
     /tmp/cc7Tuaet.s:321    .text:000000000000020c .LVL39
     /tmp/cc7Tuaet.s:130    .text:00000000000000a4 .LVL7
     /tmp/cc7Tuaet.s:138    .text:00000000000000b0 .LVL8
     /tmp/cc7Tuaet.s:287    .text:00000000000001ec .LVL37
     /tmp/cc7Tuaet.s:158    .text:00000000000000dc .LVL12
     /tmp/cc7Tuaet.s:172    .text:0000000000000100 .LVL16
     /tmp/cc7Tuaet.s:180    .text:000000000000010c .LVL17
     /tmp/cc7Tuaet.s:284    .text:00000000000001e8 .LVL36
     /tmp/cc7Tuaet.s:194    .text:0000000000000130 .LVL21
     /tmp/cc7Tuaet.s:281    .text:00000000000001e4 .LVL35
     /tmp/cc7Tuaet.s:221    .text:0000000000000168 .LVL25
     /tmp/cc7Tuaet.s:265    .text:00000000000001c4 .LVL32
     /tmp/cc7Tuaet.s:525    .debug_info:0000000000000000 .Ldebug_info0
     /tmp/cc7Tuaet.s:449    .text:00000000000002e8 .LBE17
     /tmp/cc7Tuaet.s:476    .text:0000000000000310 .LBB22
     /tmp/cc7Tuaet.s:487    .text:000000000000031c .LBE22

UNDEFINED SYMBOLS
_Z11workerBodyAv
_Z11workerBodyBv
_Z11workerBodyCv
_Znwm
__putc
_ZdlPv
_Z11printStringPKc
_Z8userMainv
_ZN5Riscv14SupervisorTrapEv
_Z13thread_createPP3TCBPFvPvES2_
_ZN9Scheduler5queueE
_Z15thread_dispatchv
_ZN15MemoryAllocator8InstanceEv
_ZN15MemoryAllocator8mem_freeEPv
