GAS LISTING /tmp/ccxHaSf0.s 			page 1


   1              		.file	"main.cpp"
   2              		.option pic
   3              		.option norelax
   4              		.text
   5              	.Ltext0:
   6              		.align	2
   7              		.globl	_Z13AllocatorTestv
   9              	_Z13AllocatorTestv:
  10              	.LFB10:
  11              		.file 1 "src/main.cpp"
   1:src/main.cpp  **** 
   2:src/main.cpp  **** #include "../lib/console.h"
   3:src/main.cpp  **** #include  "../lib/hw.h"
   4:src/main.cpp  **** #include "../h/MemoryAllocator.hpp"
   5:src/main.cpp  **** #include "../h/syscall_c.hpp"
   6:src/main.cpp  **** #include  "../h/syscall_cpp.hpp"
   7:src/main.cpp  **** #include "../h/Riscv.hpp"
   8:src/main.cpp  **** #include "../h/print.hpp"
   9:src/main.cpp  **** #include "../h/List.hpp"
  10:src/main.cpp  **** 
  11:src/main.cpp  **** // uint64 pc;
  12:src/main.cpp  **** // uint64 counter=0;
  13:src/main.cpp  **** // void f() {
  14:src/main.cpp  **** //     __putc('a');
  15:src/main.cpp  **** //     __putc('\n');
  16:src/main.cpp  **** //     __asm__ volatile ("mv ra, %[destination]" :: [destination] "r" (pc));
  17:src/main.cpp  **** //     __asm__ volatile ("sd ra, 8(sp)");
  18:src/main.cpp  **** // }
  19:src/main.cpp  **** //
  20:src/main.cpp  **** //
  21:src/main.cpp  **** //
  22:src/main.cpp  **** // void dispatch() {
  23:src/main.cpp  **** //     __asm__ volatile ("mv %[ret], ra" : [ret] "=r" (pc)  );
  24:src/main.cpp  **** //     __asm__ volatile ("mv ra, %[destination]" :: [destination] "r" (&f));
  25:src/main.cpp  **** // }
  26:src/main.cpp  **** //
  27:src/main.cpp  **** //
  28:src/main.cpp  **** //
  29:src/main.cpp  **** //
  30:src/main.cpp  **** //
  31:src/main.cpp  **** // extern "C" void SuperVisorTrapHandler() {
  32:src/main.cpp  **** //     uint64 scause;
  33:src/main.cpp  **** //     __asm__ volatile ("csrr %[ret], scause" : [ret] "=r" (scause) );
  34:src/main.cpp  **** //     if (scause == (0x01UL <<63 | 0x01)) {
  35:src/main.cpp  **** //         counter++;
  36:src/main.cpp  **** //
  37:src/main.cpp  **** //         if (counter>=50) {
  38:src/main.cpp  **** //
  39:src/main.cpp  **** //             __putc('b');
  40:src/main.cpp  **** //             __putc('\n');
  41:src/main.cpp  **** //             counter=0;
  42:src/main.cpp  **** //         }
  43:src/main.cpp  **** //         __asm__ volatile ("csrc sip, 0x02");
  44:src/main.cpp  **** //     }
  45:src/main.cpp  **** //     console_handler();
  46:src/main.cpp  **** //
  47:src/main.cpp  **** // }
GAS LISTING /tmp/ccxHaSf0.s 			page 2


  48:src/main.cpp  **** 
  49:src/main.cpp  **** 
  50:src/main.cpp  **** //extern "C" void SupervisorTrap();
  51:src/main.cpp  **** 
  52:src/main.cpp  **** void AllocatorTest() {
  12              		.loc 1 52 22
  13              		.cfi_startproc
  14 0000 130101FD 		addi	sp,sp,-48
  15              		.cfi_def_cfa_offset 48
  16 0004 23341102 		sd	ra,40(sp)
  17 0008 23308102 		sd	s0,32(sp)
  18 000c 233C9100 		sd	s1,24(sp)
  19 0010 23382101 		sd	s2,16(sp)
  20 0014 23343101 		sd	s3,8(sp)
  21              		.cfi_offset 1, -8
  22              		.cfi_offset 8, -16
  23              		.cfi_offset 9, -24
  24              		.cfi_offset 18, -32
  25              		.cfi_offset 19, -40
  26 0018 13040103 		addi	s0,sp,48
  27              		.cfi_def_cfa 8, 0
  53:src/main.cpp  ****     uint64* a1=new uint64;
  28              		.loc 1 53 5
  29              		.loc 1 53 20 is_stmt 0
  30 001c 13058000 		li	a0,8
  31 0020 97000000 		call	_Znwm@plt
  31      E7800000 
  32              	.LVL0:
  33 0028 93090500 		mv	s3,a0
  34              	.LVL1:
  54:src/main.cpp  ****     *a1=4;
  35              		.loc 1 54 5 is_stmt 1
  36              		.loc 1 54 8 is_stmt 0
  37 002c 93074000 		li	a5,4
  38 0030 2330F500 		sd	a5,0(a0)
  55:src/main.cpp  ****     __putc(*a1+'0');
  39              		.loc 1 55 5 is_stmt 1
  40              		.loc 1 55 11 is_stmt 0
  41 0034 13054003 		li	a0,52
  42              	.LVL2:
  43 0038 97000000 		call	__putc@plt
  43      E7800000 
  44              	.LVL3:
  56:src/main.cpp  ****     __putc('\n');
  45              		.loc 1 56 5 is_stmt 1
  46              		.loc 1 56 11 is_stmt 0
  47 0040 1305A000 		li	a0,10
  48 0044 97000000 		call	__putc@plt
  48      E7800000 
  49              	.LVL4:
  57:src/main.cpp  ****     uint64* a2=new uint64;
  50              		.loc 1 57 5 is_stmt 1
  51              		.loc 1 57 20 is_stmt 0
  52 004c 13058000 		li	a0,8
  53 0050 97000000 		call	_Znwm@plt
  53      E7800000 
  54              	.LVL5:
GAS LISTING /tmp/ccxHaSf0.s 			page 3


  58:src/main.cpp  ****     *a2=5;
  55              		.loc 1 58 5 is_stmt 1
  56              		.loc 1 58 8 is_stmt 0
  57 0058 93075000 		li	a5,5
  58 005c 2330F500 		sd	a5,0(a0)
  59:src/main.cpp  ****     __putc(*a2+'0');
  59              		.loc 1 59 5 is_stmt 1
  60              		.loc 1 59 11 is_stmt 0
  61 0060 13055003 		li	a0,53
  62              	.LVL6:
  63 0064 97000000 		call	__putc@plt
  63      E7800000 
  64              	.LVL7:
  60:src/main.cpp  ****     __putc('\n');
  65              		.loc 1 60 5 is_stmt 1
  66              		.loc 1 60 11 is_stmt 0
  67 006c 1305A000 		li	a0,10
  68 0070 97000000 		call	__putc@plt
  68      E7800000 
  69              	.LVL8:
  61:src/main.cpp  ****     uint64* a3=new uint64;
  70              		.loc 1 61 5 is_stmt 1
  71              		.loc 1 61 20 is_stmt 0
  72 0078 13058000 		li	a0,8
  73 007c 97000000 		call	_Znwm@plt
  73      E7800000 
  74              	.LVL9:
  75 0084 13090500 		mv	s2,a0
  76              	.LVL10:
  62:src/main.cpp  ****     *a3=6;
  77              		.loc 1 62 5 is_stmt 1
  78              		.loc 1 62 8 is_stmt 0
  79 0088 93076000 		li	a5,6
  80 008c 2330F500 		sd	a5,0(a0)
  63:src/main.cpp  ****     __putc(*a3+'0');
  81              		.loc 1 63 5 is_stmt 1
  82              		.loc 1 63 11 is_stmt 0
  83 0090 13056003 		li	a0,54
  84              	.LVL11:
  85 0094 97000000 		call	__putc@plt
  85      E7800000 
  86              	.LVL12:
  64:src/main.cpp  ****     __putc('\n');
  87              		.loc 1 64 5 is_stmt 1
  88              		.loc 1 64 11 is_stmt 0
  89 009c 1305A000 		li	a0,10
  90 00a0 97000000 		call	__putc@plt
  90      E7800000 
  91              	.LVL13:
  65:src/main.cpp  ****     uint64* a4=new uint64;
  92              		.loc 1 65 5 is_stmt 1
  93              		.loc 1 65 20 is_stmt 0
  94 00a8 13058000 		li	a0,8
  95 00ac 97000000 		call	_Znwm@plt
  95      E7800000 
  96              	.LVL14:
  97 00b4 93040500 		mv	s1,a0
GAS LISTING /tmp/ccxHaSf0.s 			page 4


  98              	.LVL15:
  66:src/main.cpp  ****     *a4=7;
  99              		.loc 1 66 5 is_stmt 1
 100              		.loc 1 66 8 is_stmt 0
 101 00b8 93077000 		li	a5,7
 102 00bc 2330F500 		sd	a5,0(a0)
  67:src/main.cpp  ****     __putc(*a4+'0');
 103              		.loc 1 67 5 is_stmt 1
 104              		.loc 1 67 11 is_stmt 0
 105 00c0 13057003 		li	a0,55
 106 00c4 97000000 		call	__putc@plt
 106      E7800000 
 107              	.LVL16:
  68:src/main.cpp  ****     __putc('\n');
 108              		.loc 1 68 5 is_stmt 1
 109              		.loc 1 68 11 is_stmt 0
 110 00cc 1305A000 		li	a0,10
 111 00d0 97000000 		call	__putc@plt
 111      E7800000 
 112              	.LVL17:
  69:src/main.cpp  ****     uint64* a5=new uint64;
 113              		.loc 1 69 5 is_stmt 1
 114              		.loc 1 69 20 is_stmt 0
 115 00d8 13058000 		li	a0,8
 116 00dc 97000000 		call	_Znwm@plt
 116      E7800000 
 117              	.LVL18:
  70:src/main.cpp  ****     *a5=8;
 118              		.loc 1 70 5 is_stmt 1
 119              		.loc 1 70 8 is_stmt 0
 120 00e4 93078000 		li	a5,8
 121 00e8 2330F500 		sd	a5,0(a0)
  71:src/main.cpp  ****     __putc(*a5+'0');
 122              		.loc 1 71 5 is_stmt 1
 123              		.loc 1 71 11 is_stmt 0
 124 00ec 13058003 		li	a0,56
 125              	.LVL19:
 126 00f0 97000000 		call	__putc@plt
 126      E7800000 
 127              	.LVL20:
  72:src/main.cpp  ****     __putc('\n');
 128              		.loc 1 72 5 is_stmt 1
 129              		.loc 1 72 11 is_stmt 0
 130 00f8 1305A000 		li	a0,10
 131 00fc 97000000 		call	__putc@plt
 131      E7800000 
 132              	.LVL21:
  73:src/main.cpp  ****     delete a1;
 133              		.loc 1 73 5 is_stmt 1
 134              		.loc 1 73 14 is_stmt 0
 135 0104 63880900 		beqz	s3,.L2
 136              		.loc 1 73 12 discriminator 1
 137 0108 13850900 		mv	a0,s3
 138 010c 97000000 		call	_ZdlPv@plt
 138      E7800000 
 139              	.LVL22:
 140              	.L2:
GAS LISTING /tmp/ccxHaSf0.s 			page 5


  74:src/main.cpp  ****     delete a3;
 141              		.loc 1 74 5 is_stmt 1
 142              		.loc 1 74 14 is_stmt 0
 143 0114 63080900 		beqz	s2,.L3
 144              		.loc 1 74 12 discriminator 1
 145 0118 13050900 		mv	a0,s2
 146 011c 97000000 		call	_ZdlPv@plt
 146      E7800000 
 147              	.LVL23:
 148              	.L3:
  75:src/main.cpp  ****     delete a4;
 149              		.loc 1 75 5 is_stmt 1
 150              		.loc 1 75 14 is_stmt 0
 151 0124 63880400 		beqz	s1,.L4
 152              		.loc 1 75 12 discriminator 1
 153 0128 13850400 		mv	a0,s1
 154 012c 97000000 		call	_ZdlPv@plt
 154      E7800000 
 155              	.LVL24:
 156              	.L4:
  76:src/main.cpp  ****     uint64* a6=new uint64;
 157              		.loc 1 76 5 is_stmt 1
 158              		.loc 1 76 20 is_stmt 0
 159 0134 13058000 		li	a0,8
 160 0138 97000000 		call	_Znwm@plt
 160      E7800000 
 161              	.LVL25:
  77:src/main.cpp  ****     *a6=9;
 162              		.loc 1 77 5 is_stmt 1
 163              		.loc 1 77 8 is_stmt 0
 164 0140 93079000 		li	a5,9
 165 0144 2330F500 		sd	a5,0(a0)
  78:src/main.cpp  ****     __putc(*a6+'0');
 166              		.loc 1 78 5 is_stmt 1
 167              		.loc 1 78 11 is_stmt 0
 168 0148 13059003 		li	a0,57
 169              	.LVL26:
 170 014c 97000000 		call	__putc@plt
 170      E7800000 
 171              	.LVL27:
  79:src/main.cpp  ****     __putc('\n');
 172              		.loc 1 79 5 is_stmt 1
 173              		.loc 1 79 11 is_stmt 0
 174 0154 1305A000 		li	a0,10
 175 0158 97000000 		call	__putc@plt
 175      E7800000 
 176              	.LVL28:
  80:src/main.cpp  **** 
  81:src/main.cpp  **** 
  82:src/main.cpp  **** 
  83:src/main.cpp  **** }
 177              		.loc 1 83 1
 178 0160 83308102 		ld	ra,40(sp)
 179              		.cfi_restore 1
 180 0164 03340102 		ld	s0,32(sp)
 181              		.cfi_restore 8
 182              		.cfi_def_cfa 2, 48
GAS LISTING /tmp/ccxHaSf0.s 			page 6


 183 0168 83348101 		ld	s1,24(sp)
 184              		.cfi_restore 9
 185              	.LVL29:
 186 016c 03390101 		ld	s2,16(sp)
 187              		.cfi_restore 18
 188              	.LVL30:
 189 0170 83398100 		ld	s3,8(sp)
 190              		.cfi_restore 19
 191              	.LVL31:
 192 0174 13010103 		addi	sp,sp,48
 193              		.cfi_def_cfa_offset 0
 194 0178 67800000 		jr	ra
 195              		.cfi_endproc
 196              	.LFE10:
 198              		.section	.text._ZN4ListIPmE8addFirstEPS0_,"axG",@progbits,_ZN4ListIPmE8addFirstEPS0_,comdat
 199              		.align	2
 200              		.weak	_ZN4ListIPmE8addFirstEPS0_
 202              	_ZN4ListIPmE8addFirstEPS0_:
 203              	.LFB15:
 204              		.file 2 "src/../h/List.hpp"
   1:src/../h/List.hpp **** //
   2:src/../h/List.hpp **** // Created by os on 9/23/25.
   3:src/../h/List.hpp **** //
   4:src/../h/List.hpp **** 
   5:src/../h/List.hpp **** #ifndef PROJECT_BASE_V1_1_COPY_LIST_HPP
   6:src/../h/List.hpp **** #define PROJECT_BASE_V1_1_COPY_LIST_HPP
   7:src/../h/List.hpp **** 
   8:src/../h/List.hpp **** 
   9:src/../h/List.hpp **** 
  10:src/../h/List.hpp **** template<typename T>
  11:src/../h/List.hpp **** class List
  12:src/../h/List.hpp **** {
  13:src/../h/List.hpp **** private:
  14:src/../h/List.hpp ****     struct Elem
  15:src/../h/List.hpp ****     {
  16:src/../h/List.hpp ****         T* data;
  17:src/../h/List.hpp ****         Elem* next;
  18:src/../h/List.hpp ****         Elem(T* data, Elem* next=nullptr): data(data), next(next){}
  19:src/../h/List.hpp ****     };
  20:src/../h/List.hpp ****     Elem * head;
  21:src/../h/List.hpp ****     Elem *tail;
  22:src/../h/List.hpp ****     int size=0;
  23:src/../h/List.hpp **** public:
  24:src/../h/List.hpp ****     List(): head(0), tail(0){}
  25:src/../h/List.hpp ****     void addFirst(T* data)
 205              		.loc 2 25 10 is_stmt 1
 206              		.cfi_startproc
 207              	.LVL32:
 208 0000 130101FE 		addi	sp,sp,-32
 209              		.cfi_def_cfa_offset 32
 210 0004 233C1100 		sd	ra,24(sp)
 211 0008 23388100 		sd	s0,16(sp)
 212 000c 23349100 		sd	s1,8(sp)
 213 0010 23302101 		sd	s2,0(sp)
 214              		.cfi_offset 1, -8
 215              		.cfi_offset 8, -16
 216              		.cfi_offset 9, -24
GAS LISTING /tmp/ccxHaSf0.s 			page 7


 217              		.cfi_offset 18, -32
 218 0014 13040102 		addi	s0,sp,32
 219              		.cfi_def_cfa 8, 0
 220 0018 93040500 		mv	s1,a0
 221 001c 13890500 		mv	s2,a1
  26:src/../h/List.hpp ****     {
  27:src/../h/List.hpp ****         Elem* elem=new Elem(data, head);
 222              		.loc 2 27 20 is_stmt 0
 223 0020 13050001 		li	a0,16
 224              	.LVL33:
 225 0024 97000000 		call	_Znwm@plt
 225      E7800000 
 226              	.LVL34:
 227 002c 83B70400 		ld	a5,0(s1)
 228              	.LVL35:
 229              	.LBB10:
 230              	.LBB11:
  18:src/../h/List.hpp ****     };
 231              		.loc 2 18 65
 232 0030 23302501 		sd	s2,0(a0)
 233 0034 2334F500 		sd	a5,8(a0)
 234              	.LVL36:
 235              	.LBE11:
 236              	.LBE10:
  28:src/../h/List.hpp ****         head=elem;
 237              		.loc 2 28 9
 238 0038 23B0A400 		sd	a0,0(s1)
  29:src/../h/List.hpp ****         if(!tail){tail=head;}
 239              		.loc 2 29 13
 240 003c 83B78400 		ld	a5,8(s1)
 241              		.loc 2 29 9
 242 0040 63840702 		beqz	a5,.L9
 243              	.L7:
  30:src/../h/List.hpp ****         size++;
 244              		.loc 2 30 9
 245 0044 83A70401 		lw	a5,16(s1)
 246 0048 9B871700 		addiw	a5,a5,1
 247 004c 23A8F400 		sw	a5,16(s1)
  31:src/../h/List.hpp ****     }
 248              		.loc 2 31 5
 249 0050 83308101 		ld	ra,24(sp)
 250              		.cfi_remember_state
 251              		.cfi_restore 1
 252 0054 03340101 		ld	s0,16(sp)
 253              		.cfi_restore 8
 254              		.cfi_def_cfa 2, 32
 255 0058 83348100 		ld	s1,8(sp)
 256              		.cfi_restore 9
 257              	.LVL37:
 258 005c 03390100 		ld	s2,0(sp)
 259              		.cfi_restore 18
 260              	.LVL38:
 261 0060 13010102 		addi	sp,sp,32
 262              		.cfi_def_cfa_offset 0
 263 0064 67800000 		jr	ra
 264              	.LVL39:
 265              	.L9:
GAS LISTING /tmp/ccxHaSf0.s 			page 8


 266              		.cfi_restore_state
  29:src/../h/List.hpp ****         if(!tail){tail=head;}
 267              		.loc 2 29 19 discriminator 1
 268 0068 23B4A400 		sd	a0,8(s1)
 269 006c 6FF09FFD 		j	.L7
 270              		.cfi_endproc
 271              	.LFE15:
 273              		.section	.text._ZN4ListIPmE10removeLastEv,"axG",@progbits,_ZN4ListIPmE10removeLastEv,comdat
 274              		.align	2
 275              		.weak	_ZN4ListIPmE10removeLastEv
 277              	_ZN4ListIPmE10removeLastEv:
 278              	.LFB16:
  32:src/../h/List.hpp ****     T* removeLast()
 279              		.loc 2 32 8 is_stmt 1
 280              		.cfi_startproc
 281              	.LVL40:
 282 0000 130101FE 		addi	sp,sp,-32
 283              		.cfi_def_cfa_offset 32
 284 0004 233C1100 		sd	ra,24(sp)
 285 0008 23388100 		sd	s0,16(sp)
 286 000c 23349100 		sd	s1,8(sp)
 287              		.cfi_offset 1, -8
 288              		.cfi_offset 8, -16
 289              		.cfi_offset 9, -24
 290 0010 13040102 		addi	s0,sp,32
 291              		.cfi_def_cfa 8, 0
  33:src/../h/List.hpp ****     {
  34:src/../h/List.hpp ****         size--;
 292              		.loc 2 34 9 is_stmt 0
 293 0014 83270501 		lw	a5,16(a0)
 294 0018 9B87F7FF 		addiw	a5,a5,-1
 295 001c 2328F500 		sw	a5,16(a0)
  35:src/../h/List.hpp ****         if(!head){return 0;}
 296              		.loc 2 35 13
 297 0020 83340500 		ld	s1,0(a0)
 298              		.loc 2 35 9
 299 0024 63820404 		beqz	s1,.L10
 300 0028 13070500 		mv	a4,a0
  36:src/../h/List.hpp ****         Elem* prev=0;
 301              		.loc 2 36 15
 302 002c 93060000 		li	a3,0
 303              	.L13:
 304              	.LVL41:
 305              	.LBB12:
  37:src/../h/List.hpp ****         for(Elem* curr=head; curr && curr!=tail; prev=curr, curr=curr->next);
 306              		.loc 2 37 35 is_stmt 1 discriminator 4
 307 0030 638C0400 		beqz	s1,.L12
 308              		.loc 2 37 44 is_stmt 0 discriminator 2
 309 0034 83378700 		ld	a5,8(a4)
 310              		.loc 2 37 35 discriminator 2
 311 0038 63889700 		beq	a5,s1,.L12
 312              		.loc 2 37 9 is_stmt 1 discriminator 3
 313              	.LVL42:
 314 003c 93860400 		mv	a3,s1
 315 0040 83B48400 		ld	s1,8(s1)
 316              	.LVL43:
 317 0044 6FF0DFFE 		j	.L13
GAS LISTING /tmp/ccxHaSf0.s 			page 9


 318              	.L12:
 319              	.LBE12:
  38:src/../h/List.hpp ****         Elem* elem=tail;
 320              		.loc 2 38 15 is_stmt 0
 321 0048 03358700 		ld	a0,8(a4)
 322              	.LVL44:
  39:src/../h/List.hpp ****         if(prev) prev->next=0;
 323              		.loc 2 39 9
 324 004c 638A0602 		beqz	a3,.L14
 325              		.loc 2 39 18 discriminator 1
 326 0050 23B40600 		sd	zero,8(a3)
 327              	.L15:
  40:src/../h/List.hpp ****         else head=0;
  41:src/../h/List.hpp ****         tail=prev;
 328              		.loc 2 41 9
 329 0054 2334D700 		sd	a3,8(a4)
  42:src/../h/List.hpp ****         T* retval= elem->data;
 330              		.loc 2 42 12
 331 0058 83340500 		ld	s1,0(a0)
 332              	.LVL45:
  43:src/../h/List.hpp ****         delete elem;
 333              		.loc 2 43 9
 334 005c 63060500 		beqz	a0,.L10
 335              		.loc 2 43 9 discriminator 1
 336 0060 97000000 		call	_ZdlPv@plt
 336      E7800000 
 337              	.LVL46:
 338              	.L10:
  44:src/../h/List.hpp ****         return retval;
  45:src/../h/List.hpp ****     }
 339              		.loc 2 45 5
 340 0068 13850400 		mv	a0,s1
 341 006c 83308101 		ld	ra,24(sp)
 342              		.cfi_remember_state
 343              		.cfi_restore 1
 344 0070 03340101 		ld	s0,16(sp)
 345              		.cfi_restore 8
 346              		.cfi_def_cfa 2, 32
 347 0074 83348100 		ld	s1,8(sp)
 348              		.cfi_restore 9
 349 0078 13010102 		addi	sp,sp,32
 350              		.cfi_def_cfa_offset 0
 351 007c 67800000 		jr	ra
 352              	.LVL47:
 353              	.L14:
 354              		.cfi_restore_state
  40:src/../h/List.hpp ****         tail=prev;
 355              		.loc 2 40 14
 356 0080 23300700 		sd	zero,0(a4)
 357 0084 6FF01FFD 		j	.L15
 358              		.cfi_endproc
 359              	.LFE16:
 361              		.section	.rodata.str1.8,"aMS",@progbits,1
 362              		.align	3
 363              	.LC0:
 364 0000 4F4B0A00 		.string	"OK\n"
 365              		.text
GAS LISTING /tmp/ccxHaSf0.s 			page 10


 366              		.align	2
 367              		.globl	main
 369              	main:
 370              	.LFB11:
  84:src/main.cpp  **** 
  85:src/main.cpp  **** extern "C" void SupervisorTrap();
  86:src/main.cpp  **** 
  87:src/main.cpp  **** void main() {
 371              		.loc 1 87 13 is_stmt 1
 372              		.cfi_startproc
 373 017c 130101FB 		addi	sp,sp,-80
 374              		.cfi_def_cfa_offset 80
 375 0180 23341104 		sd	ra,72(sp)
 376 0184 23308104 		sd	s0,64(sp)
 377 0188 233C9102 		sd	s1,56(sp)
 378              		.cfi_offset 1, -8
 379              		.cfi_offset 8, -16
 380              		.cfi_offset 9, -24
 381 018c 13040105 		addi	s0,sp,80
 382              		.cfi_def_cfa 8, 0
  88:src/main.cpp  ****     Riscv::set_stvec((uint64)SupervisorTrap);
 383              		.loc 1 88 5
 384              		.loc 1 88 21 is_stmt 0
 385 0190 97070000 		la	a5,SupervisorTrap
 385      83B70700 
 386              	.LVL48:
 387              	.LBB13:
 388              	.LBB14:
 389              		.file 3 "src/../h/Riscv.hpp"
   1:src/../h/Riscv.hpp **** //
   2:src/../h/Riscv.hpp **** // Created by os on 9/8/25.
   3:src/../h/Riscv.hpp **** //
   4:src/../h/Riscv.hpp **** 
   5:src/../h/Riscv.hpp **** #ifndef PROJECT_BASE_V1_1_COPY_RISCV_HPP
   6:src/../h/Riscv.hpp **** #define PROJECT_BASE_V1_1_COPY_RISCV_HPP
   7:src/../h/Riscv.hpp **** #include "../lib/hw.h"
   8:src/../h/Riscv.hpp **** 
   9:src/../h/Riscv.hpp **** class Riscv {
  10:src/../h/Riscv.hpp **** public:
  11:src/../h/Riscv.hpp ****     static void set_stvec(uint64 stvec);
  12:src/../h/Riscv.hpp ****     static void set_sepc(uint64 sepc);
  13:src/../h/Riscv.hpp ****     static uint64 get_sepc();
  14:src/../h/Riscv.hpp ****     static void set_sstatus(uint64 sstatus);
  15:src/../h/Riscv.hpp ****     static uint64 get_sstatus();
  16:src/../h/Riscv.hpp **** 
  17:src/../h/Riscv.hpp ****     static void SupervisorTrapHandler();
  18:src/../h/Riscv.hpp **** };
  19:src/../h/Riscv.hpp **** 
  20:src/../h/Riscv.hpp **** 
  21:src/../h/Riscv.hpp **** inline void Riscv::set_stvec(uint64 stvec) {
  22:src/../h/Riscv.hpp ****     __asm__ volatile ("csrw stvec, %[x]" :: [x] "r" (stvec));
 390              		.loc 3 22 5 is_stmt 1
 391              		.loc 3 22 61 is_stmt 0
 392              	#APP
 393              	# 22 "src/../h/Riscv.hpp" 1
  23              	}
 394              		csrw stvec, a5
GAS LISTING /tmp/ccxHaSf0.s 			page 11


 395              	# 0 "" 2
 396              	.LVL49:
 397              	#NO_APP
 398              	.LBE14:
 399              	.LBE13:
  89:src/main.cpp  ****     AllocatorTest();
 400              		.loc 1 89 5 is_stmt 1
 401              		.loc 1 89 18 is_stmt 0
 402 019c 97000000 		call	_Z13AllocatorTestv
 402      E7800000 
 403              	.LVL50:
  90:src/main.cpp  **** 
  91:src/main.cpp  ****     printString("OK\n");
 404              		.loc 1 91 5 is_stmt 1
 405              		.loc 1 91 16 is_stmt 0
 406 01a4 17050000 		lla	a0,.LC0
 406      13050500 
 407 01ac 97000000 		call	_Z11printStringPKc@plt
 407      E7800000 
 408              	.LVL51:
  92:src/main.cpp  **** 
  93:src/main.cpp  ****     uint64* a1=new uint64;
 409              		.loc 1 93 5 is_stmt 1
 410              		.loc 1 93 20 is_stmt 0
 411 01b4 13058000 		li	a0,8
 412 01b8 97000000 		call	_Znwm@plt
 412      E7800000 
 413              	.LVL52:
 414 01c0 233CA4FC 		sd	a0,-40(s0)
  94:src/main.cpp  ****     *a1=4;
 415              		.loc 1 94 5 is_stmt 1
 416              		.loc 1 94 8 is_stmt 0
 417 01c4 93074000 		li	a5,4
 418 01c8 2330F500 		sd	a5,0(a0)
  95:src/main.cpp  ****     uint64* a2=new uint64;
 419              		.loc 1 95 5 is_stmt 1
 420              		.loc 1 95 20 is_stmt 0
 421 01cc 13058000 		li	a0,8
 422 01d0 97000000 		call	_Znwm@plt
 422      E7800000 
 423              	.LVL53:
 424 01d8 2338A4FC 		sd	a0,-48(s0)
  96:src/main.cpp  ****     *a2=5;
 425              		.loc 1 96 5 is_stmt 1
 426              		.loc 1 96 8 is_stmt 0
 427 01dc 93075000 		li	a5,5
 428 01e0 2330F500 		sd	a5,0(a0)
  97:src/main.cpp  ****     uint64* a3=new uint64;
 429              		.loc 1 97 5 is_stmt 1
 430              		.loc 1 97 20 is_stmt 0
 431 01e4 13058000 		li	a0,8
 432 01e8 97000000 		call	_Znwm@plt
 432      E7800000 
 433              	.LVL54:
 434 01f0 2334A4FC 		sd	a0,-56(s0)
  98:src/main.cpp  ****     *a3=6;
 435              		.loc 1 98 5 is_stmt 1
GAS LISTING /tmp/ccxHaSf0.s 			page 12


 436              		.loc 1 98 8 is_stmt 0
 437 01f4 93076000 		li	a5,6
 438 01f8 2330F500 		sd	a5,0(a0)
  99:src/main.cpp  ****     uint64* a4=new uint64;
 439              		.loc 1 99 5 is_stmt 1
 440              		.loc 1 99 20 is_stmt 0
 441 01fc 13058000 		li	a0,8
 442 0200 97000000 		call	_Znwm@plt
 442      E7800000 
 443              	.LVL55:
 100:src/main.cpp  ****     *a4=7;
 444              		.loc 1 100 5 is_stmt 1
 445              		.loc 1 100 8 is_stmt 0
 446 0208 93077000 		li	a5,7
 447 020c 2330F500 		sd	a5,0(a0)
 101:src/main.cpp  ****     uint64* a5=new uint64;
 448              		.loc 1 101 5 is_stmt 1
 449              		.loc 1 101 20 is_stmt 0
 450 0210 13058000 		li	a0,8
 451              	.LVL56:
 452 0214 97000000 		call	_Znwm@plt
 452      E7800000 
 453              	.LVL57:
 102:src/main.cpp  ****     *a5=8;
 454              		.loc 1 102 5 is_stmt 1
 455              		.loc 1 102 8 is_stmt 0
 456 021c 93078000 		li	a5,8
 457 0220 2330F500 		sd	a5,0(a0)
 103:src/main.cpp  ****     List<uint64*> lista;
 458              		.loc 1 103 5 is_stmt 1
 459              	.LVL58:
 460              	.LBB15:
 461              	.LBB16:
 462              	.LBB17:
  24:src/../h/List.hpp ****     void addFirst(T* data)
 463              		.loc 2 24 28 is_stmt 0
 464 0224 233804FA 		sd	zero,-80(s0)
 465 0228 233C04FA 		sd	zero,-72(s0)
 466 022c 232004FC 		sw	zero,-64(s0)
 467              	.LVL59:
 468              	.LBE17:
 469              	.LBE16:
 470              	.LBE15:
 104:src/main.cpp  ****     lista.addFirst(&a1);
 471              		.loc 1 104 5 is_stmt 1
 472              		.loc 1 104 19 is_stmt 0
 473 0230 930584FD 		addi	a1,s0,-40
 474 0234 930404FB 		addi	s1,s0,-80
 475 0238 13850400 		mv	a0,s1
 476              	.LVL60:
 477 023c 97000000 		call	_ZN4ListIPmE8addFirstEPS0_
 477      E7800000 
 478              	.LVL61:
 105:src/main.cpp  ****     lista.addFirst(&a2);
 479              		.loc 1 105 5 is_stmt 1
 480              		.loc 1 105 19 is_stmt 0
 481 0244 930504FD 		addi	a1,s0,-48
GAS LISTING /tmp/ccxHaSf0.s 			page 13


 482 0248 13850400 		mv	a0,s1
 483 024c 97000000 		call	_ZN4ListIPmE8addFirstEPS0_
 483      E7800000 
 484              	.LVL62:
 106:src/main.cpp  ****     lista.addFirst(&a3);
 485              		.loc 1 106 5 is_stmt 1
 486              		.loc 1 106 19 is_stmt 0
 487 0254 930584FC 		addi	a1,s0,-56
 488 0258 13850400 		mv	a0,s1
 489 025c 97000000 		call	_ZN4ListIPmE8addFirstEPS0_
 489      E7800000 
 490              	.LVL63:
 107:src/main.cpp  ****     uint64** pom= lista.removeLast();
 491              		.loc 1 107 5 is_stmt 1
 492              		.loc 1 107 35 is_stmt 0
 493 0264 13850400 		mv	a0,s1
 494 0268 97000000 		call	_ZN4ListIPmE10removeLastEv
 494      E7800000 
 495              	.LVL64:
 108:src/main.cpp  ****     printInteger(**pom);
 496              		.loc 1 108 5 is_stmt 1
 497              		.loc 1 108 19 is_stmt 0
 498 0270 83370500 		ld	a5,0(a0)
 499              		.loc 1 108 17
 500 0274 03B50700 		ld	a0,0(a5)
 501              	.LVL65:
 502 0278 97000000 		call	_Z12printIntegerm@plt
 502      E7800000 
 503              	.LVL66:
 109:src/main.cpp  ****      pom= lista.removeLast();
 504              		.loc 1 109 6 is_stmt 1
 505              		.loc 1 109 27 is_stmt 0
 506 0280 13850400 		mv	a0,s1
 507 0284 97000000 		call	_ZN4ListIPmE10removeLastEv
 507      E7800000 
 508              	.LVL67:
 110:src/main.cpp  ****     printInteger(**pom);
 509              		.loc 1 110 5 is_stmt 1
 510              		.loc 1 110 19 is_stmt 0
 511 028c 83370500 		ld	a5,0(a0)
 512              		.loc 1 110 17
 513 0290 03B50700 		ld	a0,0(a5)
 514              	.LVL68:
 515 0294 97000000 		call	_Z12printIntegerm@plt
 515      E7800000 
 516              	.LVL69:
 111:src/main.cpp  ****     // size_t pom1= mem_get_free_space();
 112:src/main.cpp  ****     // printString("Free mem: ");
 113:src/main.cpp  ****     // printInteger(pom1);
 114:src/main.cpp  ****     // printString("\n");
 115:src/main.cpp  ****     // size_t pom2= mem_get_largest_free_block();
 116:src/main.cpp  ****     // printString("Largest free block: ");
 117:src/main.cpp  ****     // printInteger(pom2);
 118:src/main.cpp  ****     // printString("\n");
 119:src/main.cpp  **** }
 517              		.loc 1 119 1
 518 029c 83308104 		ld	ra,72(sp)
GAS LISTING /tmp/ccxHaSf0.s 			page 14


 519              		.cfi_restore 1
 520 02a0 03340104 		ld	s0,64(sp)
 521              		.cfi_restore 8
 522              		.cfi_def_cfa 2, 80
 523 02a4 83348103 		ld	s1,56(sp)
 524              		.cfi_restore 9
 525 02a8 13010105 		addi	sp,sp,80
 526              		.cfi_def_cfa_offset 0
 527 02ac 67800000 		jr	ra
 528              		.cfi_endproc
 529              	.LFE11:
 531              	.Letext0:
 532              		.file 4 "src/../lib/hw.h"
 533              		.file 5 "src/../h/syscall_cpp.hpp"
 534              		.file 6 "src/../h/print.hpp"
 535              		.file 7 "src/../lib/console.h"
GAS LISTING /tmp/ccxHaSf0.s 			page 15


DEFINED SYMBOLS
                            *ABS*:0000000000000000 main.cpp
     /tmp/ccxHaSf0.s:9      .text:0000000000000000 _Z13AllocatorTestv
     /tmp/ccxHaSf0.s:13     .text:0000000000000000 .L0 
     /tmp/ccxHaSf0.s:14     .text:0000000000000000 .L0 
     /tmp/ccxHaSf0.s:15     .text:0000000000000004 .L0 
     /tmp/ccxHaSf0.s:21     .text:0000000000000018 .L0 
     /tmp/ccxHaSf0.s:22     .text:0000000000000018 .L0 
     /tmp/ccxHaSf0.s:23     .text:0000000000000018 .L0 
     /tmp/ccxHaSf0.s:24     .text:0000000000000018 .L0 
     /tmp/ccxHaSf0.s:25     .text:0000000000000018 .L0 
     /tmp/ccxHaSf0.s:27     .text:000000000000001c .L0 
     /tmp/ccxHaSf0.s:29     .text:000000000000001c .L0 
     /tmp/ccxHaSf0.s:30     .text:000000000000001c .L0 
     /tmp/ccxHaSf0.s:36     .text:000000000000002c .L0 
     /tmp/ccxHaSf0.s:37     .text:000000000000002c .L0 
     /tmp/ccxHaSf0.s:40     .text:0000000000000034 .L0 
     /tmp/ccxHaSf0.s:41     .text:0000000000000034 .L0 
     /tmp/ccxHaSf0.s:46     .text:0000000000000040 .L0 
     /tmp/ccxHaSf0.s:47     .text:0000000000000040 .L0 
     /tmp/ccxHaSf0.s:51     .text:000000000000004c .L0 
     /tmp/ccxHaSf0.s:52     .text:000000000000004c .L0 
     /tmp/ccxHaSf0.s:56     .text:0000000000000058 .L0 
     /tmp/ccxHaSf0.s:57     .text:0000000000000058 .L0 
     /tmp/ccxHaSf0.s:60     .text:0000000000000060 .L0 
     /tmp/ccxHaSf0.s:61     .text:0000000000000060 .L0 
     /tmp/ccxHaSf0.s:66     .text:000000000000006c .L0 
     /tmp/ccxHaSf0.s:67     .text:000000000000006c .L0 
     /tmp/ccxHaSf0.s:71     .text:0000000000000078 .L0 
     /tmp/ccxHaSf0.s:72     .text:0000000000000078 .L0 
     /tmp/ccxHaSf0.s:78     .text:0000000000000088 .L0 
     /tmp/ccxHaSf0.s:79     .text:0000000000000088 .L0 
     /tmp/ccxHaSf0.s:82     .text:0000000000000090 .L0 
     /tmp/ccxHaSf0.s:83     .text:0000000000000090 .L0 
     /tmp/ccxHaSf0.s:88     .text:000000000000009c .L0 
     /tmp/ccxHaSf0.s:89     .text:000000000000009c .L0 
     /tmp/ccxHaSf0.s:93     .text:00000000000000a8 .L0 
     /tmp/ccxHaSf0.s:94     .text:00000000000000a8 .L0 
     /tmp/ccxHaSf0.s:100    .text:00000000000000b8 .L0 
     /tmp/ccxHaSf0.s:101    .text:00000000000000b8 .L0 
     /tmp/ccxHaSf0.s:104    .text:00000000000000c0 .L0 
     /tmp/ccxHaSf0.s:105    .text:00000000000000c0 .L0 
     /tmp/ccxHaSf0.s:109    .text:00000000000000cc .L0 
     /tmp/ccxHaSf0.s:110    .text:00000000000000cc .L0 
     /tmp/ccxHaSf0.s:114    .text:00000000000000d8 .L0 
     /tmp/ccxHaSf0.s:115    .text:00000000000000d8 .L0 
     /tmp/ccxHaSf0.s:119    .text:00000000000000e4 .L0 
     /tmp/ccxHaSf0.s:120    .text:00000000000000e4 .L0 
     /tmp/ccxHaSf0.s:123    .text:00000000000000ec .L0 
     /tmp/ccxHaSf0.s:124    .text:00000000000000ec .L0 
     /tmp/ccxHaSf0.s:129    .text:00000000000000f8 .L0 
     /tmp/ccxHaSf0.s:130    .text:00000000000000f8 .L0 
     /tmp/ccxHaSf0.s:134    .text:0000000000000104 .L0 
     /tmp/ccxHaSf0.s:135    .text:0000000000000104 .L0 
     /tmp/ccxHaSf0.s:137    .text:0000000000000108 .L0 
     /tmp/ccxHaSf0.s:142    .text:0000000000000114 .L0 
     /tmp/ccxHaSf0.s:143    .text:0000000000000114 .L0 
GAS LISTING /tmp/ccxHaSf0.s 			page 16


     /tmp/ccxHaSf0.s:145    .text:0000000000000118 .L0 
     /tmp/ccxHaSf0.s:150    .text:0000000000000124 .L0 
     /tmp/ccxHaSf0.s:151    .text:0000000000000124 .L0 
     /tmp/ccxHaSf0.s:153    .text:0000000000000128 .L0 
     /tmp/ccxHaSf0.s:158    .text:0000000000000134 .L0 
     /tmp/ccxHaSf0.s:159    .text:0000000000000134 .L0 
     /tmp/ccxHaSf0.s:163    .text:0000000000000140 .L0 
     /tmp/ccxHaSf0.s:164    .text:0000000000000140 .L0 
     /tmp/ccxHaSf0.s:167    .text:0000000000000148 .L0 
     /tmp/ccxHaSf0.s:168    .text:0000000000000148 .L0 
     /tmp/ccxHaSf0.s:173    .text:0000000000000154 .L0 
     /tmp/ccxHaSf0.s:174    .text:0000000000000154 .L0 
     /tmp/ccxHaSf0.s:178    .text:0000000000000160 .L0 
     /tmp/ccxHaSf0.s:179    .text:0000000000000164 .L0 
     /tmp/ccxHaSf0.s:181    .text:0000000000000168 .L0 
     /tmp/ccxHaSf0.s:182    .text:0000000000000168 .L0 
     /tmp/ccxHaSf0.s:184    .text:000000000000016c .L0 
     /tmp/ccxHaSf0.s:187    .text:0000000000000170 .L0 
     /tmp/ccxHaSf0.s:190    .text:0000000000000174 .L0 
     /tmp/ccxHaSf0.s:193    .text:0000000000000178 .L0 
     /tmp/ccxHaSf0.s:195    .text:000000000000017c .L0 
     /tmp/ccxHaSf0.s:202    .text._ZN4ListIPmE8addFirstEPS0_:0000000000000000 _ZN4ListIPmE8addFirstEPS0_
     /tmp/ccxHaSf0.s:206    .text._ZN4ListIPmE8addFirstEPS0_:0000000000000000 .L0 
     /tmp/ccxHaSf0.s:208    .text._ZN4ListIPmE8addFirstEPS0_:0000000000000000 .L0 
     /tmp/ccxHaSf0.s:209    .text._ZN4ListIPmE8addFirstEPS0_:0000000000000004 .L0 
     /tmp/ccxHaSf0.s:214    .text._ZN4ListIPmE8addFirstEPS0_:0000000000000014 .L0 
     /tmp/ccxHaSf0.s:215    .text._ZN4ListIPmE8addFirstEPS0_:0000000000000014 .L0 
     /tmp/ccxHaSf0.s:216    .text._ZN4ListIPmE8addFirstEPS0_:0000000000000014 .L0 
     /tmp/ccxHaSf0.s:217    .text._ZN4ListIPmE8addFirstEPS0_:0000000000000014 .L0 
     /tmp/ccxHaSf0.s:219    .text._ZN4ListIPmE8addFirstEPS0_:0000000000000018 .L0 
     /tmp/ccxHaSf0.s:223    .text._ZN4ListIPmE8addFirstEPS0_:0000000000000020 .L0 
     /tmp/ccxHaSf0.s:232    .text._ZN4ListIPmE8addFirstEPS0_:0000000000000030 .L0 
     /tmp/ccxHaSf0.s:238    .text._ZN4ListIPmE8addFirstEPS0_:0000000000000038 .L0 
     /tmp/ccxHaSf0.s:240    .text._ZN4ListIPmE8addFirstEPS0_:000000000000003c .L0 
     /tmp/ccxHaSf0.s:242    .text._ZN4ListIPmE8addFirstEPS0_:0000000000000040 .L0 
     /tmp/ccxHaSf0.s:245    .text._ZN4ListIPmE8addFirstEPS0_:0000000000000044 .L0 
     /tmp/ccxHaSf0.s:249    .text._ZN4ListIPmE8addFirstEPS0_:0000000000000050 .L0 
     /tmp/ccxHaSf0.s:250    .text._ZN4ListIPmE8addFirstEPS0_:0000000000000054 .L0 
     /tmp/ccxHaSf0.s:251    .text._ZN4ListIPmE8addFirstEPS0_:0000000000000054 .L0 
     /tmp/ccxHaSf0.s:253    .text._ZN4ListIPmE8addFirstEPS0_:0000000000000058 .L0 
     /tmp/ccxHaSf0.s:254    .text._ZN4ListIPmE8addFirstEPS0_:0000000000000058 .L0 
     /tmp/ccxHaSf0.s:256    .text._ZN4ListIPmE8addFirstEPS0_:000000000000005c .L0 
     /tmp/ccxHaSf0.s:259    .text._ZN4ListIPmE8addFirstEPS0_:0000000000000060 .L0 
     /tmp/ccxHaSf0.s:262    .text._ZN4ListIPmE8addFirstEPS0_:0000000000000064 .L0 
     /tmp/ccxHaSf0.s:266    .text._ZN4ListIPmE8addFirstEPS0_:0000000000000068 .L0 
     /tmp/ccxHaSf0.s:268    .text._ZN4ListIPmE8addFirstEPS0_:0000000000000068 .L0 
     /tmp/ccxHaSf0.s:270    .text._ZN4ListIPmE8addFirstEPS0_:0000000000000070 .L0 
     /tmp/ccxHaSf0.s:277    .text._ZN4ListIPmE10removeLastEv:0000000000000000 _ZN4ListIPmE10removeLastEv
     /tmp/ccxHaSf0.s:280    .text._ZN4ListIPmE10removeLastEv:0000000000000000 .L0 
     /tmp/ccxHaSf0.s:282    .text._ZN4ListIPmE10removeLastEv:0000000000000000 .L0 
     /tmp/ccxHaSf0.s:283    .text._ZN4ListIPmE10removeLastEv:0000000000000004 .L0 
     /tmp/ccxHaSf0.s:287    .text._ZN4ListIPmE10removeLastEv:0000000000000010 .L0 
     /tmp/ccxHaSf0.s:288    .text._ZN4ListIPmE10removeLastEv:0000000000000010 .L0 
     /tmp/ccxHaSf0.s:289    .text._ZN4ListIPmE10removeLastEv:0000000000000010 .L0 
     /tmp/ccxHaSf0.s:291    .text._ZN4ListIPmE10removeLastEv:0000000000000014 .L0 
     /tmp/ccxHaSf0.s:293    .text._ZN4ListIPmE10removeLastEv:0000000000000014 .L0 
     /tmp/ccxHaSf0.s:297    .text._ZN4ListIPmE10removeLastEv:0000000000000020 .L0 
GAS LISTING /tmp/ccxHaSf0.s 			page 17


     /tmp/ccxHaSf0.s:299    .text._ZN4ListIPmE10removeLastEv:0000000000000024 .L0 
     /tmp/ccxHaSf0.s:302    .text._ZN4ListIPmE10removeLastEv:000000000000002c .L0 
     /tmp/ccxHaSf0.s:307    .text._ZN4ListIPmE10removeLastEv:0000000000000030 .L0 
     /tmp/ccxHaSf0.s:309    .text._ZN4ListIPmE10removeLastEv:0000000000000034 .L0 
     /tmp/ccxHaSf0.s:311    .text._ZN4ListIPmE10removeLastEv:0000000000000038 .L0 
     /tmp/ccxHaSf0.s:314    .text._ZN4ListIPmE10removeLastEv:000000000000003c .L0 
     /tmp/ccxHaSf0.s:321    .text._ZN4ListIPmE10removeLastEv:0000000000000048 .L0 
     /tmp/ccxHaSf0.s:324    .text._ZN4ListIPmE10removeLastEv:000000000000004c .L0 
     /tmp/ccxHaSf0.s:326    .text._ZN4ListIPmE10removeLastEv:0000000000000050 .L0 
     /tmp/ccxHaSf0.s:329    .text._ZN4ListIPmE10removeLastEv:0000000000000054 .L0 
     /tmp/ccxHaSf0.s:331    .text._ZN4ListIPmE10removeLastEv:0000000000000058 .L0 
     /tmp/ccxHaSf0.s:334    .text._ZN4ListIPmE10removeLastEv:000000000000005c .L0 
     /tmp/ccxHaSf0.s:336    .text._ZN4ListIPmE10removeLastEv:0000000000000060 .L0 
     /tmp/ccxHaSf0.s:340    .text._ZN4ListIPmE10removeLastEv:0000000000000068 .L0 
     /tmp/ccxHaSf0.s:342    .text._ZN4ListIPmE10removeLastEv:0000000000000070 .L0 
     /tmp/ccxHaSf0.s:343    .text._ZN4ListIPmE10removeLastEv:0000000000000070 .L0 
     /tmp/ccxHaSf0.s:345    .text._ZN4ListIPmE10removeLastEv:0000000000000074 .L0 
     /tmp/ccxHaSf0.s:346    .text._ZN4ListIPmE10removeLastEv:0000000000000074 .L0 
     /tmp/ccxHaSf0.s:348    .text._ZN4ListIPmE10removeLastEv:0000000000000078 .L0 
     /tmp/ccxHaSf0.s:350    .text._ZN4ListIPmE10removeLastEv:000000000000007c .L0 
     /tmp/ccxHaSf0.s:354    .text._ZN4ListIPmE10removeLastEv:0000000000000080 .L0 
     /tmp/ccxHaSf0.s:356    .text._ZN4ListIPmE10removeLastEv:0000000000000080 .L0 
     /tmp/ccxHaSf0.s:358    .text._ZN4ListIPmE10removeLastEv:0000000000000088 .L0 
     /tmp/ccxHaSf0.s:369    .text:000000000000017c main
     /tmp/ccxHaSf0.s:372    .text:000000000000017c .L0 
     /tmp/ccxHaSf0.s:373    .text:000000000000017c .L0 
     /tmp/ccxHaSf0.s:374    .text:0000000000000180 .L0 
     /tmp/ccxHaSf0.s:378    .text:000000000000018c .L0 
     /tmp/ccxHaSf0.s:379    .text:000000000000018c .L0 
     /tmp/ccxHaSf0.s:380    .text:000000000000018c .L0 
     /tmp/ccxHaSf0.s:382    .text:0000000000000190 .L0 
     /tmp/ccxHaSf0.s:384    .text:0000000000000190 .L0 
     /tmp/ccxHaSf0.s:385    .text:0000000000000190 .L0 
     /tmp/ccxHaSf0.s:391    .text:0000000000000198 .L0 
  src/../h/Riscv.hpp:22     .text:0000000000000198 .L0 
     /tmp/ccxHaSf0.s:401    .text:000000000000019c .L0 
     /tmp/ccxHaSf0.s:402    .text:000000000000019c .L0 
     /tmp/ccxHaSf0.s:405    .text:00000000000001a4 .L0 
     /tmp/ccxHaSf0.s:406    .text:00000000000001a4 .L0 
     /tmp/ccxHaSf0.s:410    .text:00000000000001b4 .L0 
     /tmp/ccxHaSf0.s:411    .text:00000000000001b4 .L0 
     /tmp/ccxHaSf0.s:416    .text:00000000000001c4 .L0 
     /tmp/ccxHaSf0.s:417    .text:00000000000001c4 .L0 
     /tmp/ccxHaSf0.s:420    .text:00000000000001cc .L0 
     /tmp/ccxHaSf0.s:421    .text:00000000000001cc .L0 
     /tmp/ccxHaSf0.s:426    .text:00000000000001dc .L0 
     /tmp/ccxHaSf0.s:427    .text:00000000000001dc .L0 
     /tmp/ccxHaSf0.s:430    .text:00000000000001e4 .L0 
     /tmp/ccxHaSf0.s:431    .text:00000000000001e4 .L0 
     /tmp/ccxHaSf0.s:436    .text:00000000000001f4 .L0 
     /tmp/ccxHaSf0.s:437    .text:00000000000001f4 .L0 
     /tmp/ccxHaSf0.s:440    .text:00000000000001fc .L0 
     /tmp/ccxHaSf0.s:441    .text:00000000000001fc .L0 
     /tmp/ccxHaSf0.s:445    .text:0000000000000208 .L0 
     /tmp/ccxHaSf0.s:446    .text:0000000000000208 .L0 
     /tmp/ccxHaSf0.s:449    .text:0000000000000210 .L0 
     /tmp/ccxHaSf0.s:450    .text:0000000000000210 .L0 
GAS LISTING /tmp/ccxHaSf0.s 			page 18


     /tmp/ccxHaSf0.s:455    .text:000000000000021c .L0 
     /tmp/ccxHaSf0.s:456    .text:000000000000021c .L0 
     /tmp/ccxHaSf0.s:463    .text:0000000000000224 .L0 
     /tmp/ccxHaSf0.s:464    .text:0000000000000224 .L0 
     /tmp/ccxHaSf0.s:472    .text:0000000000000230 .L0 
     /tmp/ccxHaSf0.s:473    .text:0000000000000230 .L0 
     /tmp/ccxHaSf0.s:480    .text:0000000000000244 .L0 
     /tmp/ccxHaSf0.s:481    .text:0000000000000244 .L0 
     /tmp/ccxHaSf0.s:486    .text:0000000000000254 .L0 
     /tmp/ccxHaSf0.s:487    .text:0000000000000254 .L0 
     /tmp/ccxHaSf0.s:492    .text:0000000000000264 .L0 
     /tmp/ccxHaSf0.s:493    .text:0000000000000264 .L0 
     /tmp/ccxHaSf0.s:497    .text:0000000000000270 .L0 
     /tmp/ccxHaSf0.s:498    .text:0000000000000270 .L0 
     /tmp/ccxHaSf0.s:500    .text:0000000000000274 .L0 
     /tmp/ccxHaSf0.s:505    .text:0000000000000280 .L0 
     /tmp/ccxHaSf0.s:506    .text:0000000000000280 .L0 
     /tmp/ccxHaSf0.s:510    .text:000000000000028c .L0 
     /tmp/ccxHaSf0.s:511    .text:000000000000028c .L0 
     /tmp/ccxHaSf0.s:513    .text:0000000000000290 .L0 
     /tmp/ccxHaSf0.s:518    .text:000000000000029c .L0 
     /tmp/ccxHaSf0.s:519    .text:00000000000002a0 .L0 
     /tmp/ccxHaSf0.s:521    .text:00000000000002a4 .L0 
     /tmp/ccxHaSf0.s:522    .text:00000000000002a4 .L0 
     /tmp/ccxHaSf0.s:524    .text:00000000000002a8 .L0 
     /tmp/ccxHaSf0.s:526    .text:00000000000002ac .L0 
     /tmp/ccxHaSf0.s:528    .text:00000000000002b0 .L0 
     /tmp/ccxHaSf0.s:536    .text:00000000000002b0 .L0 
     /tmp/ccxHaSf0.s:273    .text._ZN4ListIPmE8addFirstEPS0_:0000000000000070 .L0 
     /tmp/ccxHaSf0.s:361    .text._ZN4ListIPmE10removeLastEv:0000000000000088 .L0 
     /tmp/ccxHaSf0.s:385    .text:0000000000000190 .L0 
     /tmp/ccxHaSf0.s:363    .rodata.str1.8:0000000000000000 .LC0
     /tmp/ccxHaSf0.s:406    .text:00000000000001a4 .L0 
     /tmp/ccxHaSf0.s:140    .text:0000000000000114 .L2
     /tmp/ccxHaSf0.s:148    .text:0000000000000124 .L3
     /tmp/ccxHaSf0.s:156    .text:0000000000000134 .L4
     /tmp/ccxHaSf0.s:265    .text._ZN4ListIPmE8addFirstEPS0_:0000000000000068 .L9
     /tmp/ccxHaSf0.s:243    .text._ZN4ListIPmE8addFirstEPS0_:0000000000000044 .L7
     /tmp/ccxHaSf0.s:338    .text._ZN4ListIPmE10removeLastEv:0000000000000068 .L10
     /tmp/ccxHaSf0.s:318    .text._ZN4ListIPmE10removeLastEv:0000000000000048 .L12
     /tmp/ccxHaSf0.s:303    .text._ZN4ListIPmE10removeLastEv:0000000000000030 .L13
     /tmp/ccxHaSf0.s:353    .text._ZN4ListIPmE10removeLastEv:0000000000000080 .L14
     /tmp/ccxHaSf0.s:327    .text._ZN4ListIPmE10removeLastEv:0000000000000054 .L15
     /tmp/ccxHaSf0.s:1560   .debug_abbrev:0000000000000000 .Ldebug_abbrev0
     /tmp/ccxHaSf0.s:2620   .debug_str:0000000000000356 .LASF61
     /tmp/ccxHaSf0.s:2544   .debug_str:0000000000000121 .LASF62
     /tmp/ccxHaSf0.s:2558   .debug_str:0000000000000168 .LASF63
     /tmp/ccxHaSf0.s:2492   .debug_ranges:0000000000000000 .Ldebug_ranges0
     /tmp/ccxHaSf0.s:2502   .debug_line:0000000000000000 .Ldebug_line0
     /tmp/ccxHaSf0.s:2564   .debug_str:00000000000001bd .LASF0
     /tmp/ccxHaSf0.s:2576   .debug_str:0000000000000221 .LASF1
     /tmp/ccxHaSf0.s:2556   .debug_str:000000000000015a .LASF2
     /tmp/ccxHaSf0.s:2538   .debug_str:0000000000000109 .LASF4
     /tmp/ccxHaSf0.s:2604   .debug_str:00000000000002e6 .LASF3
     /tmp/ccxHaSf0.s:2508   .debug_str:0000000000000023 .LASF5
     /tmp/ccxHaSf0.s:2580   .debug_str:0000000000000240 .LASF6
     /tmp/ccxHaSf0.s:2562   .debug_str:00000000000001aa .LASF7
GAS LISTING /tmp/ccxHaSf0.s 			page 19


     /tmp/ccxHaSf0.s:2628   .debug_str:0000000000000445 .LASF8
     /tmp/ccxHaSf0.s:2530   .debug_str:00000000000000b4 .LASF9
     /tmp/ccxHaSf0.s:2588   .debug_str:0000000000000263 .LASF10
     /tmp/ccxHaSf0.s:2622   .debug_str:000000000000041a .LASF11
     /tmp/ccxHaSf0.s:2510   .debug_str:000000000000002a .LASF12
     /tmp/ccxHaSf0.s:2506   .debug_str:0000000000000013 .LASF13
     /tmp/ccxHaSf0.s:2514   .debug_str:000000000000004b .LASF14
     /tmp/ccxHaSf0.s:2600   .debug_str:00000000000002b5 .LASF15
     /tmp/ccxHaSf0.s:2522   .debug_str:0000000000000069 .LASF16
     /tmp/ccxHaSf0.s:2574   .debug_str:000000000000021b .LASF27
     /tmp/ccxHaSf0.s:2624   .debug_str:0000000000000429 .LASF17
     /tmp/ccxHaSf0.s:2560   .debug_str:0000000000000194 .LASF19
     /tmp/ccxHaSf0.s:2632   .debug_str:0000000000000462 .LASF18
     /tmp/ccxHaSf0.s:2606   .debug_str:00000000000002f8 .LASF20
     /tmp/ccxHaSf0.s:2614   .debug_str:000000000000033f .LASF23
     /tmp/ccxHaSf0.s:2552   .debug_str:000000000000013e .LASF25
     /tmp/ccxHaSf0.s:2578   .debug_str:0000000000000234 .LASF21
     /tmp/ccxHaSf0.s:2536   .debug_str:00000000000000f0 .LASF22
     /tmp/ccxHaSf0.s:2610   .debug_str:0000000000000323 .LASF24
     /tmp/ccxHaSf0.s:2596   .debug_str:0000000000000295 .LASF26
     /tmp/ccxHaSf0.s:2608   .debug_str:000000000000030d .LASF64
     /tmp/ccxHaSf0.s:2528   .debug_str:0000000000000091 .LASF65
     /tmp/ccxHaSf0.s:2594   .debug_str:000000000000027c .LASF28
     /tmp/ccxHaSf0.s:2548   .debug_str:0000000000000134 .LASF66
     /tmp/ccxHaSf0.s:2516   .debug_str:0000000000000057 .LASF29
     /tmp/ccxHaSf0.s:2638   .debug_str:0000000000000483 .LASF30
     /tmp/ccxHaSf0.s:2534   .debug_str:00000000000000d3 .LASF67
     /tmp/ccxHaSf0.s:2524   .debug_str:000000000000007f .LASF31
     /tmp/ccxHaSf0.s:2550   .debug_str:0000000000000139 .LASF32
     /tmp/ccxHaSf0.s:2616   .debug_str:0000000000000348 .LASF33
     /tmp/ccxHaSf0.s:2586   .debug_str:000000000000025e .LASF34
     /tmp/ccxHaSf0.s:2512   .debug_str:000000000000003a .LASF36
     /tmp/ccxHaSf0.s:2618   .debug_str:000000000000034d .LASF35
     /tmp/ccxHaSf0.s:2570   .debug_str:00000000000001f2 .LASF37
     /tmp/ccxHaSf0.s:2568   .debug_str:00000000000001e7 .LASF47
     /tmp/ccxHaSf0.s:2602   .debug_str:00000000000002cb .LASF49
     /tmp/ccxHaSf0.s:2592   .debug_str:0000000000000277 .LASF42
     /tmp/ccxHaSf0.s:2566   .debug_str:00000000000001ca .LASF43
     /tmp/ccxHaSf0.s:278    .text._ZN4ListIPmE10removeLastEv:0000000000000000 .LFB16
     /tmp/ccxHaSf0.s:359    .text._ZN4ListIPmE10removeLastEv:0000000000000088 .LFE16
     /tmp/ccxHaSf0.s:2249   .debug_loc:0000000000000000 .LLST11
     /tmp/ccxHaSf0.s:2634   .debug_str:000000000000046b .LASF38
     /tmp/ccxHaSf0.s:2271   .debug_loc:000000000000005f .LLST12
     /tmp/ccxHaSf0.s:2540   .debug_str:0000000000000110 .LASF39
     /tmp/ccxHaSf0.s:2290   .debug_loc:00000000000000bb .LLST13
     /tmp/ccxHaSf0.s:2520   .debug_str:0000000000000062 .LASF40
     /tmp/ccxHaSf0.s:2301   .debug_loc:00000000000000f1 .LLST14
     /tmp/ccxHaSf0.s:305    .text._ZN4ListIPmE10removeLastEv:0000000000000030 .LBB12
     /tmp/ccxHaSf0.s:319    .text._ZN4ListIPmE10removeLastEv:0000000000000048 .LBE12
     /tmp/ccxHaSf0.s:2590   .debug_str:0000000000000272 .LASF41
     /tmp/ccxHaSf0.s:2308   .debug_loc:0000000000000114 .LLST15
     /tmp/ccxHaSf0.s:337    .text._ZN4ListIPmE10removeLastEv:0000000000000068 .LVL46
     /tmp/ccxHaSf0.s:203    .text._ZN4ListIPmE8addFirstEPS0_:0000000000000000 .LFB15
     /tmp/ccxHaSf0.s:271    .text._ZN4ListIPmE8addFirstEPS0_:0000000000000070 .LFE15
     /tmp/ccxHaSf0.s:2328   .debug_loc:0000000000000171 .LLST6
     /tmp/ccxHaSf0.s:2350   .debug_loc:00000000000001d0 .LLST7
     /tmp/ccxHaSf0.s:229    .text._ZN4ListIPmE8addFirstEPS0_:0000000000000030 .LBB10
GAS LISTING /tmp/ccxHaSf0.s 			page 20


     /tmp/ccxHaSf0.s:236    .text._ZN4ListIPmE8addFirstEPS0_:0000000000000038 .LBE10
     /tmp/ccxHaSf0.s:2372   .debug_loc:000000000000022f .LLST8
     /tmp/ccxHaSf0.s:2379   .debug_loc:0000000000000252 .LLST9
     /tmp/ccxHaSf0.s:2386   .debug_loc:0000000000000275 .LLST10
     /tmp/ccxHaSf0.s:226    .text._ZN4ListIPmE8addFirstEPS0_:000000000000002c .LVL34
     /tmp/ccxHaSf0.s:2532   .debug_str:00000000000000c2 .LASF44
     /tmp/ccxHaSf0.s:2584   .debug_str:0000000000000259 .LASF45
     /tmp/ccxHaSf0.s:370    .text:000000000000017c .LFB11
     /tmp/ccxHaSf0.s:529    .text:00000000000002b0 .LFE11
     /tmp/ccxHaSf0.s:2393   .debug_loc:0000000000000298 .LLST16
     /tmp/ccxHaSf0.s:2400   .debug_loc:00000000000002bb .LLST17
     /tmp/ccxHaSf0.s:2518   .debug_str:000000000000005c .LASF46
     /tmp/ccxHaSf0.s:2407   .debug_loc:00000000000002de .LLST18
     /tmp/ccxHaSf0.s:387    .text:0000000000000198 .LBB13
     /tmp/ccxHaSf0.s:399    .text:000000000000019c .LBE13
     /tmp/ccxHaSf0.s:460    .text:0000000000000224 .LBB15
     /tmp/ccxHaSf0.s:470    .text:0000000000000230 .LBE15
     /tmp/ccxHaSf0.s:2418   .debug_loc:0000000000000314 .LLST19
     /tmp/ccxHaSf0.s:403    .text:00000000000001a4 .LVL50
     /tmp/ccxHaSf0.s:408    .text:00000000000001b4 .LVL51
     /tmp/ccxHaSf0.s:413    .text:00000000000001c0 .LVL52
     /tmp/ccxHaSf0.s:423    .text:00000000000001d8 .LVL53
     /tmp/ccxHaSf0.s:433    .text:00000000000001f0 .LVL54
     /tmp/ccxHaSf0.s:443    .text:0000000000000208 .LVL55
     /tmp/ccxHaSf0.s:453    .text:000000000000021c .LVL57
     /tmp/ccxHaSf0.s:478    .text:0000000000000244 .LVL61
     /tmp/ccxHaSf0.s:484    .text:0000000000000254 .LVL62
     /tmp/ccxHaSf0.s:490    .text:0000000000000264 .LVL63
     /tmp/ccxHaSf0.s:495    .text:0000000000000270 .LVL64
     /tmp/ccxHaSf0.s:503    .text:0000000000000280 .LVL66
     /tmp/ccxHaSf0.s:508    .text:000000000000028c .LVL67
     /tmp/ccxHaSf0.s:516    .text:000000000000029c .LVL69
     /tmp/ccxHaSf0.s:2572   .debug_str:000000000000020d .LASF48
     /tmp/ccxHaSf0.s:2504   .debug_str:0000000000000000 .LASF50
     /tmp/ccxHaSf0.s:10     .text:0000000000000000 .LFB10
     /tmp/ccxHaSf0.s:196    .text:000000000000017c .LFE10
     /tmp/ccxHaSf0.s:2425   .debug_loc:0000000000000337 .LLST0
     /tmp/ccxHaSf0.s:2436   .debug_loc:000000000000036d .LLST1
     /tmp/ccxHaSf0.s:2443   .debug_loc:0000000000000390 .LLST2
     /tmp/ccxHaSf0.s:2454   .debug_loc:00000000000003c6 .LLST3
     /tmp/ccxHaSf0.s:2461   .debug_loc:00000000000003e9 .LLST4
     /tmp/ccxHaSf0.s:2468   .debug_loc:000000000000040c .LLST5
     /tmp/ccxHaSf0.s:32     .text:0000000000000028 .LVL0
     /tmp/ccxHaSf0.s:44     .text:0000000000000040 .LVL3
     /tmp/ccxHaSf0.s:49     .text:000000000000004c .LVL4
     /tmp/ccxHaSf0.s:54     .text:0000000000000058 .LVL5
     /tmp/ccxHaSf0.s:64     .text:000000000000006c .LVL7
     /tmp/ccxHaSf0.s:69     .text:0000000000000078 .LVL8
     /tmp/ccxHaSf0.s:74     .text:0000000000000084 .LVL9
     /tmp/ccxHaSf0.s:86     .text:000000000000009c .LVL12
     /tmp/ccxHaSf0.s:91     .text:00000000000000a8 .LVL13
     /tmp/ccxHaSf0.s:96     .text:00000000000000b4 .LVL14
     /tmp/ccxHaSf0.s:107    .text:00000000000000cc .LVL16
     /tmp/ccxHaSf0.s:112    .text:00000000000000d8 .LVL17
     /tmp/ccxHaSf0.s:117    .text:00000000000000e4 .LVL18
     /tmp/ccxHaSf0.s:127    .text:00000000000000f8 .LVL20
     /tmp/ccxHaSf0.s:132    .text:0000000000000104 .LVL21
GAS LISTING /tmp/ccxHaSf0.s 			page 21


     /tmp/ccxHaSf0.s:139    .text:0000000000000114 .LVL22
     /tmp/ccxHaSf0.s:147    .text:0000000000000124 .LVL23
     /tmp/ccxHaSf0.s:155    .text:0000000000000134 .LVL24
     /tmp/ccxHaSf0.s:161    .text:0000000000000140 .LVL25
     /tmp/ccxHaSf0.s:171    .text:0000000000000154 .LVL27
     /tmp/ccxHaSf0.s:176    .text:0000000000000160 .LVL28
     /tmp/ccxHaSf0.s:2582   .debug_str:0000000000000253 .LASF51
     /tmp/ccxHaSf0.s:2554   .debug_str:0000000000000153 .LASF52
     /tmp/ccxHaSf0.s:2612   .debug_str:000000000000032f .LASF54
     /tmp/ccxHaSf0.s:2546   .debug_str:000000000000012e .LASF53
     /tmp/ccxHaSf0.s:2630   .debug_str:0000000000000455 .LASF55
     /tmp/ccxHaSf0.s:2636   .debug_str:0000000000000470 .LASF56
     /tmp/ccxHaSf0.s:2542   .debug_str:0000000000000115 .LASF57
     /tmp/ccxHaSf0.s:2626   .debug_str:0000000000000433 .LASF58
     /tmp/ccxHaSf0.s:2526   .debug_str:0000000000000084 .LASF59
     /tmp/ccxHaSf0.s:2598   .debug_str:00000000000002ae .LASF60
     /tmp/ccxHaSf0.s:281    .text._ZN4ListIPmE10removeLastEv:0000000000000000 .LVL40
     /tmp/ccxHaSf0.s:322    .text._ZN4ListIPmE10removeLastEv:000000000000004c .LVL44
     /tmp/ccxHaSf0.s:352    .text._ZN4ListIPmE10removeLastEv:0000000000000080 .LVL47
     /tmp/ccxHaSf0.s:304    .text._ZN4ListIPmE10removeLastEv:0000000000000030 .LVL41
     /tmp/ccxHaSf0.s:313    .text._ZN4ListIPmE10removeLastEv:000000000000003c .LVL42
     /tmp/ccxHaSf0.s:316    .text._ZN4ListIPmE10removeLastEv:0000000000000044 .LVL43
     /tmp/ccxHaSf0.s:332    .text._ZN4ListIPmE10removeLastEv:000000000000005c .LVL45
     /tmp/ccxHaSf0.s:207    .text._ZN4ListIPmE8addFirstEPS0_:0000000000000000 .LVL32
     /tmp/ccxHaSf0.s:224    .text._ZN4ListIPmE8addFirstEPS0_:0000000000000024 .LVL33
     /tmp/ccxHaSf0.s:257    .text._ZN4ListIPmE8addFirstEPS0_:000000000000005c .LVL37
     /tmp/ccxHaSf0.s:264    .text._ZN4ListIPmE8addFirstEPS0_:0000000000000068 .LVL39
     /tmp/ccxHaSf0.s:260    .text._ZN4ListIPmE8addFirstEPS0_:0000000000000060 .LVL38
     /tmp/ccxHaSf0.s:228    .text._ZN4ListIPmE8addFirstEPS0_:0000000000000030 .LVL35
     /tmp/ccxHaSf0.s:234    .text._ZN4ListIPmE8addFirstEPS0_:0000000000000038 .LVL36
     /tmp/ccxHaSf0.s:451    .text:0000000000000214 .LVL56
     /tmp/ccxHaSf0.s:476    .text:000000000000023c .LVL60
     /tmp/ccxHaSf0.s:501    .text:0000000000000278 .LVL65
     /tmp/ccxHaSf0.s:514    .text:0000000000000294 .LVL68
     /tmp/ccxHaSf0.s:459    .text:0000000000000224 .LVL58
     /tmp/ccxHaSf0.s:467    .text:0000000000000230 .LVL59
     /tmp/ccxHaSf0.s:34     .text:000000000000002c .LVL1
     /tmp/ccxHaSf0.s:42     .text:0000000000000038 .LVL2
     /tmp/ccxHaSf0.s:191    .text:0000000000000174 .LVL31
     /tmp/ccxHaSf0.s:62     .text:0000000000000064 .LVL6
     /tmp/ccxHaSf0.s:76     .text:0000000000000088 .LVL10
     /tmp/ccxHaSf0.s:84     .text:0000000000000094 .LVL11
     /tmp/ccxHaSf0.s:188    .text:0000000000000170 .LVL30
     /tmp/ccxHaSf0.s:98     .text:00000000000000b8 .LVL15
     /tmp/ccxHaSf0.s:185    .text:000000000000016c .LVL29
     /tmp/ccxHaSf0.s:125    .text:00000000000000f0 .LVL19
     /tmp/ccxHaSf0.s:169    .text:000000000000014c .LVL26
     /tmp/ccxHaSf0.s:537    .debug_info:0000000000000000 .Ldebug_info0
     /tmp/ccxHaSf0.s:5      .text:0000000000000000 .Ltext0
     /tmp/ccxHaSf0.s:531    .text:00000000000002b0 .Letext0

UNDEFINED SYMBOLS
_Znwm
__putc
_ZdlPv
SupervisorTrap
_Z11printStringPKc
GAS LISTING /tmp/ccxHaSf0.s 			page 22


_Z12printIntegerm
