GAS LISTING /tmp/ccOffBpn.s 			page 1


   1              		.file	"main.cpp"
   2              		.option pic
   3              		.option norelax
   4              		.text
   5              	.Ltext0:
   6              		.section	.rodata.str1.8,"aMS",@progbits,1
   7              		.align	3
   8              	.LC0:
   9 0000 75736572 		.string	"user main start:\n"
   9      206D6169 
   9      6E207374 
   9      6172743A 
   9      0A00
  10 0012 00000000 		.align	3
  10      0000
  11              	.LC1:
  12 0018 75736572 		.string	"user main end:\n"
  12      206D6169 
  12      6E20656E 
  12      643A0A00 
  13              		.text
  14              		.align	2
  15              		.globl	_Z11userWrapperPv
  17              	_Z11userWrapperPv:
  18              	.LFB29:
  19              		.file 1 "src/main.cpp"
   1:src/main.cpp  **** 
   2:src/main.cpp  **** #include "../lib/console.h"
   3:src/main.cpp  **** #include  "../lib/hw.h"
   4:src/main.cpp  **** #include "../h/MemoryAllocator.hpp"
   5:src/main.cpp  **** #include "../h/syscall_c.hpp"
   6:src/main.cpp  **** #include  "../h/syscall_cpp.hpp"
   7:src/main.cpp  **** #include "../h/Riscv.hpp"
   8:src/main.cpp  **** #include "../h/print.hpp"
   9:src/main.cpp  **** #include "../h/List.hpp"
  10:src/main.cpp  **** #include  "../h/TCB.hpp"
  11:src/main.cpp  **** #include "../h/workers.hpp"
  12:src/main.cpp  **** 
  13:src/main.cpp  **** 
  14:src/main.cpp  **** 
  15:src/main.cpp  **** 
  16:src/main.cpp  **** 
  17:src/main.cpp  **** void AllocatorTest() {
  18:src/main.cpp  ****     uint64* a1=new uint64;
  19:src/main.cpp  ****     *a1=4;
  20:src/main.cpp  ****     __putc(*a1+'0');
  21:src/main.cpp  ****     __putc('\n');
  22:src/main.cpp  ****     uint64* a2=new uint64;
  23:src/main.cpp  ****     *a2=5;
  24:src/main.cpp  ****     __putc(*a2+'0');
  25:src/main.cpp  ****     __putc('\n');
  26:src/main.cpp  ****     uint64* a3=new uint64;
  27:src/main.cpp  ****     *a3=6;
  28:src/main.cpp  ****     __putc(*a3+'0');
  29:src/main.cpp  ****     __putc('\n');
  30:src/main.cpp  ****     uint64* a4=new uint64;
  31:src/main.cpp  ****     *a4=7;
GAS LISTING /tmp/ccOffBpn.s 			page 2


  32:src/main.cpp  ****     __putc(*a4+'0');
  33:src/main.cpp  ****     __putc('\n');
  34:src/main.cpp  ****     uint64* a5=new uint64;
  35:src/main.cpp  ****     *a5=8;
  36:src/main.cpp  ****     __putc(*a5+'0');
  37:src/main.cpp  ****     __putc('\n');
  38:src/main.cpp  ****     delete a1;
  39:src/main.cpp  ****     delete a3;
  40:src/main.cpp  ****     delete a4;
  41:src/main.cpp  ****     uint64* a6=new uint64;
  42:src/main.cpp  ****     *a6=9;
  43:src/main.cpp  ****     __putc(*a6+'0');
  44:src/main.cpp  ****     __putc('\n');
  45:src/main.cpp  **** }
  46:src/main.cpp  **** extern void userMain();
  47:src/main.cpp  **** 
  48:src/main.cpp  **** void userWrapper(void* arg)
  49:src/main.cpp  **** {
  20              		.loc 1 49 1
  21              		.cfi_startproc
  22              	.LVL0:
  23 0000 130101FF 		addi	sp,sp,-16
  24              		.cfi_def_cfa_offset 16
  25 0004 23341100 		sd	ra,8(sp)
  26 0008 23308100 		sd	s0,0(sp)
  27              		.cfi_offset 1, -8
  28              		.cfi_offset 8, -16
  29 000c 13040101 		addi	s0,sp,16
  30              		.cfi_def_cfa 8, 0
  50:src/main.cpp  ****     printString("user main start:\n");
  31              		.loc 1 50 5
  32              		.loc 1 50 16 is_stmt 0
  33 0010 17050000 		lla	a0,.LC0
  33      13050500 
  34              	.LVL1:
  35 0018 97000000 		call	_Z11printStringPKc@plt
  35      E7800000 
  36              	.LVL2:
  51:src/main.cpp  ****     userMain();
  37              		.loc 1 51 5 is_stmt 1
  38              		.loc 1 51 13 is_stmt 0
  39 0020 97000000 		call	_Z8userMainv@plt
  39      E7800000 
  40              	.LVL3:
  52:src/main.cpp  ****     printString("user main end:\n");
  41              		.loc 1 52 5 is_stmt 1
  42              		.loc 1 52 16 is_stmt 0
  43 0028 17050000 		lla	a0,.LC1
  43      13050500 
  44 0030 97000000 		call	_Z11printStringPKc@plt
  44      E7800000 
  45              	.LVL4:
  53:src/main.cpp  **** }
  46              		.loc 1 53 1
  47 0038 83308100 		ld	ra,8(sp)
  48              		.cfi_restore 1
  49 003c 03340100 		ld	s0,0(sp)
GAS LISTING /tmp/ccOffBpn.s 			page 3


  50              		.cfi_restore 8
  51              		.cfi_def_cfa 2, 16
  52 0040 13010101 		addi	sp,sp,16
  53              		.cfi_def_cfa_offset 0
  54 0044 67800000 		jr	ra
  55              		.cfi_endproc
  56              	.LFE29:
  58              		.align	2
  59              		.globl	_Z13AllocatorTestv
  61              	_Z13AllocatorTestv:
  62              	.LFB28:
  17:src/main.cpp  ****     uint64* a1=new uint64;
  63              		.loc 1 17 22 is_stmt 1
  64              		.cfi_startproc
  65 0048 130101FD 		addi	sp,sp,-48
  66              		.cfi_def_cfa_offset 48
  67 004c 23341102 		sd	ra,40(sp)
  68 0050 23308102 		sd	s0,32(sp)
  69 0054 233C9100 		sd	s1,24(sp)
  70 0058 23382101 		sd	s2,16(sp)
  71 005c 23343101 		sd	s3,8(sp)
  72              		.cfi_offset 1, -8
  73              		.cfi_offset 8, -16
  74              		.cfi_offset 9, -24
  75              		.cfi_offset 18, -32
  76              		.cfi_offset 19, -40
  77 0060 13040103 		addi	s0,sp,48
  78              		.cfi_def_cfa 8, 0
  18:src/main.cpp  ****     *a1=4;
  79              		.loc 1 18 5
  18:src/main.cpp  ****     *a1=4;
  80              		.loc 1 18 20 is_stmt 0
  81 0064 13058000 		li	a0,8
  82 0068 97000000 		call	_Znwm@plt
  82      E7800000 
  83              	.LVL5:
  84 0070 93090500 		mv	s3,a0
  85              	.LVL6:
  19:src/main.cpp  ****     __putc(*a1+'0');
  86              		.loc 1 19 5 is_stmt 1
  19:src/main.cpp  ****     __putc(*a1+'0');
  87              		.loc 1 19 8 is_stmt 0
  88 0074 93074000 		li	a5,4
  89 0078 2330F500 		sd	a5,0(a0)
  20:src/main.cpp  ****     __putc('\n');
  90              		.loc 1 20 5 is_stmt 1
  20:src/main.cpp  ****     __putc('\n');
  91              		.loc 1 20 11 is_stmt 0
  92 007c 13054003 		li	a0,52
  93              	.LVL7:
  94 0080 97000000 		call	__putc@plt
  94      E7800000 
  95              	.LVL8:
  21:src/main.cpp  ****     uint64* a2=new uint64;
  96              		.loc 1 21 5 is_stmt 1
  21:src/main.cpp  ****     uint64* a2=new uint64;
  97              		.loc 1 21 11 is_stmt 0
GAS LISTING /tmp/ccOffBpn.s 			page 4


  98 0088 1305A000 		li	a0,10
  99 008c 97000000 		call	__putc@plt
  99      E7800000 
 100              	.LVL9:
  22:src/main.cpp  ****     *a2=5;
 101              		.loc 1 22 5 is_stmt 1
  22:src/main.cpp  ****     *a2=5;
 102              		.loc 1 22 20 is_stmt 0
 103 0094 13058000 		li	a0,8
 104 0098 97000000 		call	_Znwm@plt
 104      E7800000 
 105              	.LVL10:
  23:src/main.cpp  ****     __putc(*a2+'0');
 106              		.loc 1 23 5 is_stmt 1
  23:src/main.cpp  ****     __putc(*a2+'0');
 107              		.loc 1 23 8 is_stmt 0
 108 00a0 93075000 		li	a5,5
 109 00a4 2330F500 		sd	a5,0(a0)
  24:src/main.cpp  ****     __putc('\n');
 110              		.loc 1 24 5 is_stmt 1
  24:src/main.cpp  ****     __putc('\n');
 111              		.loc 1 24 11 is_stmt 0
 112 00a8 13055003 		li	a0,53
 113              	.LVL11:
 114 00ac 97000000 		call	__putc@plt
 114      E7800000 
 115              	.LVL12:
  25:src/main.cpp  ****     uint64* a3=new uint64;
 116              		.loc 1 25 5 is_stmt 1
  25:src/main.cpp  ****     uint64* a3=new uint64;
 117              		.loc 1 25 11 is_stmt 0
 118 00b4 1305A000 		li	a0,10
 119 00b8 97000000 		call	__putc@plt
 119      E7800000 
 120              	.LVL13:
  26:src/main.cpp  ****     *a3=6;
 121              		.loc 1 26 5 is_stmt 1
  26:src/main.cpp  ****     *a3=6;
 122              		.loc 1 26 20 is_stmt 0
 123 00c0 13058000 		li	a0,8
 124 00c4 97000000 		call	_Znwm@plt
 124      E7800000 
 125              	.LVL14:
 126 00cc 13090500 		mv	s2,a0
 127              	.LVL15:
  27:src/main.cpp  ****     __putc(*a3+'0');
 128              		.loc 1 27 5 is_stmt 1
  27:src/main.cpp  ****     __putc(*a3+'0');
 129              		.loc 1 27 8 is_stmt 0
 130 00d0 93076000 		li	a5,6
 131 00d4 2330F500 		sd	a5,0(a0)
  28:src/main.cpp  ****     __putc('\n');
 132              		.loc 1 28 5 is_stmt 1
  28:src/main.cpp  ****     __putc('\n');
 133              		.loc 1 28 11 is_stmt 0
 134 00d8 13056003 		li	a0,54
 135              	.LVL16:
GAS LISTING /tmp/ccOffBpn.s 			page 5


 136 00dc 97000000 		call	__putc@plt
 136      E7800000 
 137              	.LVL17:
  29:src/main.cpp  ****     uint64* a4=new uint64;
 138              		.loc 1 29 5 is_stmt 1
  29:src/main.cpp  ****     uint64* a4=new uint64;
 139              		.loc 1 29 11 is_stmt 0
 140 00e4 1305A000 		li	a0,10
 141 00e8 97000000 		call	__putc@plt
 141      E7800000 
 142              	.LVL18:
  30:src/main.cpp  ****     *a4=7;
 143              		.loc 1 30 5 is_stmt 1
  30:src/main.cpp  ****     *a4=7;
 144              		.loc 1 30 20 is_stmt 0
 145 00f0 13058000 		li	a0,8
 146 00f4 97000000 		call	_Znwm@plt
 146      E7800000 
 147              	.LVL19:
 148 00fc 93040500 		mv	s1,a0
 149              	.LVL20:
  31:src/main.cpp  ****     __putc(*a4+'0');
 150              		.loc 1 31 5 is_stmt 1
  31:src/main.cpp  ****     __putc(*a4+'0');
 151              		.loc 1 31 8 is_stmt 0
 152 0100 93077000 		li	a5,7
 153 0104 2330F500 		sd	a5,0(a0)
  32:src/main.cpp  ****     __putc('\n');
 154              		.loc 1 32 5 is_stmt 1
  32:src/main.cpp  ****     __putc('\n');
 155              		.loc 1 32 11 is_stmt 0
 156 0108 13057003 		li	a0,55
 157 010c 97000000 		call	__putc@plt
 157      E7800000 
 158              	.LVL21:
  33:src/main.cpp  ****     uint64* a5=new uint64;
 159              		.loc 1 33 5 is_stmt 1
  33:src/main.cpp  ****     uint64* a5=new uint64;
 160              		.loc 1 33 11 is_stmt 0
 161 0114 1305A000 		li	a0,10
 162 0118 97000000 		call	__putc@plt
 162      E7800000 
 163              	.LVL22:
  34:src/main.cpp  ****     *a5=8;
 164              		.loc 1 34 5 is_stmt 1
  34:src/main.cpp  ****     *a5=8;
 165              		.loc 1 34 20 is_stmt 0
 166 0120 13058000 		li	a0,8
 167 0124 97000000 		call	_Znwm@plt
 167      E7800000 
 168              	.LVL23:
  35:src/main.cpp  ****     __putc(*a5+'0');
 169              		.loc 1 35 5 is_stmt 1
  35:src/main.cpp  ****     __putc(*a5+'0');
 170              		.loc 1 35 8 is_stmt 0
 171 012c 93078000 		li	a5,8
 172 0130 2330F500 		sd	a5,0(a0)
GAS LISTING /tmp/ccOffBpn.s 			page 6


  36:src/main.cpp  ****     __putc('\n');
 173              		.loc 1 36 5 is_stmt 1
  36:src/main.cpp  ****     __putc('\n');
 174              		.loc 1 36 11 is_stmt 0
 175 0134 13058003 		li	a0,56
 176              	.LVL24:
 177 0138 97000000 		call	__putc@plt
 177      E7800000 
 178              	.LVL25:
  37:src/main.cpp  ****     delete a1;
 179              		.loc 1 37 5 is_stmt 1
  37:src/main.cpp  ****     delete a1;
 180              		.loc 1 37 11 is_stmt 0
 181 0140 1305A000 		li	a0,10
 182 0144 97000000 		call	__putc@plt
 182      E7800000 
 183              	.LVL26:
  38:src/main.cpp  ****     delete a3;
 184              		.loc 1 38 5 is_stmt 1
  38:src/main.cpp  ****     delete a3;
 185              		.loc 1 38 14 is_stmt 0
 186 014c 63880900 		beqz	s3,.L4
  38:src/main.cpp  ****     delete a3;
 187              		.loc 1 38 12 discriminator 1
 188 0150 13850900 		mv	a0,s3
 189 0154 97000000 		call	_ZdlPv@plt
 189      E7800000 
 190              	.LVL27:
 191              	.L4:
  39:src/main.cpp  ****     delete a4;
 192              		.loc 1 39 5 is_stmt 1
  39:src/main.cpp  ****     delete a4;
 193              		.loc 1 39 14 is_stmt 0
 194 015c 63080900 		beqz	s2,.L5
  39:src/main.cpp  ****     delete a4;
 195              		.loc 1 39 12 discriminator 1
 196 0160 13050900 		mv	a0,s2
 197 0164 97000000 		call	_ZdlPv@plt
 197      E7800000 
 198              	.LVL28:
 199              	.L5:
  40:src/main.cpp  ****     uint64* a6=new uint64;
 200              		.loc 1 40 5 is_stmt 1
  40:src/main.cpp  ****     uint64* a6=new uint64;
 201              		.loc 1 40 14 is_stmt 0
 202 016c 63880400 		beqz	s1,.L6
  40:src/main.cpp  ****     uint64* a6=new uint64;
 203              		.loc 1 40 12 discriminator 1
 204 0170 13850400 		mv	a0,s1
 205 0174 97000000 		call	_ZdlPv@plt
 205      E7800000 
 206              	.LVL29:
 207              	.L6:
  41:src/main.cpp  ****     *a6=9;
 208              		.loc 1 41 5 is_stmt 1
  41:src/main.cpp  ****     *a6=9;
 209              		.loc 1 41 20 is_stmt 0
GAS LISTING /tmp/ccOffBpn.s 			page 7


 210 017c 13058000 		li	a0,8
 211 0180 97000000 		call	_Znwm@plt
 211      E7800000 
 212              	.LVL30:
  42:src/main.cpp  ****     __putc(*a6+'0');
 213              		.loc 1 42 5 is_stmt 1
  42:src/main.cpp  ****     __putc(*a6+'0');
 214              		.loc 1 42 8 is_stmt 0
 215 0188 93079000 		li	a5,9
 216 018c 2330F500 		sd	a5,0(a0)
  43:src/main.cpp  ****     __putc('\n');
 217              		.loc 1 43 5 is_stmt 1
  43:src/main.cpp  ****     __putc('\n');
 218              		.loc 1 43 11 is_stmt 0
 219 0190 13059003 		li	a0,57
 220              	.LVL31:
 221 0194 97000000 		call	__putc@plt
 221      E7800000 
 222              	.LVL32:
  44:src/main.cpp  **** }
 223              		.loc 1 44 5 is_stmt 1
  44:src/main.cpp  **** }
 224              		.loc 1 44 11 is_stmt 0
 225 019c 1305A000 		li	a0,10
 226 01a0 97000000 		call	__putc@plt
 226      E7800000 
 227              	.LVL33:
  45:src/main.cpp  **** extern void userMain();
 228              		.loc 1 45 1
 229 01a8 83308102 		ld	ra,40(sp)
 230              		.cfi_restore 1
 231 01ac 03340102 		ld	s0,32(sp)
 232              		.cfi_restore 8
 233              		.cfi_def_cfa 2, 48
 234 01b0 83348101 		ld	s1,24(sp)
 235              		.cfi_restore 9
 236              	.LVL34:
 237 01b4 03390101 		ld	s2,16(sp)
 238              		.cfi_restore 18
 239              	.LVL35:
 240 01b8 83398100 		ld	s3,8(sp)
 241              		.cfi_restore 19
 242              	.LVL36:
 243 01bc 13010103 		addi	sp,sp,48
 244              		.cfi_def_cfa_offset 0
 245 01c0 67800000 		jr	ra
 246              		.cfi_endproc
 247              	.LFE28:
 249              		.align	2
 250              		.globl	_Z14WorkerAWrapperPv
 252              	_Z14WorkerAWrapperPv:
 253              	.LFB30:
  54:src/main.cpp  **** 
  55:src/main.cpp  **** void WorkerAWrapper(void* arg)
  56:src/main.cpp  **** {
 254              		.loc 1 56 1 is_stmt 1
 255              		.cfi_startproc
GAS LISTING /tmp/ccOffBpn.s 			page 8


 256              	.LVL37:
 257 01c4 130101FF 		addi	sp,sp,-16
 258              		.cfi_def_cfa_offset 16
 259 01c8 23341100 		sd	ra,8(sp)
 260 01cc 23308100 		sd	s0,0(sp)
 261              		.cfi_offset 1, -8
 262              		.cfi_offset 8, -16
 263 01d0 13040101 		addi	s0,sp,16
 264              		.cfi_def_cfa 8, 0
  57:src/main.cpp  ****     //printString("worker A start:\n");
  58:src/main.cpp  ****     workerBodyA();
 265              		.loc 1 58 5
 266              		.loc 1 58 16 is_stmt 0
 267 01d4 97000000 		call	_Z11workerBodyAv@plt
 267      E7800000 
 268              	.LVL38:
  59:src/main.cpp  ****     //printString("worker A end:\n");
  60:src/main.cpp  **** }
 269              		.loc 1 60 1
 270 01dc 83308100 		ld	ra,8(sp)
 271              		.cfi_restore 1
 272 01e0 03340100 		ld	s0,0(sp)
 273              		.cfi_restore 8
 274              		.cfi_def_cfa 2, 16
 275 01e4 13010101 		addi	sp,sp,16
 276              		.cfi_def_cfa_offset 0
 277 01e8 67800000 		jr	ra
 278              		.cfi_endproc
 279              	.LFE30:
 281              		.align	2
 282              		.globl	_Z14WorkerBWrapperPv
 284              	_Z14WorkerBWrapperPv:
 285              	.LFB31:
  61:src/main.cpp  **** 
  62:src/main.cpp  **** void WorkerBWrapper(void* arg)
  63:src/main.cpp  **** {
 286              		.loc 1 63 1 is_stmt 1
 287              		.cfi_startproc
 288              	.LVL39:
 289 01ec 130101FF 		addi	sp,sp,-16
 290              		.cfi_def_cfa_offset 16
 291 01f0 23341100 		sd	ra,8(sp)
 292 01f4 23308100 		sd	s0,0(sp)
 293              		.cfi_offset 1, -8
 294              		.cfi_offset 8, -16
 295 01f8 13040101 		addi	s0,sp,16
 296              		.cfi_def_cfa 8, 0
  64:src/main.cpp  ****     //printString("worker B start:\n");
  65:src/main.cpp  ****     workerBodyB();
 297              		.loc 1 65 5
 298              		.loc 1 65 16 is_stmt 0
 299 01fc 97000000 		call	_Z11workerBodyBv@plt
 299      E7800000 
 300              	.LVL40:
  66:src/main.cpp  ****     //printString("worker B end:\n");
  67:src/main.cpp  **** }
 301              		.loc 1 67 1
GAS LISTING /tmp/ccOffBpn.s 			page 9


 302 0204 83308100 		ld	ra,8(sp)
 303              		.cfi_restore 1
 304 0208 03340100 		ld	s0,0(sp)
 305              		.cfi_restore 8
 306              		.cfi_def_cfa 2, 16
 307 020c 13010101 		addi	sp,sp,16
 308              		.cfi_def_cfa_offset 0
 309 0210 67800000 		jr	ra
 310              		.cfi_endproc
 311              	.LFE31:
 313              		.section	.rodata.str1.8
 314              		.align	3
 315              	.LC2:
 316 0028 46696E69 		.string	"Finished\n"
 316      73686564 
 316      0A00
 317              		.text
 318              		.align	2
 319              		.globl	main
 321              	main:
 322              	.LFB32:
  68:src/main.cpp  **** 
  69:src/main.cpp  **** 
  70:src/main.cpp  **** 
  71:src/main.cpp  **** 
  72:src/main.cpp  **** 
  73:src/main.cpp  **** void main() {
 323              		.loc 1 73 13 is_stmt 1
 324              		.cfi_startproc
 325 0214 130101FC 		addi	sp,sp,-64
 326              		.cfi_def_cfa_offset 64
 327 0218 233C1102 		sd	ra,56(sp)
 328 021c 23388102 		sd	s0,48(sp)
 329 0220 23349102 		sd	s1,40(sp)
 330 0224 23302103 		sd	s2,32(sp)
 331              		.cfi_offset 1, -8
 332              		.cfi_offset 8, -16
 333              		.cfi_offset 9, -24
 334              		.cfi_offset 18, -32
 335 0228 13040104 		addi	s0,sp,64
 336              		.cfi_def_cfa 8, 0
  74:src/main.cpp  ****     Riscv::set_stvec((uint64)Riscv::SupervisorTrap);
 337              		.loc 1 74 5
 338              		.loc 1 74 21 is_stmt 0
 339 022c 97070000 		la	a5,_ZN5Riscv14SupervisorTrapEv
 339      83B70700 
 340              	.LVL41:
 341              	.LBB12:
 342              	.LBB13:
 343              		.file 2 "src/../h/../h/Riscv.hpp"
   1:src/../h/../h/Riscv.hpp **** //
   2:src/../h/../h/Riscv.hpp **** // Created by os on 9/8/25.
   3:src/../h/../h/Riscv.hpp **** //
   4:src/../h/../h/Riscv.hpp **** 
   5:src/../h/../h/Riscv.hpp **** #ifndef PROJECT_BASE_V1_1_COPY_RISCV_HPP
   6:src/../h/../h/Riscv.hpp **** #define PROJECT_BASE_V1_1_COPY_RISCV_HPP
   7:src/../h/../h/Riscv.hpp **** #include "../lib/hw.h"
GAS LISTING /tmp/ccOffBpn.s 			page 10


   8:src/../h/../h/Riscv.hpp **** 
   9:src/../h/../h/Riscv.hpp **** class Riscv {
  10:src/../h/../h/Riscv.hpp **** public:
  11:src/../h/../h/Riscv.hpp ****     static void set_stvec(uint64 stvec);
  12:src/../h/../h/Riscv.hpp ****     static void set_sepc(uint64 sepc);
  13:src/../h/../h/Riscv.hpp ****     static uint64 get_sepc();
  14:src/../h/../h/Riscv.hpp ****     static void set_sstatus(uint64 sstatus);
  15:src/../h/../h/Riscv.hpp ****     static uint64 get_sstatus();
  16:src/../h/../h/Riscv.hpp ****     static uint64 get_scause();
  17:src/../h/../h/Riscv.hpp ****     static uint64 get_stval();
  18:src/../h/../h/Riscv.hpp ****     static void ms_sstatus(uint64 mask);
  19:src/../h/../h/Riscv.hpp ****     static void mc_sstatus(uint64 mask);
  20:src/../h/../h/Riscv.hpp ****     static void mc_sip(uint64 mask);
  21:src/../h/../h/Riscv.hpp ****     static void ms_sie(uint64 mask);
  22:src/../h/../h/Riscv.hpp ****     enum BitMaskSstatus
  23:src/../h/../h/Riscv.hpp ****     {
  24:src/../h/../h/Riscv.hpp ****         SSTATUS_SIE=(1UL<<1),
  25:src/../h/../h/Riscv.hpp ****         SSTATUS_SPIE=(1UL<<5),
  26:src/../h/../h/Riscv.hpp ****         SSTATUS_SPP=(1UL<<8)
  27:src/../h/../h/Riscv.hpp ****     };
  28:src/../h/../h/Riscv.hpp ****     enum BitMaskSip: uint64
  29:src/../h/../h/Riscv.hpp ****     {
  30:src/../h/../h/Riscv.hpp ****         SIP_SSIP=(1UL<<1),
  31:src/../h/../h/Riscv.hpp ****         SIP_STIP=(1UL<<5),
  32:src/../h/../h/Riscv.hpp ****         SIP_SEIP=(1UL<<9)
  33:src/../h/../h/Riscv.hpp ****     };
  34:src/../h/../h/Riscv.hpp ****     enum BitMaskSie: uint64
  35:src/../h/../h/Riscv.hpp ****     {
  36:src/../h/../h/Riscv.hpp ****         SIE_SSIE=(1UL<<1),
  37:src/../h/../h/Riscv.hpp ****         SIE_SEIE=(1UL<<9)
  38:src/../h/../h/Riscv.hpp ****     };
  39:src/../h/../h/Riscv.hpp **** 
  40:src/../h/../h/Riscv.hpp **** 
  41:src/../h/../h/Riscv.hpp ****     static void SupervisorTrap();
  42:src/../h/../h/Riscv.hpp **** 
  43:src/../h/../h/Riscv.hpp ****     static void restorePrivilege();
  44:src/../h/../h/Riscv.hpp ****     static void popSppSpie();
  45:src/../h/../h/Riscv.hpp **** 
  46:src/../h/../h/Riscv.hpp **** 
  47:src/../h/../h/Riscv.hpp **** 
  48:src/../h/../h/Riscv.hpp ****     static void SupervisorTrapHandler();
  49:src/../h/../h/Riscv.hpp **** };
  50:src/../h/../h/Riscv.hpp **** 
  51:src/../h/../h/Riscv.hpp **** 
  52:src/../h/../h/Riscv.hpp **** inline void Riscv::set_stvec(uint64 stvec) {
  53:src/../h/../h/Riscv.hpp ****     __asm__ volatile ("csrw stvec, %[x]" :: [x] "r" (stvec));
 344              		.loc 2 53 5 is_stmt 1
 345              		.loc 2 53 61 is_stmt 0
 346              	#APP
 347              	# 53 "src/../h/../h/Riscv.hpp" 1
  54              	}
 348              		csrw stvec, a5
 349              	# 0 "" 2
 350              	.LVL42:
 351              	#NO_APP
 352              	.LBE13:
 353              	.LBE12:
GAS LISTING /tmp/ccOffBpn.s 			page 11


  75:src/main.cpp  ****     //AllocatorTest();
  76:src/main.cpp  **** 
  77:src/main.cpp  **** 
  78:src/main.cpp  **** 
  79:src/main.cpp  ****      thread_t coroutines[3];
 354              		.loc 1 79 6 is_stmt 1
  80:src/main.cpp  ****      thread_create(&coroutines[0],nullptr,nullptr);
 355              		.loc 1 80 6
 356              		.loc 1 80 19 is_stmt 0
 357 0238 13060000 		li	a2,0
 358 023c 93050000 		li	a1,0
 359 0240 130584FC 		addi	a0,s0,-56
 360 0244 97000000 		call	_Z13thread_createPP3TCBPFvPvES2_@plt
 360      E7800000 
 361              	.LVL43:
  81:src/main.cpp  ****      coroutines[0]->setSysThread(true);
 362              		.loc 1 81 6 is_stmt 1
 363              	.LBB14:
 364              	.LBB15:
 365              		.file 3 "src/../h/TCB.hpp"
   1:src/../h/TCB.hpp **** //
   2:src/../h/TCB.hpp **** // Created by os on 9/23/25.
   3:src/../h/TCB.hpp **** //
   4:src/../h/TCB.hpp **** 
   5:src/../h/TCB.hpp **** #ifndef PROJECT_BASE_V1_1_COPY_TCB_HPP
   6:src/../h/TCB.hpp **** #define PROJECT_BASE_V1_1_COPY_TCB_HPP
   7:src/../h/TCB.hpp **** #include "../lib/hw.h"
   8:src/../h/TCB.hpp **** #include "../h/Scheduler.hpp"
   9:src/../h/TCB.hpp **** #include "../h/Riscv.hpp"
  10:src/../h/TCB.hpp **** #include "../h/MemoryAllocator.hpp"
  11:src/../h/TCB.hpp **** class TCB
  12:src/../h/TCB.hpp **** {
  13:src/../h/TCB.hpp **** public:
  14:src/../h/TCB.hpp ****     void* operator new(size_t size)
  15:src/../h/TCB.hpp **** {
  16:src/../h/TCB.hpp ****     return MemoryAllocator::Instance()->mem_alloc(size);
  17:src/../h/TCB.hpp **** }
  18:src/../h/TCB.hpp **** 
  19:src/../h/TCB.hpp ****     void operator delete(void* ptr)
  20:src/../h/TCB.hpp ****     {
  21:src/../h/TCB.hpp ****         return MemoryAllocator::Instance()->mem_free(ptr);
  22:src/../h/TCB.hpp ****     }
  23:src/../h/TCB.hpp **** 
  24:src/../h/TCB.hpp **** 
  25:src/../h/TCB.hpp ****     using Body=void(*)(void*);
  26:src/../h/TCB.hpp **** 
  27:src/../h/TCB.hpp ****     ~TCB()
  28:src/../h/TCB.hpp ****     {
  29:src/../h/TCB.hpp ****         delete stack;
  30:src/../h/TCB.hpp ****     }
  31:src/../h/TCB.hpp **** 
  32:src/../h/TCB.hpp ****     static TCB* createThread(Body body, void* arg, uint64* stack);
  33:src/../h/TCB.hpp **** 
  34:src/../h/TCB.hpp ****     static void dispatch();
  35:src/../h/TCB.hpp ****     static int exit();
  36:src/../h/TCB.hpp **** 
  37:src/../h/TCB.hpp ****     bool isFinished() const { return finished;}
GAS LISTING /tmp/ccOffBpn.s 			page 12


  38:src/../h/TCB.hpp **** 
  39:src/../h/TCB.hpp ****     void setSysThread(bool sysThread) { this->sysThread = sysThread; }
 366              		.loc 3 39 41
 367              		.loc 3 39 57 is_stmt 0
 368 024c 833784FC 		ld	a5,-56(s0)
 369 0250 13071000 		li	a4,1
 370 0254 238CE700 		sb	a4,24(a5)
 371              	.LVL44:
 372              	.LBE15:
 373              	.LBE14:
  82:src/main.cpp  ****      thread_create(&coroutines[1],userWrapper,nullptr);
 374              		.loc 1 82 6 is_stmt 1
 375              		.loc 1 82 19 is_stmt 0
 376 0258 13060000 		li	a2,0
 377 025c 97050000 		lla	a1,_Z11userWrapperPv
 377      93850500 
 378 0264 130504FD 		addi	a0,s0,-48
 379 0268 97000000 		call	_Z13thread_createPP3TCBPFvPvES2_@plt
 379      E7800000 
 380              	.LVL45:
 381              	.L14:
  83:src/main.cpp  ****      //thread_create(&coroutines[2],WorkerBWrapper,nullptr);
  84:src/main.cpp  **** 
  85:src/main.cpp  **** 
  86:src/main.cpp  ****      while (Scheduler::queue.size>0 ) {
 382              		.loc 1 86 6 is_stmt 1
 383              		.loc 1 86 34
 384              		.loc 1 86 30 is_stmt 0
 385 0270 97070000 		la	a5,_ZN9Scheduler5queueE
 385      83B70700 
 386 0278 83A70701 		lw	a5,16(a5)
 387              		.loc 1 86 34
 388 027c 6358F000 		blez	a5,.L18
  87:src/main.cpp  ****          thread_dispatch();
 389              		.loc 1 87 10 is_stmt 1
 390              		.loc 1 87 25 is_stmt 0
 391 0280 97000000 		call	_Z15thread_dispatchv@plt
 391      E7800000 
 392              	.LVL46:
 393 0288 6FF09FFE 		j	.L14
 394              	.L18:
 395              	.LBB16:
  88:src/main.cpp  ****      }
  89:src/main.cpp  **** 
  90:src/main.cpp  ****      for (auto coroutine: coroutines) { delete coroutine; }
 396              		.loc 1 90 27
 397 028c 930484FC 		addi	s1,s0,-56
 398 0290 6F00C001 		j	.L13
 399              	.LVL47:
 400              	.L17:
 401              	.LBB17:
 402              	.LBB18:
  21:src/../h/TCB.hpp ****     }
 403              		.loc 3 21 9 is_stmt 1
  21:src/../h/TCB.hpp ****     }
 404              		.loc 3 21 53 is_stmt 0
 405 0294 97000000 		call	_ZN15MemoryAllocator8InstanceEv@plt
GAS LISTING /tmp/ccOffBpn.s 			page 13


 405      E7800000 
 406              	.LVL48:
 407 029c 93050900 		mv	a1,s2
 408 02a0 97000000 		call	_ZN15MemoryAllocator8mem_freeEPv@plt
 408      E7800000 
 409              	.LVL49:
 410              	.L16:
 411              	.LBE18:
 412              	.LBE17:
 413              		.loc 1 90 6 is_stmt 1 discriminator 4
 414 02a8 93848400 		addi	s1,s1,8
 415              	.LVL50:
 416              	.L13:
 417              		.loc 1 90 27 discriminator 5
 418 02ac 930704FE 		addi	a5,s0,-32
 419 02b0 6380F402 		beq	s1,a5,.L15
 420              		.loc 1 90 16 is_stmt 0 discriminator 2
 421 02b4 03B90400 		ld	s2,0(s1)
 422              	.LVL51:
 423              		.loc 1 90 41 is_stmt 1 discriminator 2
 424              		.loc 1 90 57 is_stmt 0 discriminator 2
 425 02b8 E30809FE 		beqz	s2,.L16
 426              	.LVL52:
 427              	.LBB19:
 428              	.LBB20:
  29:src/../h/TCB.hpp ****     }
 429              		.loc 3 29 9 is_stmt 1
  29:src/../h/TCB.hpp ****     }
 430              		.loc 3 29 16 is_stmt 0
 431 02bc 03358900 		ld	a0,8(s2)
  29:src/../h/TCB.hpp ****     }
 432              		.loc 3 29 21
 433 02c0 E30A05FC 		beqz	a0,.L17
  29:src/../h/TCB.hpp ****     }
 434              		.loc 3 29 16
 435 02c4 97000000 		call	_ZdlPv@plt
 435      E7800000 
 436              	.LVL53:
 437 02cc 6FF09FFC 		j	.L17
 438              	.LVL54:
 439              	.L15:
 440              	.LBE20:
 441              	.LBE19:
 442              	.LBE16:
  91:src/main.cpp  **** 
  92:src/main.cpp  ****      AllocatorTest();
 443              		.loc 1 92 6 is_stmt 1
 444              		.loc 1 92 19 is_stmt 0
 445 02d0 97000000 		call	_Z13AllocatorTestv
 445      E7800000 
 446              	.LVL55:
  93:src/main.cpp  ****      printString("Finished\n");
 447              		.loc 1 93 6 is_stmt 1
 448              		.loc 1 93 17 is_stmt 0
 449 02d8 17050000 		lla	a0,.LC2
 449      13050500 
 450 02e0 97000000 		call	_Z11printStringPKc@plt
GAS LISTING /tmp/ccOffBpn.s 			page 14


 450      E7800000 
 451              	.LVL56:
  94:src/main.cpp  **** 
  95:src/main.cpp  ****     //printString("OK\n");
  96:src/main.cpp  **** 
  97:src/main.cpp  **** 
  98:src/main.cpp  ****     // size_t pom1= mem_get_free_space();
  99:src/main.cpp  ****     // printString("Free mem: ");
 100:src/main.cpp  ****     // printInteger(pom1);
 101:src/main.cpp  ****     // printString("\n");
 102:src/main.cpp  ****     // size_t pom2= mem_get_largest_free_block();
 103:src/main.cpp  ****     // printString("Largest free block: ");
 104:src/main.cpp  ****     // printInteger(pom2);
 105:src/main.cpp  ****     // printString("\n");
 106:src/main.cpp  **** }
 452              		.loc 1 106 1
 453 02e8 83308103 		ld	ra,56(sp)
 454              		.cfi_restore 1
 455 02ec 03340103 		ld	s0,48(sp)
 456              		.cfi_restore 8
 457              		.cfi_def_cfa 2, 64
 458 02f0 83348102 		ld	s1,40(sp)
 459              		.cfi_restore 9
 460              	.LVL57:
 461 02f4 03390102 		ld	s2,32(sp)
 462              		.cfi_restore 18
 463 02f8 13010104 		addi	sp,sp,64
 464              		.cfi_def_cfa_offset 0
 465 02fc 67800000 		jr	ra
 466              		.cfi_endproc
 467              	.LFE32:
 469              	.Letext0:
 470              		.file 4 "src/../lib/hw.h"
 471              		.file 5 "src/../h/MemoryAllocator.hpp"
 472              		.file 6 "src/../h/syscall_c.hpp"
 473              		.file 7 "src/../h/syscall_cpp.hpp"
 474              		.file 8 "src/../h/print.hpp"
 475              		.file 9 "src/../h/workers.hpp"
 476              		.file 10 "src/../lib/console.h"
GAS LISTING /tmp/ccOffBpn.s 			page 15

