GAS LISTING /tmp/ccz9Gv0e.s 			page 1


   1              		.file	"MemoryAllocator.cpp"
   2              		.option pic
   3              		.option norelax
   4              		.text
   5              	.Ltext0:
   6              		.align	2
   7              		.globl	_ZN15MemoryAllocatorC2Ev
   9              	_ZN15MemoryAllocatorC2Ev:
  10              	.LFB1:
  11              		.file 1 "src/MemoryAllocator.cpp"
   1:src/MemoryAllocator.cpp **** //
   2:src/MemoryAllocator.cpp **** // Created by os on 9/7/25.
   3:src/MemoryAllocator.cpp **** //
   4:src/MemoryAllocator.cpp **** 
   5:src/MemoryAllocator.cpp **** #include "../h/MemoryAllocator.hpp"
   6:src/MemoryAllocator.cpp **** #include "../lib/console.h"
   7:src/MemoryAllocator.cpp **** 
   8:src/MemoryAllocator.cpp **** 
   9:src/MemoryAllocator.cpp **** MemoryAllocator::MemoryAllocator() {
  12              		.loc 1 9 1
  13              		.cfi_startproc
  14              	.LVL0:
  15 0000 130101FF 		addi	sp,sp,-16
  16              		.cfi_def_cfa_offset 16
  17 0004 23348100 		sd	s0,8(sp)
  18              		.cfi_offset 8, -8
  19 0008 13040101 		addi	s0,sp,16
  20              		.cfi_def_cfa 8, 0
  21              	.LBB2:
  10:src/MemoryAllocator.cpp ****     this->head = (MemoryHeader*)HEAP_START_ADDR;
  22              		.loc 1 10 5
  23              		.loc 1 10 16 is_stmt 0
  24 000c 97070000 		la	a5,HEAP_START_ADDR
  24      83B70700 
  25 0014 03B70700 		ld	a4,0(a5)
  26 0018 2330E500 		sd	a4,0(a0)
  11:src/MemoryAllocator.cpp ****     // this->tail = (MemoryHeader*)HEAP_START_ADDR;
  12:src/MemoryAllocator.cpp ****     // this->tail->next=nullptr;
  13:src/MemoryAllocator.cpp ****     // this->tail->prev=nullptr;
  14:src/MemoryAllocator.cpp ****     this->head->next=nullptr;
  27              		.loc 1 14 5 is_stmt 1
  28              		.loc 1 14 21 is_stmt 0
  29 001c 23340700 		sd	zero,8(a4)
  15:src/MemoryAllocator.cpp ****     this->head->prev=nullptr;
  30              		.loc 1 15 5 is_stmt 1
  31              		.loc 1 15 11 is_stmt 0
  32 0020 83370500 		ld	a5,0(a0)
  33              		.loc 1 15 21
  34 0024 23B80700 		sd	zero,16(a5)
  16:src/MemoryAllocator.cpp ****     this->head->size = (size_t)((char*)HEAP_END_ADDR - (char*)HEAP_START_ADDR - sizeof(MemoryHeader
  35              		.loc 1 16 5 is_stmt 1
  36              		.loc 1 16 33 is_stmt 0
  37 0028 97070000 		la	a5,HEAP_END_ADDR
  37      83B70700 
  38 0030 83B70700 		ld	a5,0(a5)
  39              		.loc 1 16 54
  40 0034 B387E740 		sub	a5,a5,a4
GAS LISTING /tmp/ccz9Gv0e.s 			page 2


  41              		.loc 1 16 11
  42 0038 03370500 		ld	a4,0(a0)
  43              		.loc 1 16 79
  44 003c 938787FE 		addi	a5,a5,-24
  45              		.loc 1 16 22
  46 0040 2330F700 		sd	a5,0(a4)
  17:src/MemoryAllocator.cpp ****     this->freeMemSize=this->head->size;
  47              		.loc 1 17 5 is_stmt 1
  48              		.loc 1 17 29 is_stmt 0
  49 0044 83370500 		ld	a5,0(a0)
  50              		.loc 1 17 35
  51 0048 83B70700 		ld	a5,0(a5)
  52              		.loc 1 17 22
  53 004c 2334F500 		sd	a5,8(a0)
  54              	.LBE2:
  18:src/MemoryAllocator.cpp **** }
  55              		.loc 1 18 1
  56 0050 03348100 		ld	s0,8(sp)
  57              		.cfi_restore 8
  58              		.cfi_def_cfa 2, 16
  59 0054 13010101 		addi	sp,sp,16
  60              		.cfi_def_cfa_offset 0
  61 0058 67800000 		jr	ra
  62              		.cfi_endproc
  63              	.LFE1:
  65              		.globl	_ZN15MemoryAllocatorC1Ev
  66              		.set	_ZN15MemoryAllocatorC1Ev,_ZN15MemoryAllocatorC2Ev
  67              		.align	2
  68              		.globl	_ZN15MemoryAllocator8InstanceEv
  70              	_ZN15MemoryAllocator8InstanceEv:
  71              	.LFB3:
  19:src/MemoryAllocator.cpp **** 
  20:src/MemoryAllocator.cpp **** 
  21:src/MemoryAllocator.cpp **** 
  22:src/MemoryAllocator.cpp **** 
  23:src/MemoryAllocator.cpp **** MemoryAllocator* MemoryAllocator::Instance() {
  72              		.loc 1 23 46 is_stmt 1
  73              		.cfi_startproc
  24:src/MemoryAllocator.cpp ****     static MemoryAllocator instance;
  74              		.loc 1 24 5
  75              		.loc 1 24 28 is_stmt 0
  76 005c 97070000 		lbu	a5,.LANCHOR0
  76      83C70700 
  77 0064 63880700 		beqz	a5,.L9
  25:src/MemoryAllocator.cpp ****     return &instance;
  78              		.loc 1 25 5 is_stmt 1
  26:src/MemoryAllocator.cpp **** }
  79              		.loc 1 26 1 is_stmt 0
  80 0068 17050000 		lla	a0,.LANCHOR0+8
  80      13050500 
  81 0070 67800000 		ret
  82              	.L9:
  23:src/MemoryAllocator.cpp ****     static MemoryAllocator instance;
  83              		.loc 1 23 46 discriminator 1
  84 0074 130101FF 		addi	sp,sp,-16
  85              		.cfi_def_cfa_offset 16
  86 0078 23341100 		sd	ra,8(sp)
GAS LISTING /tmp/ccz9Gv0e.s 			page 3


  87 007c 23308100 		sd	s0,0(sp)
  88              		.cfi_offset 1, -8
  89              		.cfi_offset 8, -16
  90 0080 13040101 		addi	s0,sp,16
  91              		.cfi_def_cfa 8, 0
  24:src/MemoryAllocator.cpp ****     return &instance;
  92              		.loc 1 24 28 discriminator 1
  93 0084 17050000 		lla	a0,.LANCHOR0+8
  93      13050500 
  94 008c 97000000 		call	_ZN15MemoryAllocatorC1Ev
  94      E7800000 
  95              	.LVL1:
  96 0094 93071000 		li	a5,1
  97 0098 17070000 		sb	a5,.LANCHOR0,a4
  97      2300F700 
  25:src/MemoryAllocator.cpp **** }
  98              		.loc 1 25 5 is_stmt 1 discriminator 1
  99              		.loc 1 26 1 is_stmt 0 discriminator 1
 100 00a0 17050000 		lla	a0,.LANCHOR0+8
 100      13050500 
 101 00a8 83308100 		ld	ra,8(sp)
 102              		.cfi_restore 1
 103 00ac 03340100 		ld	s0,0(sp)
 104              		.cfi_restore 8
 105              		.cfi_def_cfa 2, 16
 106 00b0 13010101 		addi	sp,sp,16
 107              		.cfi_def_cfa_offset 0
 108 00b4 67800000 		jr	ra
 109              		.cfi_endproc
 110              	.LFE3:
 112              		.align	2
 113              		.globl	_ZN15MemoryAllocator9mem_allocEm
 115              	_ZN15MemoryAllocator9mem_allocEm:
 116              	.LFB4:
  27:src/MemoryAllocator.cpp **** 
  28:src/MemoryAllocator.cpp **** 
  29:src/MemoryAllocator.cpp **** void* MemoryAllocator::mem_alloc(size_t size) {
 117              		.loc 1 29 47 is_stmt 1
 118              		.cfi_startproc
 119              	.LVL2:
 120 00b8 13060500 		mv	a2,a0
  30:src/MemoryAllocator.cpp ****     if (this->head==nullptr)
 121              		.loc 1 30 5
 122              		.loc 1 30 15 is_stmt 0
 123 00bc 03350500 		ld	a0,0(a0)
 124              	.LVL3:
 125              		.loc 1 30 5
 126 00c0 630C0512 		beqz	a0,.L27
  31:src/MemoryAllocator.cpp ****         return nullptr;
  32:src/MemoryAllocator.cpp ****     if (size==0) {
 127              		.loc 1 32 5 is_stmt 1
 128 00c4 63820512 		beqz	a1,.L23
  29:src/MemoryAllocator.cpp ****     if (this->head==nullptr)
 129              		.loc 1 29 47 is_stmt 0
 130 00c8 130101FE 		addi	sp,sp,-32
 131              		.cfi_def_cfa_offset 32
 132 00cc 233C1100 		sd	ra,24(sp)
GAS LISTING /tmp/ccz9Gv0e.s 			page 4


 133 00d0 23388100 		sd	s0,16(sp)
 134 00d4 23349100 		sd	s1,8(sp)
 135              		.cfi_offset 1, -8
 136              		.cfi_offset 8, -16
 137              		.cfi_offset 9, -24
 138 00d8 13040102 		addi	s0,sp,32
 139              		.cfi_def_cfa 8, 0
  33:src/MemoryAllocator.cpp ****         return nullptr;
  34:src/MemoryAllocator.cpp ****     }
  35:src/MemoryAllocator.cpp ****     uint64 offset = size % MEM_BLOCK_SIZE;
 140              		.loc 1 35 5 is_stmt 1
 141              		.loc 1 35 12 is_stmt 0
 142 00dc 93F7F503 		andi	a5,a1,63
 143              	.LVL4:
  36:src/MemoryAllocator.cpp ****     if (offset!=0)
 144              		.loc 1 36 5 is_stmt 1
 145 00e0 63840700 		beqz	a5,.L12
  37:src/MemoryAllocator.cpp ****         offset=1;
 146              		.loc 1 37 15 is_stmt 0
 147 00e4 93071000 		li	a5,1
 148              	.LVL5:
 149              	.L12:
  38:src/MemoryAllocator.cpp **** 
  39:src/MemoryAllocator.cpp ****     size_t actulalSize = (size  / MEM_BLOCK_SIZE+offset ) * MEM_BLOCK_SIZE;
 150              		.loc 1 39 5 is_stmt 1
 151              		.loc 1 39 33 is_stmt 0
 152 00e8 13D76500 		srli	a4,a1,6
 153              		.loc 1 39 49
 154 00ec 3307F700 		add	a4,a4,a5
 155              		.loc 1 39 12
 156 00f0 13176700 		slli	a4,a4,6
 157              	.LVL6:
  40:src/MemoryAllocator.cpp **** 
  41:src/MemoryAllocator.cpp **** 
  42:src/MemoryAllocator.cpp ****     MemoryHeader* curr= this->head;
 158              		.loc 1 42 5 is_stmt 1
 159              		.loc 1 42 19 is_stmt 0
 160 00f4 93070500 		mv	a5,a0
 161              	.LVL7:
 162              	.L14:
  43:src/MemoryAllocator.cpp ****     while (curr->next!=nullptr && curr->size < actulalSize) {
 163              		.loc 1 43 5 is_stmt 1
 164              		.loc 1 43 32
 165 00f8 93840700 		mv	s1,a5
 166              		.loc 1 43 18 is_stmt 0
 167 00fc 83B78700 		ld	a5,8(a5)
 168              	.LVL8:
 169              		.loc 1 43 32
 170 0100 63860700 		beqz	a5,.L13
 171              		.loc 1 43 41 discriminator 1
 172 0104 83B60400 		ld	a3,0(s1)
 173              		.loc 1 43 32 discriminator 1
 174 0108 E3E8E6FE 		bltu	a3,a4,.L14
 175              	.L13:
  44:src/MemoryAllocator.cpp ****         curr=curr->next;
  45:src/MemoryAllocator.cpp ****     }
  46:src/MemoryAllocator.cpp ****     if (curr->size < actulalSize) {
GAS LISTING /tmp/ccz9Gv0e.s 			page 5


 176              		.loc 1 46 5 is_stmt 1
 177              		.loc 1 46 15 is_stmt 0
 178 010c 83B60400 		ld	a3,0(s1)
 179              		.loc 1 46 5
 180 0110 63E0E60E 		bltu	a3,a4,.L25
  47:src/MemoryAllocator.cpp ****         return nullptr;
  48:src/MemoryAllocator.cpp ****     }
  49:src/MemoryAllocator.cpp **** 
  50:src/MemoryAllocator.cpp **** 
  51:src/MemoryAllocator.cpp **** 
  52:src/MemoryAllocator.cpp ****     if (curr->size - actulalSize >= MEM_BLOCK_SIZE+sizeof(MemoryHeader)) {
 181              		.loc 1 52 5 is_stmt 1
 182              	.LBB3:
 183              		.loc 1 52 20 is_stmt 0
 184 0114 B386E640 		sub	a3,a3,a4
 185              		.loc 1 52 5
 186 0118 93057005 		li	a1,87
 187              	.LVL9:
 188 011c 63F8D508 		bleu	a3,a1,.L15
 189              	.LBB4:
  53:src/MemoryAllocator.cpp **** 
  54:src/MemoryAllocator.cpp **** 
  55:src/MemoryAllocator.cpp ****         MemoryHeader* new_seg=(MemoryHeader*)((char*)curr + sizeof(MemoryHeader) + actulalSize);
 190              		.loc 1 55 9 is_stmt 1
 191              		.loc 1 55 82 is_stmt 0
 192 0120 93078701 		addi	a5,a4,24
 193              		.loc 1 55 23
 194 0124 B387F400 		add	a5,s1,a5
 195              	.LVL10:
  56:src/MemoryAllocator.cpp ****         new_seg->size = curr->size - actulalSize - sizeof(MemoryHeader);
 196              		.loc 1 56 9 is_stmt 1
 197              		.loc 1 56 50 is_stmt 0
 198 0128 938686FE 		addi	a3,a3,-24
 199              		.loc 1 56 23
 200 012c 23B0D700 		sd	a3,0(a5)
  57:src/MemoryAllocator.cpp ****         new_seg->next=curr->next;
 201              		.loc 1 57 9 is_stmt 1
 202              		.loc 1 57 29 is_stmt 0
 203 0130 83B68400 		ld	a3,8(s1)
 204              		.loc 1 57 22
 205 0134 23B4D700 		sd	a3,8(a5)
  58:src/MemoryAllocator.cpp ****         new_seg->prev=curr->prev;
 206              		.loc 1 58 9 is_stmt 1
 207              		.loc 1 58 29 is_stmt 0
 208 0138 83B60401 		ld	a3,16(s1)
 209              		.loc 1 58 22
 210 013c 23B8D700 		sd	a3,16(a5)
  59:src/MemoryAllocator.cpp ****         if (curr==this->head) {
 211              		.loc 1 59 9 is_stmt 1
 212              		.loc 1 59 25 is_stmt 0
 213 0140 83360600 		ld	a3,0(a2)
 214              		.loc 1 59 9
 215 0144 63809606 		beq	a3,s1,.L30
 216              	.L16:
  60:src/MemoryAllocator.cpp ****             this->head=new_seg;
  61:src/MemoryAllocator.cpp ****         }
  62:src/MemoryAllocator.cpp ****         // if (curr==this->tail) {
GAS LISTING /tmp/ccz9Gv0e.s 			page 6


  63:src/MemoryAllocator.cpp ****         //     this->tail=new_seg;
  64:src/MemoryAllocator.cpp ****         // }
  65:src/MemoryAllocator.cpp ****         if (curr->prev)
 217              		.loc 1 65 9 is_stmt 1
 218              		.loc 1 65 19 is_stmt 0
 219 0148 83B60401 		ld	a3,16(s1)
 220              		.loc 1 65 9
 221 014c 63840600 		beqz	a3,.L17
  66:src/MemoryAllocator.cpp ****             curr->prev->next=new_seg;
 222              		.loc 1 66 13 is_stmt 1
 223              		.loc 1 66 29 is_stmt 0
 224 0150 23B4F600 		sd	a5,8(a3)
 225              	.L17:
  67:src/MemoryAllocator.cpp ****         if (curr->next)
 226              		.loc 1 67 9 is_stmt 1
 227              		.loc 1 67 19 is_stmt 0
 228 0154 83B68400 		ld	a3,8(s1)
 229              		.loc 1 67 9
 230 0158 63840600 		beqz	a3,.L18
  68:src/MemoryAllocator.cpp ****             curr->next->prev=new_seg;
 231              		.loc 1 68 13 is_stmt 1
 232              		.loc 1 68 29 is_stmt 0
 233 015c 23B8F600 		sd	a5,16(a3)
 234              	.L18:
  69:src/MemoryAllocator.cpp **** 
  70:src/MemoryAllocator.cpp **** 
  71:src/MemoryAllocator.cpp ****         curr->size=actulalSize;
 235              		.loc 1 71 9 is_stmt 1
 236              		.loc 1 71 19 is_stmt 0
 237 0160 23B0E400 		sd	a4,0(s1)
  72:src/MemoryAllocator.cpp **** 
  73:src/MemoryAllocator.cpp **** 
  74:src/MemoryAllocator.cpp ****         this->freeMemSize-= (actulalSize + sizeof(MemoryHeader));
 238              		.loc 1 74 9 is_stmt 1
 239              		.loc 1 74 26 is_stmt 0
 240 0164 83378600 		ld	a5,8(a2)
 241              	.LVL11:
 242 0168 3387E740 		sub	a4,a5,a4
 243              	.LVL12:
 244 016c 130787FE 		addi	a4,a4,-24
 245 0170 2334E600 		sd	a4,8(a2)
 246              	.LVL13:
 247              	.L19:
 248              	.LBE4:
 249              	.LBE3:
  75:src/MemoryAllocator.cpp ****     }
  76:src/MemoryAllocator.cpp ****     else {
  77:src/MemoryAllocator.cpp ****         if (curr==this->head) {
  78:src/MemoryAllocator.cpp ****             this->head=curr->next;
  79:src/MemoryAllocator.cpp ****         }
  80:src/MemoryAllocator.cpp ****         if (curr->prev)
  81:src/MemoryAllocator.cpp ****             curr->prev->next=curr->next;
  82:src/MemoryAllocator.cpp ****         if (curr->next)
  83:src/MemoryAllocator.cpp ****             curr->next->prev=curr->prev;
  84:src/MemoryAllocator.cpp ****         this->freeMemSize-= actulalSize;
  85:src/MemoryAllocator.cpp ****     }
  86:src/MemoryAllocator.cpp **** 
GAS LISTING /tmp/ccz9Gv0e.s 			page 7


  87:src/MemoryAllocator.cpp **** 
  88:src/MemoryAllocator.cpp ****     __putc('m');
 250              		.loc 1 88 5 is_stmt 1
 251              		.loc 1 88 11 is_stmt 0
 252 0174 1305D006 		li	a0,109
 253 0178 97000000 		call	__putc@plt
 253      E7800000 
 254              	.LVL14:
  89:src/MemoryAllocator.cpp ****     __putc('\n');
 255              		.loc 1 89 5 is_stmt 1
 256              		.loc 1 89 11 is_stmt 0
 257 0180 1305A000 		li	a0,10
 258 0184 97000000 		call	__putc@plt
 258      E7800000 
 259              	.LVL15:
  90:src/MemoryAllocator.cpp **** 
  91:src/MemoryAllocator.cpp **** 
  92:src/MemoryAllocator.cpp **** 
  93:src/MemoryAllocator.cpp ****     return  (void*)((char*)curr + sizeof(MemoryHeader));
 260              		.loc 1 93 5 is_stmt 1
 261              		.loc 1 93 55 is_stmt 0
 262 018c 13858401 		addi	a0,s1,24
 263              	.L10:
  94:src/MemoryAllocator.cpp **** }
 264              		.loc 1 94 1
 265 0190 83308101 		ld	ra,24(sp)
 266              		.cfi_remember_state
 267              		.cfi_restore 1
 268 0194 03340101 		ld	s0,16(sp)
 269              		.cfi_restore 8
 270              		.cfi_def_cfa 2, 32
 271 0198 83348100 		ld	s1,8(sp)
 272              		.cfi_restore 9
 273              	.LVL16:
 274 019c 13010102 		addi	sp,sp,32
 275              		.cfi_def_cfa_offset 0
 276 01a0 67800000 		jr	ra
 277              	.LVL17:
 278              	.L30:
 279              		.cfi_restore_state
 280              	.LBB6:
 281              	.LBB5:
  60:src/MemoryAllocator.cpp ****         }
 282              		.loc 1 60 13 is_stmt 1
  60:src/MemoryAllocator.cpp ****         }
 283              		.loc 1 60 23 is_stmt 0
 284 01a4 2330F600 		sd	a5,0(a2)
 285 01a8 6FF01FFA 		j	.L16
 286              	.LVL18:
 287              	.L15:
 288              	.LBE5:
  77:src/MemoryAllocator.cpp ****             this->head=curr->next;
 289              		.loc 1 77 9 is_stmt 1
 290 01ac 630A9502 		beq	a0,s1,.L31
 291              	.L20:
  80:src/MemoryAllocator.cpp ****             curr->prev->next=curr->next;
 292              		.loc 1 80 9
GAS LISTING /tmp/ccz9Gv0e.s 			page 8


  80:src/MemoryAllocator.cpp ****             curr->prev->next=curr->next;
 293              		.loc 1 80 19 is_stmt 0
 294 01b0 83B70401 		ld	a5,16(s1)
  80:src/MemoryAllocator.cpp ****             curr->prev->next=curr->next;
 295              		.loc 1 80 9
 296 01b4 63860700 		beqz	a5,.L21
  81:src/MemoryAllocator.cpp ****         if (curr->next)
 297              		.loc 1 81 13 is_stmt 1
  81:src/MemoryAllocator.cpp ****         if (curr->next)
 298              		.loc 1 81 36 is_stmt 0
 299 01b8 83B68400 		ld	a3,8(s1)
  81:src/MemoryAllocator.cpp ****         if (curr->next)
 300              		.loc 1 81 29
 301 01bc 23B4D700 		sd	a3,8(a5)
 302              	.L21:
  82:src/MemoryAllocator.cpp ****             curr->next->prev=curr->prev;
 303              		.loc 1 82 9 is_stmt 1
  82:src/MemoryAllocator.cpp ****             curr->next->prev=curr->prev;
 304              		.loc 1 82 19 is_stmt 0
 305 01c0 83B78400 		ld	a5,8(s1)
  82:src/MemoryAllocator.cpp ****             curr->next->prev=curr->prev;
 306              		.loc 1 82 9
 307 01c4 63860700 		beqz	a5,.L22
  83:src/MemoryAllocator.cpp ****         this->freeMemSize-= actulalSize;
 308              		.loc 1 83 13 is_stmt 1
  83:src/MemoryAllocator.cpp ****         this->freeMemSize-= actulalSize;
 309              		.loc 1 83 36 is_stmt 0
 310 01c8 83B60401 		ld	a3,16(s1)
  83:src/MemoryAllocator.cpp ****         this->freeMemSize-= actulalSize;
 311              		.loc 1 83 29
 312 01cc 23B8D700 		sd	a3,16(a5)
 313              	.L22:
  84:src/MemoryAllocator.cpp ****     }
 314              		.loc 1 84 9 is_stmt 1
  84:src/MemoryAllocator.cpp ****     }
 315              		.loc 1 84 26 is_stmt 0
 316 01d0 83378600 		ld	a5,8(a2)
 317 01d4 3387E740 		sub	a4,a5,a4
 318              	.LVL19:
 319 01d8 2334E600 		sd	a4,8(a2)
 320 01dc 6FF09FF9 		j	.L19
 321              	.LVL20:
 322              	.L31:
  78:src/MemoryAllocator.cpp ****         }
 323              		.loc 1 78 13 is_stmt 1
  78:src/MemoryAllocator.cpp ****         }
 324              		.loc 1 78 23 is_stmt 0
 325 01e0 2330F600 		sd	a5,0(a2)
 326 01e4 6FF0DFFC 		j	.L20
 327              	.LVL21:
 328              	.L23:
 329              		.cfi_def_cfa_register 2
 330              		.cfi_restore 1
 331              		.cfi_restore 8
 332              		.cfi_restore 9
 333              	.LBE6:
  33:src/MemoryAllocator.cpp ****     }
GAS LISTING /tmp/ccz9Gv0e.s 			page 9


 334              		.loc 1 33 16
 335 01e8 13050000 		li	a0,0
 336 01ec 67800000 		ret
 337              	.LVL22:
 338              	.L25:
 339              		.cfi_def_cfa_register 8
 340              		.cfi_offset 1, -8
 341              		.cfi_offset 8, -16
 342              		.cfi_offset 9, -24
  47:src/MemoryAllocator.cpp ****     }
 343              		.loc 1 47 16
 344 01f0 13050000 		li	a0,0
 345 01f4 6FF0DFF9 		j	.L10
 346              	.LVL23:
 347              	.L27:
 348              		.cfi_def_cfa_register 2
 349              		.cfi_restore 1
 350              		.cfi_restore 8
 351              		.cfi_restore 9
 352              		.loc 1 94 1
 353 01f8 67800000 		ret
 354              		.cfi_endproc
 355              	.LFE4:
 357              		.align	2
 358              		.globl	_ZN15MemoryAllocator11try_to_joinEPNS_12MemoryHeaderE
 360              	_ZN15MemoryAllocator11try_to_joinEPNS_12MemoryHeaderE:
 361              	.LFB6:
  95:src/MemoryAllocator.cpp **** 
  96:src/MemoryAllocator.cpp **** 
  97:src/MemoryAllocator.cpp **** void MemoryAllocator::mem_free(void* ptr) {
  98:src/MemoryAllocator.cpp ****     if (ptr==nullptr) {
  99:src/MemoryAllocator.cpp ****         return;
 100:src/MemoryAllocator.cpp ****     }
 101:src/MemoryAllocator.cpp **** 	MemoryHeader* block = (MemoryHeader*)((char*)ptr - sizeof(MemoryHeader));
 102:src/MemoryAllocator.cpp ****     if (this->head==nullptr) {
 103:src/MemoryAllocator.cpp ****         this->head=block;
 104:src/MemoryAllocator.cpp ****         block->next=nullptr;
 105:src/MemoryAllocator.cpp ****         block->prev=nullptr;
 106:src/MemoryAllocator.cpp ****         this->freeMemSize+= block->size;
 107:src/MemoryAllocator.cpp ****         return;
 108:src/MemoryAllocator.cpp ****     }
 109:src/MemoryAllocator.cpp ****     MemoryHeader* curr = this->head;
 110:src/MemoryAllocator.cpp ****     while (curr->next!=nullptr && curr->next < block) {
 111:src/MemoryAllocator.cpp ****         curr=curr->next;
 112:src/MemoryAllocator.cpp ****     }
 113:src/MemoryAllocator.cpp **** 
 114:src/MemoryAllocator.cpp ****     if (curr==this->head and curr > block) {
 115:src/MemoryAllocator.cpp ****         block->next=curr;
 116:src/MemoryAllocator.cpp ****         block->prev=curr->prev;
 117:src/MemoryAllocator.cpp ****         curr->prev=block;
 118:src/MemoryAllocator.cpp ****         this->head=block;
 119:src/MemoryAllocator.cpp ****     }
 120:src/MemoryAllocator.cpp ****     else {
 121:src/MemoryAllocator.cpp ****         block->next=curr->next;
 122:src/MemoryAllocator.cpp ****         block->prev=curr;
 123:src/MemoryAllocator.cpp ****         curr->next=block;
 124:src/MemoryAllocator.cpp ****         if (block->next) {
GAS LISTING /tmp/ccz9Gv0e.s 			page 10


 125:src/MemoryAllocator.cpp ****             block->next->prev=block;
 126:src/MemoryAllocator.cpp ****         }
 127:src/MemoryAllocator.cpp ****     }
 128:src/MemoryAllocator.cpp **** 
 129:src/MemoryAllocator.cpp ****     this->freeMemSize+= block->size;
 130:src/MemoryAllocator.cpp ****     __putc('n');
 131:src/MemoryAllocator.cpp ****     __putc('\n');
 132:src/MemoryAllocator.cpp ****     try_to_join(block->prev);
 133:src/MemoryAllocator.cpp ****     try_to_join(block);
 134:src/MemoryAllocator.cpp **** }
 135:src/MemoryAllocator.cpp **** 
 136:src/MemoryAllocator.cpp **** 
 137:src/MemoryAllocator.cpp **** void MemoryAllocator::try_to_join(MemoryHeader* block) {
 362              		.loc 1 137 56 is_stmt 1
 363              		.cfi_startproc
 364              	.LVL24:
 138:src/MemoryAllocator.cpp ****     if (block==nullptr)
 365              		.loc 1 138 5
 366 01fc 6380050A 		beqz	a1,.L36
 137:src/MemoryAllocator.cpp ****     if (block==nullptr)
 367              		.loc 1 137 56 is_stmt 0
 368 0200 130101FE 		addi	sp,sp,-32
 369              		.cfi_def_cfa_offset 32
 370 0204 233C1100 		sd	ra,24(sp)
 371 0208 23388100 		sd	s0,16(sp)
 372 020c 23349100 		sd	s1,8(sp)
 373 0210 23302101 		sd	s2,0(sp)
 374              		.cfi_offset 1, -8
 375              		.cfi_offset 8, -16
 376              		.cfi_offset 9, -24
 377              		.cfi_offset 18, -32
 378 0214 13040102 		addi	s0,sp,32
 379              		.cfi_def_cfa 8, 0
 380 0218 13090500 		mv	s2,a0
 381 021c 93840500 		mv	s1,a1
 139:src/MemoryAllocator.cpp ****         return;
 140:src/MemoryAllocator.cpp ****     if (block->next!=nullptr && ((char*)block + sizeof(MemoryHeader) + block->size) == (char*)block
 382              		.loc 1 140 5 is_stmt 1
 383              		.loc 1 140 16 is_stmt 0
 384 0220 03B78500 		ld	a4,8(a1)
 385              		.loc 1 140 5
 386 0224 630A0700 		beqz	a4,.L32
 387              		.loc 1 140 79 discriminator 1
 388 0228 83B70500 		ld	a5,0(a1)
 389              		.loc 1 140 70 discriminator 1
 390 022c 93878701 		addi	a5,a5,24
 391 0230 B387F500 		add	a5,a1,a5
 392              		.loc 1 140 30 discriminator 1
 393 0234 630EF700 		beq	a4,a5,.L39
 394              	.LVL25:
 395              	.L32:
 141:src/MemoryAllocator.cpp ****         __putc('t');
 142:src/MemoryAllocator.cpp ****         __putc('\n');
 143:src/MemoryAllocator.cpp ****         block->size += block->next->size;
 144:src/MemoryAllocator.cpp ****         block->next=block->next->next;
 145:src/MemoryAllocator.cpp ****         if (block->next)
 146:src/MemoryAllocator.cpp ****             block->next->prev=block;
GAS LISTING /tmp/ccz9Gv0e.s 			page 11


 147:src/MemoryAllocator.cpp ****         this->freeMemSize+= sizeof(MemoryHeader);
 148:src/MemoryAllocator.cpp ****     }
 149:src/MemoryAllocator.cpp **** }...
 396              		.loc 1 149 1
 397 0238 83308101 		ld	ra,24(sp)
 398              		.cfi_remember_state
 399              		.cfi_restore 1
 400 023c 03340101 		ld	s0,16(sp)
 401              		.cfi_restore 8
 402              		.cfi_def_cfa 2, 32
 403 0240 83348100 		ld	s1,8(sp)
 404              		.cfi_restore 9
 405              	.LVL26:
 406 0244 03390100 		ld	s2,0(sp)
 407              		.cfi_restore 18
 408              	.LVL27:
 409 0248 13010102 		addi	sp,sp,32
 410              		.cfi_def_cfa_offset 0
 411 024c 67800000 		jr	ra
 412              	.LVL28:
 413              	.L39:
 414              		.cfi_restore_state
 141:src/MemoryAllocator.cpp ****         __putc('t');
 415              		.loc 1 141 9 is_stmt 1
 141:src/MemoryAllocator.cpp ****         __putc('t');
 416              		.loc 1 141 15 is_stmt 0
 417 0250 13054007 		li	a0,116
 418              	.LVL29:
 419 0254 97000000 		call	__putc@plt
 419      E7800000 
 420              	.LVL30:
 142:src/MemoryAllocator.cpp ****         __putc('\n');
 421              		.loc 1 142 9 is_stmt 1
 142:src/MemoryAllocator.cpp ****         __putc('\n');
 422              		.loc 1 142 15 is_stmt 0
 423 025c 1305A000 		li	a0,10
 424 0260 97000000 		call	__putc@plt
 424      E7800000 
 425              	.LVL31:
 143:src/MemoryAllocator.cpp ****         block->size += block->next->size;
 426              		.loc 1 143 9 is_stmt 1
 143:src/MemoryAllocator.cpp ****         block->size += block->next->size;
 427              		.loc 1 143 31 is_stmt 0
 428 0268 03B78400 		ld	a4,8(s1)
 143:src/MemoryAllocator.cpp ****         block->size += block->next->size;
 429              		.loc 1 143 37
 430 026c 83360700 		ld	a3,0(a4)
 143:src/MemoryAllocator.cpp ****         block->size += block->next->size;
 431              		.loc 1 143 21
 432 0270 83B70400 		ld	a5,0(s1)
 433 0274 B387D700 		add	a5,a5,a3
 434 0278 23B0F400 		sd	a5,0(s1)
 144:src/MemoryAllocator.cpp ****         block->next=block->next->next;
 435              		.loc 1 144 9 is_stmt 1
 144:src/MemoryAllocator.cpp ****         block->next=block->next->next;
 436              		.loc 1 144 34 is_stmt 0
 437 027c 83378700 		ld	a5,8(a4)
GAS LISTING /tmp/ccz9Gv0e.s 			page 12


 144:src/MemoryAllocator.cpp ****         block->next=block->next->next;
 438              		.loc 1 144 20
 439 0280 23B4F400 		sd	a5,8(s1)
 145:src/MemoryAllocator.cpp ****         if (block->next)
 440              		.loc 1 145 9 is_stmt 1
 441 0284 63840700 		beqz	a5,.L34
 146:src/MemoryAllocator.cpp ****             block->next->prev=block;
 442              		.loc 1 146 13
 146:src/MemoryAllocator.cpp ****             block->next->prev=block;
 443              		.loc 1 146 30 is_stmt 0
 444 0288 23B89700 		sd	s1,16(a5)
 445              	.L34:
 147:src/MemoryAllocator.cpp ****         this->freeMemSize+= sizeof(MemoryHeader);
 446              		.loc 1 147 9 is_stmt 1
 147:src/MemoryAllocator.cpp ****         this->freeMemSize+= sizeof(MemoryHeader);
 447              		.loc 1 147 26 is_stmt 0
 448 028c 83378900 		ld	a5,8(s2)
 449 0290 93878701 		addi	a5,a5,24
 450 0294 2334F900 		sd	a5,8(s2)
 451 0298 6FF01FFA 		j	.L32
 452              	.LVL32:
 453              	.L36:
 454              		.cfi_def_cfa_register 2
 455              		.cfi_restore 1
 456              		.cfi_restore 8
 457              		.cfi_restore 9
 458              		.cfi_restore 18
 459 029c 67800000 		ret
 460              		.cfi_endproc
 461              	.LFE6:
 463              		.align	2
 464              		.globl	_ZN15MemoryAllocator8mem_freeEPv
 466              	_ZN15MemoryAllocator8mem_freeEPv:
 467              	.LFB5:
  97:src/MemoryAllocator.cpp **** void MemoryAllocator::mem_free(void* ptr) {
 468              		.loc 1 97 43 is_stmt 1
 469              		.cfi_startproc
 470              	.LVL33:
  98:src/MemoryAllocator.cpp ****     if (ptr==nullptr) {
 471              		.loc 1 98 5
 472 02a0 63820510 		beqz	a1,.L48
  97:src/MemoryAllocator.cpp **** void MemoryAllocator::mem_free(void* ptr) {
 473              		.loc 1 97 43 is_stmt 0
 474 02a4 130101FD 		addi	sp,sp,-48
 475              		.cfi_def_cfa_offset 48
 476 02a8 23341102 		sd	ra,40(sp)
 477 02ac 23308102 		sd	s0,32(sp)
 478 02b0 233C9100 		sd	s1,24(sp)
 479 02b4 23382101 		sd	s2,16(sp)
 480 02b8 23343101 		sd	s3,8(sp)
 481              		.cfi_offset 1, -8
 482              		.cfi_offset 8, -16
 483              		.cfi_offset 9, -24
 484              		.cfi_offset 18, -32
 485              		.cfi_offset 19, -40
 486 02bc 13040103 		addi	s0,sp,48
 487              		.cfi_def_cfa 8, 0
GAS LISTING /tmp/ccz9Gv0e.s 			page 13


 488 02c0 93090500 		mv	s3,a0
 489 02c4 13890500 		mv	s2,a1
 101:src/MemoryAllocator.cpp **** 	MemoryHeader* block = (MemoryHeader*)((char*)ptr - sizeof(MemoryHeader));
 490              		.loc 1 101 2 is_stmt 1
 101:src/MemoryAllocator.cpp **** 	MemoryHeader* block = (MemoryHeader*)((char*)ptr - sizeof(MemoryHeader));
 491              		.loc 1 101 16 is_stmt 0
 492 02c8 938485FE 		addi	s1,a1,-24
 493              	.LVL34:
 102:src/MemoryAllocator.cpp ****     if (this->head==nullptr) {
 494              		.loc 1 102 5 is_stmt 1
 102:src/MemoryAllocator.cpp ****     if (this->head==nullptr) {
 495              		.loc 1 102 15 is_stmt 0
 496 02cc 83360500 		ld	a3,0(a0)
 102:src/MemoryAllocator.cpp ****     if (this->head==nullptr) {
 497              		.loc 1 102 5
 498 02d0 638C0608 		beqz	a3,.L51
 109:src/MemoryAllocator.cpp ****     MemoryHeader* curr = this->head;
 499              		.loc 1 109 19
 500 02d4 93870600 		mv	a5,a3
 501              	.L42:
 502              	.LVL35:
 110:src/MemoryAllocator.cpp ****     while (curr->next!=nullptr && curr->next < block) {
 503              		.loc 1 110 5 is_stmt 1
 110:src/MemoryAllocator.cpp ****     while (curr->next!=nullptr && curr->next < block) {
 504              		.loc 1 110 32
 505 02d8 13870700 		mv	a4,a5
 110:src/MemoryAllocator.cpp ****     while (curr->next!=nullptr && curr->next < block) {
 506              		.loc 1 110 18 is_stmt 0
 507 02dc 83B78700 		ld	a5,8(a5)
 508              	.LVL36:
 110:src/MemoryAllocator.cpp ****     while (curr->next!=nullptr && curr->next < block) {
 509              		.loc 1 110 32
 510 02e0 63840700 		beqz	a5,.L43
 110:src/MemoryAllocator.cpp ****     while (curr->next!=nullptr && curr->next < block) {
 511              		.loc 1 110 32 discriminator 1
 512 02e4 E3EA97FE 		bltu	a5,s1,.L42
 513              	.L43:
 114:src/MemoryAllocator.cpp ****     if (curr==this->head and curr > block) {
 514              		.loc 1 114 5 is_stmt 1
 515 02e8 6380E60A 		beq	a3,a4,.L52
 516              	.L44:
 121:src/MemoryAllocator.cpp ****         block->next=curr->next;
 517              		.loc 1 121 9
 121:src/MemoryAllocator.cpp ****         block->next=curr->next;
 518              		.loc 1 121 20 is_stmt 0
 519 02ec 2338F9FE 		sd	a5,-16(s2)
 122:src/MemoryAllocator.cpp ****         block->prev=curr;
 520              		.loc 1 122 9 is_stmt 1
 122:src/MemoryAllocator.cpp ****         block->prev=curr;
 521              		.loc 1 122 20 is_stmt 0
 522 02f0 233CE9FE 		sd	a4,-8(s2)
 123:src/MemoryAllocator.cpp ****         curr->next=block;
 523              		.loc 1 123 9 is_stmt 1
 123:src/MemoryAllocator.cpp ****         curr->next=block;
 524              		.loc 1 123 19 is_stmt 0
 525 02f4 23349700 		sd	s1,8(a4)
 124:src/MemoryAllocator.cpp ****         if (block->next) {
GAS LISTING /tmp/ccz9Gv0e.s 			page 14


 526              		.loc 1 124 9 is_stmt 1
 124:src/MemoryAllocator.cpp ****         if (block->next) {
 527              		.loc 1 124 20 is_stmt 0
 528 02f8 833709FF 		ld	a5,-16(s2)
 124:src/MemoryAllocator.cpp ****         if (block->next) {
 529              		.loc 1 124 9
 530 02fc 63840700 		beqz	a5,.L45
 125:src/MemoryAllocator.cpp ****             block->next->prev=block;
 531              		.loc 1 125 13 is_stmt 1
 125:src/MemoryAllocator.cpp ****             block->next->prev=block;
 532              		.loc 1 125 30 is_stmt 0
 533 0300 23B89700 		sd	s1,16(a5)
 534              	.L45:
 129:src/MemoryAllocator.cpp ****     this->freeMemSize+= block->size;
 535              		.loc 1 129 5 is_stmt 1
 129:src/MemoryAllocator.cpp ****     this->freeMemSize+= block->size;
 536              		.loc 1 129 32 is_stmt 0
 537 0304 033789FE 		ld	a4,-24(s2)
 538              	.LVL37:
 129:src/MemoryAllocator.cpp ****     this->freeMemSize+= block->size;
 539              		.loc 1 129 22
 540 0308 83B78900 		ld	a5,8(s3)
 541 030c B387E700 		add	a5,a5,a4
 542 0310 23B4F900 		sd	a5,8(s3)
 130:src/MemoryAllocator.cpp ****     __putc('n');
 543              		.loc 1 130 5 is_stmt 1
 130:src/MemoryAllocator.cpp ****     __putc('n');
 544              		.loc 1 130 11 is_stmt 0
 545 0314 1305E006 		li	a0,110
 546              	.LVL38:
 547 0318 97000000 		call	__putc@plt
 547      E7800000 
 548              	.LVL39:
 131:src/MemoryAllocator.cpp ****     __putc('\n');
 549              		.loc 1 131 5 is_stmt 1
 131:src/MemoryAllocator.cpp ****     __putc('\n');
 550              		.loc 1 131 11 is_stmt 0
 551 0320 1305A000 		li	a0,10
 552 0324 97000000 		call	__putc@plt
 552      E7800000 
 553              	.LVL40:
 132:src/MemoryAllocator.cpp ****     try_to_join(block->prev);
 554              		.loc 1 132 5 is_stmt 1
 132:src/MemoryAllocator.cpp ****     try_to_join(block->prev);
 555              		.loc 1 132 16 is_stmt 0
 556 032c 833589FF 		ld	a1,-8(s2)
 557 0330 13850900 		mv	a0,s3
 558 0334 97000000 		call	_ZN15MemoryAllocator11try_to_joinEPNS_12MemoryHeaderE
 558      E7800000 
 559              	.LVL41:
 133:src/MemoryAllocator.cpp ****     try_to_join(block);
 560              		.loc 1 133 5 is_stmt 1
 133:src/MemoryAllocator.cpp ****     try_to_join(block);
 561              		.loc 1 133 16 is_stmt 0
 562 033c 93850400 		mv	a1,s1
 563 0340 13850900 		mv	a0,s3
 564 0344 97000000 		call	_ZN15MemoryAllocator11try_to_joinEPNS_12MemoryHeaderE
GAS LISTING /tmp/ccz9Gv0e.s 			page 15


 564      E7800000 
 565              	.LVL42:
 566              	.L40:
 134:src/MemoryAllocator.cpp **** }
 567              		.loc 1 134 1
 568 034c 83308102 		ld	ra,40(sp)
 569              		.cfi_remember_state
 570              		.cfi_restore 1
 571 0350 03340102 		ld	s0,32(sp)
 572              		.cfi_restore 8
 573              		.cfi_def_cfa 2, 48
 574 0354 83348101 		ld	s1,24(sp)
 575              		.cfi_restore 9
 576              	.LVL43:
 577 0358 03390101 		ld	s2,16(sp)
 578              		.cfi_restore 18
 579              	.LVL44:
 580 035c 83398100 		ld	s3,8(sp)
 581              		.cfi_restore 19
 582              	.LVL45:
 583 0360 13010103 		addi	sp,sp,48
 584              		.cfi_def_cfa_offset 0
 585 0364 67800000 		jr	ra
 586              	.LVL46:
 587              	.L51:
 588              		.cfi_restore_state
 103:src/MemoryAllocator.cpp ****         this->head=block;
 589              		.loc 1 103 9 is_stmt 1
 103:src/MemoryAllocator.cpp ****         this->head=block;
 590              		.loc 1 103 19 is_stmt 0
 591 0368 23309500 		sd	s1,0(a0)
 104:src/MemoryAllocator.cpp ****         block->next=nullptr;
 592              		.loc 1 104 9 is_stmt 1
 104:src/MemoryAllocator.cpp ****         block->next=nullptr;
 593              		.loc 1 104 20 is_stmt 0
 594 036c 23B805FE 		sd	zero,-16(a1)
 105:src/MemoryAllocator.cpp ****         block->prev=nullptr;
 595              		.loc 1 105 9 is_stmt 1
 105:src/MemoryAllocator.cpp ****         block->prev=nullptr;
 596              		.loc 1 105 20 is_stmt 0
 597 0370 23BC05FE 		sd	zero,-8(a1)
 106:src/MemoryAllocator.cpp ****         this->freeMemSize+= block->size;
 598              		.loc 1 106 9 is_stmt 1
 106:src/MemoryAllocator.cpp ****         this->freeMemSize+= block->size;
 599              		.loc 1 106 36 is_stmt 0
 600 0374 03B785FE 		ld	a4,-24(a1)
 106:src/MemoryAllocator.cpp ****         this->freeMemSize+= block->size;
 601              		.loc 1 106 26
 602 0378 83378500 		ld	a5,8(a0)
 603 037c B387E700 		add	a5,a5,a4
 604 0380 2334F500 		sd	a5,8(a0)
 107:src/MemoryAllocator.cpp ****         return;
 605              		.loc 1 107 9 is_stmt 1
 606 0384 6FF09FFC 		j	.L40
 607              	.LVL47:
 608              	.L52:
 114:src/MemoryAllocator.cpp ****     if (curr==this->head and curr > block) {
GAS LISTING /tmp/ccz9Gv0e.s 			page 16


 609              		.loc 1 114 26 is_stmt 0 discriminator 1
 610 0388 E3F2E4F6 		bleu	a4,s1,.L44
 115:src/MemoryAllocator.cpp ****         block->next=curr;
 611              		.loc 1 115 9 is_stmt 1
 115:src/MemoryAllocator.cpp ****         block->next=curr;
 612              		.loc 1 115 20 is_stmt 0
 613 038c 2338E9FE 		sd	a4,-16(s2)
 116:src/MemoryAllocator.cpp ****         block->prev=curr->prev;
 614              		.loc 1 116 9 is_stmt 1
 116:src/MemoryAllocator.cpp ****         block->prev=curr->prev;
 615              		.loc 1 116 27 is_stmt 0
 616 0390 83370701 		ld	a5,16(a4)
 116:src/MemoryAllocator.cpp ****         block->prev=curr->prev;
 617              		.loc 1 116 20
 618 0394 233CF9FE 		sd	a5,-8(s2)
 117:src/MemoryAllocator.cpp ****         curr->prev=block;
 619              		.loc 1 117 9 is_stmt 1
 117:src/MemoryAllocator.cpp ****         curr->prev=block;
 620              		.loc 1 117 19 is_stmt 0
 621 0398 23389700 		sd	s1,16(a4)
 118:src/MemoryAllocator.cpp ****         this->head=block;
 622              		.loc 1 118 9 is_stmt 1
 118:src/MemoryAllocator.cpp ****         this->head=block;
 623              		.loc 1 118 19 is_stmt 0
 624 039c 23B09900 		sd	s1,0(s3)
 625 03a0 6FF05FF6 		j	.L45
 626              	.LVL48:
 627              	.L48:
 628              		.cfi_def_cfa_register 2
 629              		.cfi_restore 1
 630              		.cfi_restore 8
 631              		.cfi_restore 9
 632              		.cfi_restore 18
 633              		.cfi_restore 19
 634 03a4 67800000 		ret
 635              		.cfi_endproc
 636              	.LFE5:
 638              		.bss
 639              		.align	3
 640              		.set	.LANCHOR0,. + 0
 643              	_ZGVZN15MemoryAllocator8InstanceEvE8instance:
 644 0000 00000000 		.zero	8
 644      00000000 
 647              	_ZZN15MemoryAllocator8InstanceEvE8instance:
 648 0008 00000000 		.zero	16
 648      00000000 
 648      00000000 
 648      00000000 
 649              		.text
 650              	.Letext0:
 651              		.file 2 "src/../h/../lib/hw.h"
 652              		.file 3 "src/../h/MemoryAllocator.hpp"
 653              		.file 4 "src/../lib/console.h"
GAS LISTING /tmp/ccz9Gv0e.s 			page 17

