GAS LISTING /tmp/cc7SdnjK.s 			page 1


   1              		.file	"Scheduler.cpp"
   2              		.option pic
   3              		.option norelax
   4              		.text
   5              	.Ltext0:
   6              		.align	2
   8              	_Z41__static_initialization_and_destruction_0ii:
   9              	.LFB14:
  10              		.file 1 "src/Scheduler.cpp"
   1:src/Scheduler.cpp **** #include  "../h/Scheduler.hpp"
   2:src/Scheduler.cpp **** 
   3:src/Scheduler.cpp **** 
   4:src/Scheduler.cpp **** List<TCB> Scheduler::queue;
   5:src/Scheduler.cpp **** 
   6:src/Scheduler.cpp **** 
   7:src/Scheduler.cpp **** TCB *Scheduler::get() {
   8:src/Scheduler.cpp ****     return queue.removeLast();
   9:src/Scheduler.cpp **** }
  10:src/Scheduler.cpp **** 
  11:src/Scheduler.cpp **** void Scheduler::put(TCB *x) {
  12:src/Scheduler.cpp ****     queue.addFirst(x);
  13:src/Scheduler.cpp **** }...
  11              		.loc 1 13 1
  12              		.cfi_startproc
  13              	.LVL0:
  14 0000 130101FF 		addi	sp,sp,-16
  15              		.cfi_def_cfa_offset 16
  16 0004 23348100 		sd	s0,8(sp)
  17              		.cfi_offset 8, -8
  18 0008 13040101 		addi	s0,sp,16
  19              		.cfi_def_cfa 8, 0
  20              		.loc 1 13 1 is_stmt 0
  21 000c 93071000 		li	a5,1
  22 0010 6308F500 		beq	a0,a5,.L4
  23              	.L1:
  24 0014 03348100 		ld	s0,8(sp)
  25              		.cfi_remember_state
  26              		.cfi_restore 8
  27              		.cfi_def_cfa 2, 16
  28 0018 13010101 		addi	sp,sp,16
  29              		.cfi_def_cfa_offset 0
  30 001c 67800000 		jr	ra
  31              	.L4:
  32              		.cfi_restore_state
  33              		.loc 1 13 1 discriminator 1
  34 0020 B7070100 		li	a5,65536
  35 0024 9387F7FF 		addi	a5,a5,-1
  36 0028 E396F5FE 		bne	a1,a5,.L1
  37              	.LVL1:
  38              	.LBB8:
  39              	.LBB9:
  40              	.LBB10:
  41              		.file 2 "src/../h/List.hpp"
   1:src/../h/List.hpp **** //
   2:src/../h/List.hpp **** // Created by os on 9/23/25.
   3:src/../h/List.hpp **** //
   4:src/../h/List.hpp **** 
GAS LISTING /tmp/cc7SdnjK.s 			page 2


   5:src/../h/List.hpp **** #ifndef PROJECT_BASE_V1_1_COPY_LIST_HPP
   6:src/../h/List.hpp **** #define PROJECT_BASE_V1_1_COPY_LIST_HPP
   7:src/../h/List.hpp **** 
   8:src/../h/List.hpp **** 
   9:src/../h/List.hpp **** 
  10:src/../h/List.hpp **** template<typename T>
  11:src/../h/List.hpp **** class List
  12:src/../h/List.hpp **** {
  13:src/../h/List.hpp **** private:
  14:src/../h/List.hpp ****     struct Elem
  15:src/../h/List.hpp ****     {
  16:src/../h/List.hpp ****         T* data;
  17:src/../h/List.hpp ****         Elem* next;
  18:src/../h/List.hpp ****         Elem(T* data, Elem* next=nullptr): data(data), next(next){}
  19:src/../h/List.hpp ****     };
  20:src/../h/List.hpp ****     Elem * head;
  21:src/../h/List.hpp ****     Elem *tail;
  22:src/../h/List.hpp **** 
  23:src/../h/List.hpp **** public:
  24:src/../h/List.hpp ****     List(): head(0), tail(0){}
  42              		.loc 2 24 28
  43 002c 97070000 		lla	a5,.LANCHOR0
  43      93870700 
  44 0034 23B00700 		sd	zero,0(a5)
  45 0038 23B40700 		sd	zero,8(a5)
  46 003c 23A80700 		sw	zero,16(a5)
  47              	.LVL2:
  48              	.LBE10:
  49              	.LBE9:
  50              	.LBE8:
  51              		.loc 1 13 1
  52 0040 6FF05FFD 		j	.L1
  53              		.cfi_endproc
  54              	.LFE14:
  56              		.align	2
  57              		.globl	_ZN9Scheduler3getEv
  59              	_ZN9Scheduler3getEv:
  60              	.LFB4:
   7:src/Scheduler.cpp ****     return queue.removeLast();
  61              		.loc 1 7 23 is_stmt 1
  62              		.cfi_startproc
  63 0044 130101FE 		addi	sp,sp,-32
  64              		.cfi_def_cfa_offset 32
  65 0048 233C1100 		sd	ra,24(sp)
  66 004c 23388100 		sd	s0,16(sp)
  67 0050 23349100 		sd	s1,8(sp)
  68              		.cfi_offset 1, -8
  69              		.cfi_offset 8, -16
  70              		.cfi_offset 9, -24
  71 0054 13040102 		addi	s0,sp,32
  72              		.cfi_def_cfa 8, 0
   8:src/Scheduler.cpp ****     return queue.removeLast();
  73              		.loc 1 8 5
  74              	.LVL3:
  75              	.LBB14:
  76              	.LBB15:
  25:src/../h/List.hpp ****     void addFirst(T* data)
GAS LISTING /tmp/cc7SdnjK.s 			page 3


  26:src/../h/List.hpp ****     {
  27:src/../h/List.hpp ****         Elem* elem=new Elem(data, head);
  28:src/../h/List.hpp ****         head=elem;
  29:src/../h/List.hpp ****         if(!tail){tail=head;}
  30:src/../h/List.hpp ****         size++;
  31:src/../h/List.hpp ****     }
  32:src/../h/List.hpp ****     T* removeLast()
  33:src/../h/List.hpp ****     {
  34:src/../h/List.hpp ****         size--;
  77              		.loc 2 34 9 is_stmt 0
  78 0058 97070000 		lla	a5,.LANCHOR0
  78      93870700 
  79 0060 03A70701 		lw	a4,16(a5)
  80 0064 1B07F7FF 		addiw	a4,a4,-1
  81 0068 23A8E700 		sw	a4,16(a5)
  35:src/../h/List.hpp ****         if(!head){return 0;}
  82              		.loc 2 35 13
  83 006c 83B40700 		ld	s1,0(a5)
  84              		.loc 2 35 9
  85 0070 63860404 		beqz	s1,.L5
  36:src/../h/List.hpp ****         Elem* prev=0;
  86              		.loc 2 36 15
  87 0074 93070000 		li	a5,0
  88              	.L8:
  89              	.LVL4:
  90              	.LBB16:
  37:src/../h/List.hpp ****         for(Elem* curr=head; curr && curr!=tail; prev=curr, curr=curr->next);
  91              		.loc 2 37 35 is_stmt 1
  92 0078 638E0400 		beqz	s1,.L7
  93              		.loc 2 37 44 is_stmt 0
  94 007c 17070000 		ld	a4,.LANCHOR0+8
  94      03370700 
  95              		.loc 2 37 35
  96 0084 6388E400 		beq	s1,a4,.L7
  97              		.loc 2 37 9 is_stmt 1
  98              	.LVL5:
  99 0088 93870400 		mv	a5,s1
 100 008c 83B48400 		ld	s1,8(s1)
 101              	.LVL6:
 102 0090 6FF09FFE 		j	.L8
 103              	.L7:
 104              	.LBE16:
  38:src/../h/List.hpp ****         Elem* elem=tail;
 105              		.loc 2 38 15 is_stmt 0
 106 0094 17050000 		ld	a0,.LANCHOR0+8
 106      03350500 
 107              	.LVL7:
  39:src/../h/List.hpp ****         if(prev) prev->next=0;
 108              		.loc 2 39 9
 109 009c 638C0702 		beqz	a5,.L9
 110              		.loc 2 39 18
 111 00a0 23B40700 		sd	zero,8(a5)
 112              	.L10:
  40:src/../h/List.hpp ****         else head=0;
  41:src/../h/List.hpp ****         tail=prev;
 113              		.loc 2 41 9
 114 00a4 17070000 		sd	a5,.LANCHOR0+8,a4
GAS LISTING /tmp/cc7SdnjK.s 			page 4


 114      2330F700 
  42:src/../h/List.hpp ****         T* retval= elem->data;
 115              		.loc 2 42 12
 116 00ac 83340500 		ld	s1,0(a0)
 117              	.LVL8:
  43:src/../h/List.hpp ****         delete elem;
 118              		.loc 2 43 9
 119 00b0 63060500 		beqz	a0,.L5
 120 00b4 97000000 		call	_ZdlPv@plt
 120      E7800000 
 121              	.LVL9:
 122              	.L5:
 123              	.LBE15:
 124              	.LBE14:
   9:src/Scheduler.cpp **** }
 125              		.loc 1 9 1
 126 00bc 13850400 		mv	a0,s1
 127 00c0 83308101 		ld	ra,24(sp)
 128              		.cfi_remember_state
 129              		.cfi_restore 1
 130 00c4 03340101 		ld	s0,16(sp)
 131              		.cfi_restore 8
 132              		.cfi_def_cfa 2, 32
 133 00c8 83348100 		ld	s1,8(sp)
 134              		.cfi_restore 9
 135 00cc 13010102 		addi	sp,sp,32
 136              		.cfi_def_cfa_offset 0
 137 00d0 67800000 		jr	ra
 138              	.LVL10:
 139              	.L9:
 140              		.cfi_restore_state
 141              	.LBB18:
 142              	.LBB17:
  40:src/../h/List.hpp ****         tail=prev;
 143              		.loc 2 40 14
 144 00d4 17070000 		sd	zero,.LANCHOR0,a4
 144      23300700 
 145 00dc 6FF09FFC 		j	.L10
 146              	.LBE17:
 147              	.LBE18:
 148              		.cfi_endproc
 149              	.LFE4:
 151              		.align	2
 152              		.globl	_ZN9Scheduler3putEP3TCB
 154              	_ZN9Scheduler3putEP3TCB:
 155              	.LFB5:
  11:src/Scheduler.cpp **** void Scheduler::put(TCB *x) {
 156              		.loc 1 11 29 is_stmt 1
 157              		.cfi_startproc
 158              	.LVL11:
 159 00e0 130101FE 		addi	sp,sp,-32
 160              		.cfi_def_cfa_offset 32
 161 00e4 233C1100 		sd	ra,24(sp)
 162 00e8 23388100 		sd	s0,16(sp)
 163 00ec 23349100 		sd	s1,8(sp)
 164              		.cfi_offset 1, -8
 165              		.cfi_offset 8, -16
GAS LISTING /tmp/cc7SdnjK.s 			page 5


 166              		.cfi_offset 9, -24
 167 00f0 13040102 		addi	s0,sp,32
 168              		.cfi_def_cfa 8, 0
 169 00f4 93040500 		mv	s1,a0
  12:src/Scheduler.cpp ****     queue.addFirst(x);
 170              		.loc 1 12 5
 171              	.LVL12:
 172              	.LBB24:
 173              	.LBB25:
  27:src/../h/List.hpp ****         head=elem;
 174              		.loc 2 27 20 is_stmt 0
 175 00f8 13050001 		li	a0,16
 176              	.LVL13:
 177 00fc 97000000 		call	_Znwm@plt
 177      E7800000 
 178              	.LVL14:
 179 0104 97070000 		lla	a5,.LANCHOR0
 179      93870700 
 180 010c 03B70700 		ld	a4,0(a5)
 181              	.LVL15:
 182              	.LBB26:
 183              	.LBB27:
  18:src/../h/List.hpp ****     };
 184              		.loc 2 18 65
 185 0110 23309500 		sd	s1,0(a0)
 186 0114 2334E500 		sd	a4,8(a0)
 187              	.LVL16:
 188              	.LBE27:
 189              	.LBE26:
  28:src/../h/List.hpp ****         if(!tail){tail=head;}
 190              		.loc 2 28 9
 191 0118 23B0A700 		sd	a0,0(a5)
  29:src/../h/List.hpp ****         size++;
 192              		.loc 2 29 13
 193 011c 83B78700 		ld	a5,8(a5)
  29:src/../h/List.hpp ****         size++;
 194              		.loc 2 29 9
 195 0120 63860702 		beqz	a5,.L15
 196              	.L13:
  30:src/../h/List.hpp ****     }
 197              		.loc 2 30 9
 198 0124 17070000 		lla	a4,.LANCHOR0
 198      13070700 
 199 012c 83270701 		lw	a5,16(a4)
 200 0130 9B871700 		addiw	a5,a5,1
 201 0134 2328F700 		sw	a5,16(a4)
 202              	.LVL17:
 203              	.LBE25:
 204              	.LBE24:
 205              		.loc 1 13 1
 206 0138 83308101 		ld	ra,24(sp)
 207              		.cfi_remember_state
 208              		.cfi_restore 1
 209 013c 03340101 		ld	s0,16(sp)
 210              		.cfi_restore 8
 211              		.cfi_def_cfa 2, 32
 212 0140 83348100 		ld	s1,8(sp)
GAS LISTING /tmp/cc7SdnjK.s 			page 6


 213              		.cfi_restore 9
 214              	.LVL18:
 215 0144 13010102 		addi	sp,sp,32
 216              		.cfi_def_cfa_offset 0
 217 0148 67800000 		jr	ra
 218              	.LVL19:
 219              	.L15:
 220              		.cfi_restore_state
 221              	.LBB29:
 222              	.LBB28:
  29:src/../h/List.hpp ****         size++;
 223              		.loc 2 29 19
 224 014c 97070000 		sd	a0,.LANCHOR0+8,a5
 224      23B0A700 
 225 0154 6FF01FFD 		j	.L13
 226              	.LBE28:
 227              	.LBE29:
 228              		.cfi_endproc
 229              	.LFE5:
 231              		.align	2
 233              	_GLOBAL__sub_I__ZN9Scheduler5queueE:
 234              	.LFB15:
 235              		.loc 1 13 1 is_stmt 1
 236              		.cfi_startproc
 237 0158 130101FF 		addi	sp,sp,-16
 238              		.cfi_def_cfa_offset 16
 239 015c 23341100 		sd	ra,8(sp)
 240 0160 23308100 		sd	s0,0(sp)
 241              		.cfi_offset 1, -8
 242              		.cfi_offset 8, -16
 243 0164 13040101 		addi	s0,sp,16
 244              		.cfi_def_cfa 8, 0
 245              		.loc 1 13 1 is_stmt 0
 246 0168 B7050100 		li	a1,65536
 247 016c 9385F5FF 		addi	a1,a1,-1
 248 0170 13051000 		li	a0,1
 249 0174 97000000 		call	_Z41__static_initialization_and_destruction_0ii
 249      E7800000 
 250              	.LVL20:
 251 017c 83308100 		ld	ra,8(sp)
 252              		.cfi_restore 1
 253 0180 03340100 		ld	s0,0(sp)
 254              		.cfi_restore 8
 255              		.cfi_def_cfa 2, 16
 256 0184 13010101 		addi	sp,sp,16
 257              		.cfi_def_cfa_offset 0
 258 0188 67800000 		jr	ra
 259              		.cfi_endproc
 260              	.LFE15:
 262              		.section	.init_array,"aw"
 263              		.align	3
 264 0000 00000000 		.dword	_GLOBAL__sub_I__ZN9Scheduler5queueE
 264      00000000 
 265              		.globl	_ZN9Scheduler5queueE
 266              		.bss
 267              		.align	3
 268              		.set	.LANCHOR0,. + 0
GAS LISTING /tmp/cc7SdnjK.s 			page 7


 271              	_ZN9Scheduler5queueE:
 272 0000 00000000 		.zero	24
 272      00000000 
 272      00000000 
 272      00000000 
 272      00000000 
 273              		.text
 274              	.Letext0:
 275              		.file 3 "src/../h/Scheduler.hpp"
GAS LISTING /tmp/cc7SdnjK.s 			page 8

