GAS LISTING /tmp/ccoihGmF.s 			page 1


   1              		.file	"SEM.cpp"
   2              		.option pic
   3              		.option norelax
   4              		.text
   5              	.Ltext0:
   6              		.align	2
   7              		.globl	_ZN3SEMC2Ej
   9              	_ZN3SEMC2Ej:
  10              	.LFB22:
  11              		.file 1 "src/SEM.cpp"
   1:src/SEM.cpp   **** #include "../h/SEM.hpp"
   2:src/SEM.cpp   **** #include "../h/syscall_cpp.hpp"
   3:src/SEM.cpp   **** #include "../h/syscall_c.hpp"
   4:src/SEM.cpp   **** #include "../h/print.hpp"
   5:src/SEM.cpp   **** 
   6:src/SEM.cpp   **** SEM::SEM(unsigned init) {
  12              		.loc 1 6 1
  13              		.cfi_startproc
  14              	.LVL0:
  15 0000 130101FF 		addi	sp,sp,-16
  16              		.cfi_def_cfa_offset 16
  17 0004 23348100 		sd	s0,8(sp)
  18              		.cfi_offset 8, -8
  19 0008 13040101 		addi	s0,sp,16
  20              		.cfi_def_cfa 8, 0
  21              	.LVL1:
  22              	.LBB18:
  23              	.LBB19:
  24              	.LBB20:
  25              		.file 2 "src/../h/List.hpp"
   1:src/../h/List.hpp **** //
   2:src/../h/List.hpp **** // Created by os on 9/23/25.
   3:src/../h/List.hpp **** //
   4:src/../h/List.hpp **** 
   5:src/../h/List.hpp **** #ifndef PROJECT_BASE_V1_1_COPY_LIST_HPP
   6:src/../h/List.hpp **** #define PROJECT_BASE_V1_1_COPY_LIST_HPP
   7:src/../h/List.hpp **** 
   8:src/../h/List.hpp **** 
   9:src/../h/List.hpp **** 
  10:src/../h/List.hpp **** template<typename T>
  11:src/../h/List.hpp **** class List
  12:src/../h/List.hpp **** {
  13:src/../h/List.hpp **** private:
  14:src/../h/List.hpp ****     struct Elem
  15:src/../h/List.hpp ****     {
  16:src/../h/List.hpp ****         T* data;
  17:src/../h/List.hpp ****         Elem* next;
  18:src/../h/List.hpp ****         Elem(T* data, Elem* next=nullptr): data(data), next(next){}
  19:src/../h/List.hpp ****     };
  20:src/../h/List.hpp ****     Elem * head;
  21:src/../h/List.hpp ****     Elem *tail;
  22:src/../h/List.hpp **** 
  23:src/../h/List.hpp **** public:
  24:src/../h/List.hpp ****     List(): head(0), tail(0){}
  26              		.loc 2 24 28 is_stmt 0
  27 000c 23340500 		sd	zero,8(a0)
  28 0010 23380500 		sd	zero,16(a0)
GAS LISTING /tmp/ccoihGmF.s 			page 2


  29 0014 232C0500 		sw	zero,24(a0)
  30              	.LVL2:
  31              	.LBE20:
  32              	.LBE19:
   7:src/SEM.cpp   ****     this->val=init;
  33              		.loc 1 7 5 is_stmt 1
  34              		.loc 1 7 14 is_stmt 0
  35 0018 2320B500 		sw	a1,0(a0)
   8:src/SEM.cpp   ****     this->closed=false;
  36              		.loc 1 8 5 is_stmt 1
  37              		.loc 1 8 17 is_stmt 0
  38 001c 23020500 		sb	zero,4(a0)
  39              	.LBE18:
   9:src/SEM.cpp   **** 
  10:src/SEM.cpp   **** }
  40              		.loc 1 10 1
  41 0020 03348100 		ld	s0,8(sp)
  42              		.cfi_restore 8
  43              		.cfi_def_cfa 2, 16
  44 0024 13010101 		addi	sp,sp,16
  45              		.cfi_def_cfa_offset 0
  46 0028 67800000 		jr	ra
  47              		.cfi_endproc
  48              	.LFE22:
  50              		.globl	_ZN3SEMC1Ej
  51              		.set	_ZN3SEMC1Ej,_ZN3SEMC2Ej
  52              		.align	2
  53              		.globl	_ZN3SEM4openEj
  55              	_ZN3SEM4openEj:
  56              	.LFB24:
  11:src/SEM.cpp   **** 
  12:src/SEM.cpp   **** SEM* SEM::open(unsigned init) {
  57              		.loc 1 12 31 is_stmt 1
  58              		.cfi_startproc
  59              	.LVL3:
  60 002c 130101FE 		addi	sp,sp,-32
  61              		.cfi_def_cfa_offset 32
  62 0030 233C1100 		sd	ra,24(sp)
  63 0034 23388100 		sd	s0,16(sp)
  64 0038 23349100 		sd	s1,8(sp)
  65 003c 23302101 		sd	s2,0(sp)
  66              		.cfi_offset 1, -8
  67              		.cfi_offset 8, -16
  68              		.cfi_offset 9, -24
  69              		.cfi_offset 18, -32
  70 0040 13040102 		addi	s0,sp,32
  71              		.cfi_def_cfa 8, 0
  72 0044 13090500 		mv	s2,a0
  13:src/SEM.cpp   ****     //pprintString("Sem::open\n ");
  14:src/SEM.cpp   ****     return new SEM(init);
  73              		.loc 1 14 5
  74              		.loc 1 14 24 is_stmt 0
  75 0048 13050002 		li	a0,32
  76              	.LVL4:
  77 004c 97000000 		call	_Znwm@plt
  77      E7800000 
  78              	.LVL5:
GAS LISTING /tmp/ccoihGmF.s 			page 3


  79 0054 93040500 		mv	s1,a0
  80 0058 93050900 		mv	a1,s2
  81 005c 97000000 		call	_ZN3SEMC1Ej
  81      E7800000 
  82              	.LVL6:
  15:src/SEM.cpp   **** }
  83              		.loc 1 15 1
  84 0064 13850400 		mv	a0,s1
  85 0068 83308101 		ld	ra,24(sp)
  86              		.cfi_restore 1
  87 006c 03340101 		ld	s0,16(sp)
  88              		.cfi_restore 8
  89              		.cfi_def_cfa 2, 32
  90 0070 83348100 		ld	s1,8(sp)
  91              		.cfi_restore 9
  92 0074 03390100 		ld	s2,0(sp)
  93              		.cfi_restore 18
  94 0078 13010102 		addi	sp,sp,32
  95              		.cfi_def_cfa_offset 0
  96 007c 67800000 		jr	ra
  97              		.cfi_endproc
  98              	.LFE24:
 100              		.align	2
 101              		.globl	_ZN3SEM5closeEv
 103              	_ZN3SEM5closeEv:
 104              	.LFB25:
  16:src/SEM.cpp   **** 
  17:src/SEM.cpp   **** int SEM::close() {
 105              		.loc 1 17 18 is_stmt 1
 106              		.cfi_startproc
 107              	.LVL7:
  18:src/SEM.cpp   ****     //pprintString("Sem::close\n");
  19:src/SEM.cpp   ****     if (this->closed) {
 108              		.loc 1 19 5
 109              		.loc 1 19 15 is_stmt 0
 110 0080 83474500 		lbu	a5,4(a0)
 111              		.loc 1 19 5
 112 0084 6392070A 		bnez	a5,.L13
  17:src/SEM.cpp   ****     //pprintString("Sem::close\n");
 113              		.loc 1 17 18
 114 0088 130101FE 		addi	sp,sp,-32
 115              		.cfi_def_cfa_offset 32
 116 008c 233C1100 		sd	ra,24(sp)
 117 0090 23388100 		sd	s0,16(sp)
 118 0094 23349100 		sd	s1,8(sp)
 119 0098 23302101 		sd	s2,0(sp)
 120              		.cfi_offset 1, -8
 121              		.cfi_offset 8, -16
 122              		.cfi_offset 9, -24
 123              		.cfi_offset 18, -32
 124 009c 13040102 		addi	s0,sp,32
 125              		.cfi_def_cfa 8, 0
 126 00a0 13090500 		mv	s2,a0
  20:src/SEM.cpp   ****         return -1;
  21:src/SEM.cpp   ****     }
  22:src/SEM.cpp   ****     this->closed=true;
 127              		.loc 1 22 5 is_stmt 1
GAS LISTING /tmp/ccoihGmF.s 			page 4


 128              		.loc 1 22 17 is_stmt 0
 129 00a4 93071000 		li	a5,1
 130 00a8 2302F500 		sb	a5,4(a0)
 131 00ac 6F008003 		j	.L12
 132              	.LVL8:
 133              	.L8:
 134              	.LBB27:
 135              	.LBB28:
 136              	.LBB29:
  25:src/../h/List.hpp ****     void addFirst(T* data)
  26:src/../h/List.hpp ****     {
  27:src/../h/List.hpp ****         Elem* elem=new Elem(data, head);
  28:src/../h/List.hpp ****         head=elem;
  29:src/../h/List.hpp ****         if(!tail){tail=head;}
  30:src/../h/List.hpp ****         size++;
  31:src/../h/List.hpp ****     }
  32:src/../h/List.hpp ****     T* removeLast()
  33:src/../h/List.hpp ****     {
  34:src/../h/List.hpp ****         size--;
  35:src/../h/List.hpp ****         if(!head){return 0;}
  36:src/../h/List.hpp ****         Elem* prev=0;
  37:src/../h/List.hpp ****         for(Elem* curr=head; curr && curr!=tail; prev=curr, curr=curr->next);
  38:src/../h/List.hpp ****         Elem* elem=tail;
 137              		.loc 2 38 15
 138 00b0 03B58700 		ld	a0,8(a5)
 139              	.LVL9:
  39:src/../h/List.hpp ****         if(prev) prev->next=0;
 140              		.loc 2 39 9
 141 00b4 63060706 		beqz	a4,.L10
 142              		.loc 2 39 18
 143 00b8 23340700 		sd	zero,8(a4)
 144              	.L11:
  40:src/../h/List.hpp ****         else head=0;
  41:src/../h/List.hpp ****         tail=prev;
 145              		.loc 2 41 9
 146 00bc 23B4E700 		sd	a4,8(a5)
  42:src/../h/List.hpp ****         T* retval= elem->data;
 147              		.loc 2 42 12
 148 00c0 83340500 		ld	s1,0(a0)
 149              	.LVL10:
  43:src/../h/List.hpp ****         delete elem;
 150              		.loc 2 43 9
 151 00c4 63060500 		beqz	a0,.L7
 152 00c8 97000000 		call	_ZdlPv@plt
 152      E7800000 
 153              	.LVL11:
 154              	.L7:
 155              	.LBE29:
 156              	.LBE28:
  23:src/SEM.cpp   **** 
  24:src/SEM.cpp   ****     while (blockedQueue.size> 0) {
  25:src/SEM.cpp   ****         TCB* tcb = blockedQueue.removeLast();
  26:src/SEM.cpp   ****         if (tcb == nullptr) {
 157              		.loc 1 26 9 is_stmt 1
 158 00d0 638E0406 		beqz	s1,.L15
  27:src/SEM.cpp   ****             return -1;
  28:src/SEM.cpp   ****         }
GAS LISTING /tmp/ccoihGmF.s 			page 5


  29:src/SEM.cpp   ****         tcb->unblock();
 159              		.loc 1 29 9
 160              	.LVL12:
 161              	.LBB32:
 162              	.LBB33:
 163              		.file 3 "src/../h/TCB.hpp"
   1:src/../h/TCB.hpp **** //
   2:src/../h/TCB.hpp **** // Created by os on 9/23/25.
   3:src/../h/TCB.hpp **** //
   4:src/../h/TCB.hpp **** 
   5:src/../h/TCB.hpp **** #ifndef PROJECT_BASE_V1_1_COPY_TCB_HPP
   6:src/../h/TCB.hpp **** #define PROJECT_BASE_V1_1_COPY_TCB_HPP
   7:src/../h/TCB.hpp **** #include "../lib/hw.h"
   8:src/../h/TCB.hpp **** #include "../h/Scheduler.hpp"
   9:src/../h/TCB.hpp **** #include "../h/MemoryAllocator.hpp"
  10:src/../h/TCB.hpp **** 
  11:src/../h/TCB.hpp **** class TCB
  12:src/../h/TCB.hpp **** {
  13:src/../h/TCB.hpp **** public:
  14:src/../h/TCB.hpp ****     void* operator new(size_t size)
  15:src/../h/TCB.hpp **** {
  16:src/../h/TCB.hpp ****     return MemoryAllocator::Instance()->mem_alloc(size);
  17:src/../h/TCB.hpp **** }
  18:src/../h/TCB.hpp **** 
  19:src/../h/TCB.hpp ****     void operator delete(void* ptr)
  20:src/../h/TCB.hpp ****     {
  21:src/../h/TCB.hpp ****         return MemoryAllocator::Instance()->mem_free(ptr);
  22:src/../h/TCB.hpp ****     }
  23:src/../h/TCB.hpp **** 
  24:src/../h/TCB.hpp **** 
  25:src/../h/TCB.hpp ****     using Body=void(*)(void*);
  26:src/../h/TCB.hpp **** 
  27:src/../h/TCB.hpp ****     ~TCB()
  28:src/../h/TCB.hpp ****     {
  29:src/../h/TCB.hpp ****         delete stack;
  30:src/../h/TCB.hpp ****     }
  31:src/../h/TCB.hpp **** 
  32:src/../h/TCB.hpp ****     static TCB* createThread(Body body, void* arg, uint64* stack);
  33:src/../h/TCB.hpp **** 
  34:src/../h/TCB.hpp ****     static void dispatch();
  35:src/../h/TCB.hpp ****     static int exit();
  36:src/../h/TCB.hpp **** 
  37:src/../h/TCB.hpp **** 
  38:src/../h/TCB.hpp ****     bool isFinished() const { return finished;}
  39:src/../h/TCB.hpp **** 
  40:src/../h/TCB.hpp ****     void block() { this->blocked = true; }
  41:src/../h/TCB.hpp ****     void unblock() { this->blocked = false; }
 164              		.loc 3 41 22
 165              		.loc 3 41 36 is_stmt 0
 166 00d4 23880402 		sb	zero,48(s1)
 167              	.LVL13:
 168              	.LBE33:
 169              	.LBE32:
  30:src/SEM.cpp   ****         Scheduler::put(tcb);
 170              		.loc 1 30 9 is_stmt 1
 171              		.loc 1 30 23 is_stmt 0
 172 00d8 13850400 		mv	a0,s1
GAS LISTING /tmp/ccoihGmF.s 			page 6


 173 00dc 97000000 		call	_ZN9Scheduler3putEP3TCB@plt
 173      E7800000 
 174              	.LVL14:
 175              	.L12:
 176              	.LBE27:
  24:src/SEM.cpp   ****         TCB* tcb = blockedQueue.removeLast();
 177              		.loc 1 24 5 is_stmt 1
  24:src/SEM.cpp   ****         TCB* tcb = blockedQueue.removeLast();
 178              		.loc 1 24 29
  24:src/SEM.cpp   ****         TCB* tcb = blockedQueue.removeLast();
 179              		.loc 1 24 25 is_stmt 0
 180 00e4 83278901 		lw	a5,24(s2)
  24:src/SEM.cpp   ****         TCB* tcb = blockedQueue.removeLast();
 181              		.loc 1 24 29
 182 00e8 6354F004 		blez	a5,.L14
 183              	.LBB35:
  25:src/SEM.cpp   ****         if (tcb == nullptr) {
 184              		.loc 1 25 9 is_stmt 1
  25:src/SEM.cpp   ****         if (tcb == nullptr) {
 185              		.loc 1 25 43 is_stmt 0
 186 00ec 93078900 		addi	a5,s2,8
 187              	.LVL15:
 188              	.LBB34:
 189              	.LBB31:
  34:src/../h/List.hpp ****         if(!head){return 0;}
 190              		.loc 2 34 9
 191 00f0 03A70701 		lw	a4,16(a5)
 192 00f4 1B07F7FF 		addiw	a4,a4,-1
 193 00f8 23A8E700 		sw	a4,16(a5)
  35:src/../h/List.hpp ****         Elem* prev=0;
 194              		.loc 2 35 13
 195 00fc 83348900 		ld	s1,8(s2)
  35:src/../h/List.hpp ****         Elem* prev=0;
 196              		.loc 2 35 9
 197 0100 E38804FC 		beqz	s1,.L7
  36:src/../h/List.hpp ****         for(Elem* curr=head; curr && curr!=tail; prev=curr, curr=curr->next);
 198              		.loc 2 36 15
 199 0104 13070000 		li	a4,0
 200              	.L9:
 201              	.LVL16:
 202              	.LBB30:
  37:src/../h/List.hpp ****         Elem* elem=tail;
 203              		.loc 2 37 35 is_stmt 1
 204 0108 E38404FA 		beqz	s1,.L8
  37:src/../h/List.hpp ****         Elem* elem=tail;
 205              		.loc 2 37 44 is_stmt 0
 206 010c 83B68700 		ld	a3,8(a5)
  37:src/../h/List.hpp ****         Elem* elem=tail;
 207              		.loc 2 37 35
 208 0110 E380D4FA 		beq	s1,a3,.L8
  37:src/../h/List.hpp ****         Elem* elem=tail;
 209              		.loc 2 37 9 is_stmt 1
 210              	.LVL17:
 211 0114 13870400 		mv	a4,s1
 212 0118 83B48400 		ld	s1,8(s1)
 213              	.LVL18:
 214 011c 6FF0DFFE 		j	.L9
GAS LISTING /tmp/ccoihGmF.s 			page 7


 215              	.LVL19:
 216              	.L10:
 217              	.LBE30:
  40:src/../h/List.hpp ****         tail=prev;
 218              		.loc 2 40 14 is_stmt 0
 219 0120 23340900 		sd	zero,8(s2)
 220 0124 6FF09FF9 		j	.L11
 221              	.LVL20:
 222              	.L13:
 223              		.cfi_def_cfa_register 2
 224              		.cfi_restore 1
 225              		.cfi_restore 8
 226              		.cfi_restore 9
 227              		.cfi_restore 18
 228              	.LBE31:
 229              	.LBE34:
 230              	.LBE35:
  20:src/SEM.cpp   ****     }
 231              		.loc 1 20 17
 232 0128 1305F0FF 		li	a0,-1
 233              	.LVL21:
  31:src/SEM.cpp   ****     }
  32:src/SEM.cpp   ****     return 0;
  33:src/SEM.cpp   **** }
 234              		.loc 1 33 1
 235 012c 67800000 		ret
 236              	.LVL22:
 237              	.L14:
 238              		.cfi_def_cfa_register 8
 239              		.cfi_offset 1, -8
 240              		.cfi_offset 8, -16
 241              		.cfi_offset 9, -24
 242              		.cfi_offset 18, -32
  32:src/SEM.cpp   **** }
 243              		.loc 1 32 12
 244 0130 13050000 		li	a0,0
 245              	.L6:
 246              		.loc 1 33 1
 247 0134 83308101 		ld	ra,24(sp)
 248              		.cfi_remember_state
 249              		.cfi_restore 1
 250 0138 03340101 		ld	s0,16(sp)
 251              		.cfi_restore 8
 252              		.cfi_def_cfa 2, 32
 253 013c 83348100 		ld	s1,8(sp)
 254              		.cfi_restore 9
 255 0140 03390100 		ld	s2,0(sp)
 256              		.cfi_restore 18
 257              	.LVL23:
 258 0144 13010102 		addi	sp,sp,32
 259              		.cfi_def_cfa_offset 0
 260 0148 67800000 		jr	ra
 261              	.LVL24:
 262              	.L15:
 263              		.cfi_restore_state
 264              	.LBB36:
  27:src/SEM.cpp   ****         }
GAS LISTING /tmp/ccoihGmF.s 			page 8


 265              		.loc 1 27 21
 266 014c 1305F0FF 		li	a0,-1
 267 0150 6FF05FFE 		j	.L6
 268              	.LBE36:
 269              		.cfi_endproc
 270              	.LFE25:
 272              		.align	2
 273              		.globl	_ZN3SEM4waitEv
 275              	_ZN3SEM4waitEv:
 276              	.LFB26:
  34:src/SEM.cpp   **** 
  35:src/SEM.cpp   **** int SEM::wait() {
 277              		.loc 1 35 17 is_stmt 1
 278              		.cfi_startproc
 279              	.LVL25:
  36:src/SEM.cpp   ****     //pprintString("Sem::wait\n");
  37:src/SEM.cpp   ****     if (this->closed) {
 280              		.loc 1 37 5
 281              		.loc 1 37 15 is_stmt 0
 282 0154 83474500 		lbu	a5,4(a0)
 283              		.loc 1 37 5
 284 0158 639C070A 		bnez	a5,.L23
  35:src/SEM.cpp   ****     //pprintString("Sem::wait\n");
 285              		.loc 1 35 17
 286 015c 130101FD 		addi	sp,sp,-48
 287              		.cfi_def_cfa_offset 48
 288 0160 23341102 		sd	ra,40(sp)
 289 0164 23308102 		sd	s0,32(sp)
 290 0168 233C9100 		sd	s1,24(sp)
 291 016c 23382101 		sd	s2,16(sp)
 292 0170 23343101 		sd	s3,8(sp)
 293              		.cfi_offset 1, -8
 294              		.cfi_offset 8, -16
 295              		.cfi_offset 9, -24
 296              		.cfi_offset 18, -32
 297              		.cfi_offset 19, -40
 298 0174 13040103 		addi	s0,sp,48
 299              		.cfi_def_cfa 8, 0
 300 0178 93040500 		mv	s1,a0
  38:src/SEM.cpp   ****         return -1;
  39:src/SEM.cpp   ****     }
  40:src/SEM.cpp   ****     val--;
 301              		.loc 1 40 5 is_stmt 1
 302 017c 83270500 		lw	a5,0(a0)
 303              		.loc 1 40 8 is_stmt 0
 304 0180 9B87F7FF 		addiw	a5,a5,-1
 305 0184 2320F500 		sw	a5,0(a0)
  41:src/SEM.cpp   ****     if (val<0) {
 306              		.loc 1 41 5 is_stmt 1
 307 0188 13970702 		slli	a4,a5,32
 308 018c 63420702 		bltz	a4,.L29
  42:src/SEM.cpp   ****         TCB::running->block();
  43:src/SEM.cpp   ****         blockedQueue.addFirst(TCB::running);
  44:src/SEM.cpp   ****         //thread_dispatch();
  45:src/SEM.cpp   ****         TCB::dispatch();
  46:src/SEM.cpp   ****     }
  47:src/SEM.cpp   ****     return 0;
GAS LISTING /tmp/ccoihGmF.s 			page 9


 309              		.loc 1 47 12 is_stmt 0
 310 0190 13050000 		li	a0,0
 311              	.LVL26:
 312              	.L21:
  48:src/SEM.cpp   **** }
 313              		.loc 1 48 1
 314 0194 83308102 		ld	ra,40(sp)
 315              		.cfi_remember_state
 316              		.cfi_restore 1
 317 0198 03340102 		ld	s0,32(sp)
 318              		.cfi_restore 8
 319              		.cfi_def_cfa 2, 48
 320 019c 83348101 		ld	s1,24(sp)
 321              		.cfi_restore 9
 322              	.LVL27:
 323 01a0 03390101 		ld	s2,16(sp)
 324              		.cfi_restore 18
 325 01a4 83398100 		ld	s3,8(sp)
 326              		.cfi_restore 19
 327 01a8 13010103 		addi	sp,sp,48
 328              		.cfi_def_cfa_offset 0
 329 01ac 67800000 		jr	ra
 330              	.LVL28:
 331              	.L29:
 332              		.cfi_restore_state
  42:src/SEM.cpp   ****         TCB::running->block();
 333              		.loc 1 42 9 is_stmt 1
  42:src/SEM.cpp   ****         TCB::running->block();
 334              		.loc 1 42 28 is_stmt 0
 335 01b0 97070000 		la	a5,_ZN3TCB7runningE
 335      83B70700 
 336 01b8 83B90700 		ld	s3,0(a5)
 337              	.LVL29:
 338              	.LBB44:
 339              	.LBB45:
  40:src/../h/TCB.hpp ****     void unblock() { this->blocked = false; }
 340              		.loc 3 40 20 is_stmt 1
  40:src/../h/TCB.hpp ****     void unblock() { this->blocked = false; }
 341              		.loc 3 40 34 is_stmt 0
 342 01bc 93071000 		li	a5,1
 343 01c0 2388F902 		sb	a5,48(s3)
 344              	.LVL30:
 345              	.LBE45:
 346              	.LBE44:
  43:src/SEM.cpp   ****         //thread_dispatch();
 347              		.loc 1 43 9 is_stmt 1
  43:src/SEM.cpp   ****         //thread_dispatch();
 348              		.loc 1 43 30 is_stmt 0
 349 01c4 13098500 		addi	s2,a0,8
 350              	.LVL31:
 351              	.LBB46:
 352              	.LBB47:
  27:src/../h/List.hpp ****         head=elem;
 353              		.loc 2 27 20
 354 01c8 13050001 		li	a0,16
 355 01cc 97000000 		call	_Znwm@plt
 355      E7800000 
GAS LISTING /tmp/ccoihGmF.s 			page 10


 356              	.LVL32:
 357 01d4 83B78400 		ld	a5,8(s1)
 358              	.LVL33:
 359              	.LBB48:
 360              	.LBB49:
  18:src/../h/List.hpp ****     };
 361              		.loc 2 18 65
 362 01d8 23303501 		sd	s3,0(a0)
 363 01dc 2334F500 		sd	a5,8(a0)
 364              	.LVL34:
 365              	.LBE49:
 366              	.LBE48:
  28:src/../h/List.hpp ****         if(!tail){tail=head;}
 367              		.loc 2 28 9
 368 01e0 23B4A400 		sd	a0,8(s1)
  29:src/../h/List.hpp ****         size++;
 369              		.loc 2 29 13
 370 01e4 83378900 		ld	a5,8(s2)
  29:src/../h/List.hpp ****         size++;
 371              		.loc 2 29 9
 372 01e8 63800702 		beqz	a5,.L30
 373              	.L22:
  30:src/../h/List.hpp ****     }
 374              		.loc 2 30 9
 375 01ec 83270901 		lw	a5,16(s2)
 376 01f0 9B871700 		addiw	a5,a5,1
 377 01f4 2328F900 		sw	a5,16(s2)
 378              	.LVL35:
 379              	.LBE47:
 380              	.LBE46:
  45:src/SEM.cpp   ****     }
 381              		.loc 1 45 9 is_stmt 1
  45:src/SEM.cpp   ****     }
 382              		.loc 1 45 22 is_stmt 0
 383 01f8 97000000 		call	_ZN3TCB8dispatchEv@plt
 383      E7800000 
 384              	.LVL36:
  47:src/SEM.cpp   **** }
 385              		.loc 1 47 12
 386 0200 13050000 		li	a0,0
 387 0204 6FF01FF9 		j	.L21
 388              	.LVL37:
 389              	.L30:
 390              	.LBB51:
 391              	.LBB50:
  29:src/../h/List.hpp ****         size++;
 392              		.loc 2 29 19
 393 0208 2334A900 		sd	a0,8(s2)
 394 020c 6FF01FFE 		j	.L22
 395              	.LVL38:
 396              	.L23:
 397              		.cfi_def_cfa_register 2
 398              		.cfi_restore 1
 399              		.cfi_restore 8
 400              		.cfi_restore 9
 401              		.cfi_restore 18
 402              		.cfi_restore 19
GAS LISTING /tmp/ccoihGmF.s 			page 11


 403              	.LBE50:
 404              	.LBE51:
  38:src/SEM.cpp   ****     }
 405              		.loc 1 38 17
 406 0210 1305F0FF 		li	a0,-1
 407              	.LVL39:
 408              		.loc 1 48 1
 409 0214 67800000 		ret
 410              		.cfi_endproc
 411              	.LFE26:
 413              		.align	2
 414              		.globl	_ZN3SEM6signalEv
 416              	_ZN3SEM6signalEv:
 417              	.LFB27:
  49:src/SEM.cpp   **** 
  50:src/SEM.cpp   **** int SEM::signal() {
 418              		.loc 1 50 19 is_stmt 1
 419              		.cfi_startproc
 420              	.LVL40:
  51:src/SEM.cpp   ****     //pprintString("Sem::signal\n");
  52:src/SEM.cpp   ****     if (this->closed) {
 421              		.loc 1 52 5
 422              		.loc 1 52 15 is_stmt 0
 423 0218 83474500 		lbu	a5,4(a0)
 424              		.loc 1 52 5
 425 021c 6390070C 		bnez	a5,.L38
  53:src/SEM.cpp   ****         return -1;
  54:src/SEM.cpp   ****     }
  55:src/SEM.cpp   ****     val++;
 426              		.loc 1 55 5 is_stmt 1
 427 0220 83270500 		lw	a5,0(a0)
 428              		.loc 1 55 8 is_stmt 0
 429 0224 9B871700 		addiw	a5,a5,1
 430 0228 1B870700 		sext.w	a4,a5
 431 022c 2320F500 		sw	a5,0(a0)
  56:src/SEM.cpp   ****     if (val<=0) {
 432              		.loc 1 56 5 is_stmt 1
 433              	.LBB59:
 434 0230 6356E000 		blez	a4,.L45
 435              	.LBE59:
  57:src/SEM.cpp   ****         TCB *unblockTcb = blockedQueue.removeLast();
  58:src/SEM.cpp   ****         if (unblockTcb == nullptr) {
  59:src/SEM.cpp   ****                 return -1;
  60:src/SEM.cpp   ****         }
  61:src/SEM.cpp   ****         unblockTcb->unblock();
  62:src/SEM.cpp   ****         Scheduler::put(unblockTcb);
  63:src/SEM.cpp   ****     }
  64:src/SEM.cpp   ****     return 0;
 436              		.loc 1 64 12 is_stmt 0
 437 0234 13050000 		li	a0,0
 438              	.LVL41:
  65:src/SEM.cpp   **** }
 439              		.loc 1 65 1
 440 0238 67800000 		ret
 441              	.LVL42:
 442              	.L45:
  50:src/SEM.cpp   ****     //pprintString("Sem::signal\n");
GAS LISTING /tmp/ccoihGmF.s 			page 12


 443              		.loc 1 50 19
 444 023c 130101FE 		addi	sp,sp,-32
 445              		.cfi_def_cfa_offset 32
 446 0240 233C1100 		sd	ra,24(sp)
 447 0244 23388100 		sd	s0,16(sp)
 448 0248 23349100 		sd	s1,8(sp)
 449              		.cfi_offset 1, -8
 450              		.cfi_offset 8, -16
 451              		.cfi_offset 9, -24
 452 024c 13040102 		addi	s0,sp,32
 453              		.cfi_def_cfa 8, 0
 454              	.LBB70:
 455              	.LBB60:
  57:src/SEM.cpp   ****         TCB *unblockTcb = blockedQueue.removeLast();
 456              		.loc 1 57 9 is_stmt 1
  57:src/SEM.cpp   ****         TCB *unblockTcb = blockedQueue.removeLast();
 457              		.loc 1 57 50 is_stmt 0
 458 0250 93078500 		addi	a5,a0,8
 459              	.LVL43:
 460              	.LBB61:
 461              	.LBB62:
  34:src/../h/List.hpp ****         if(!head){return 0;}
 462              		.loc 2 34 9
 463 0254 03A70701 		lw	a4,16(a5)
 464 0258 1B07F7FF 		addiw	a4,a4,-1
 465 025c 23A8E700 		sw	a4,16(a5)
  35:src/../h/List.hpp ****         Elem* prev=0;
 466              		.loc 2 35 13
 467 0260 83348500 		ld	s1,8(a0)
  35:src/../h/List.hpp ****         Elem* prev=0;
 468              		.loc 2 35 9
 469 0264 63820404 		beqz	s1,.L33
  36:src/../h/List.hpp ****         for(Elem* curr=head; curr && curr!=tail; prev=curr, curr=curr->next);
 470              		.loc 2 36 15
 471 0268 93060000 		li	a3,0
 472              	.L35:
 473              	.LVL44:
 474              	.LBB63:
  37:src/../h/List.hpp ****         Elem* elem=tail;
 475              		.loc 2 37 35 is_stmt 1
 476 026c 638C0400 		beqz	s1,.L34
  37:src/../h/List.hpp ****         Elem* elem=tail;
 477              		.loc 2 37 44 is_stmt 0
 478 0270 03B78700 		ld	a4,8(a5)
  37:src/../h/List.hpp ****         Elem* elem=tail;
 479              		.loc 2 37 35
 480 0274 6388E400 		beq	s1,a4,.L34
  37:src/../h/List.hpp ****         Elem* elem=tail;
 481              		.loc 2 37 9 is_stmt 1
 482              	.LVL45:
 483 0278 93860400 		mv	a3,s1
 484 027c 83B48400 		ld	s1,8(s1)
 485              	.LVL46:
 486 0280 6FF0DFFE 		j	.L35
 487              	.L34:
 488              	.LBE63:
  38:src/../h/List.hpp ****         if(prev) prev->next=0;
GAS LISTING /tmp/ccoihGmF.s 			page 13


 489              		.loc 2 38 15 is_stmt 0
 490 0284 03B78700 		ld	a4,8(a5)
 491              	.LVL47:
  39:src/../h/List.hpp ****         else head=0;
 492              		.loc 2 39 9
 493 0288 63860604 		beqz	a3,.L36
  39:src/../h/List.hpp ****         else head=0;
 494              		.loc 2 39 18
 495 028c 23B40600 		sd	zero,8(a3)
 496              	.L37:
  41:src/../h/List.hpp ****         T* retval= elem->data;
 497              		.loc 2 41 9
 498 0290 23B4D700 		sd	a3,8(a5)
  42:src/../h/List.hpp ****         delete elem;
 499              		.loc 2 42 12
 500 0294 83340700 		ld	s1,0(a4)
 501              	.LVL48:
 502              		.loc 2 43 9
 503 0298 63080700 		beqz	a4,.L33
 504 029c 13050700 		mv	a0,a4
 505              	.LVL49:
 506 02a0 97000000 		call	_ZdlPv@plt
 506      E7800000 
 507              	.LVL50:
 508              	.L33:
 509              	.LBE62:
 510              	.LBE61:
  58:src/SEM.cpp   ****                 return -1;
 511              		.loc 1 58 9 is_stmt 1
 512 02a8 638E0402 		beqz	s1,.L40
  61:src/SEM.cpp   ****         Scheduler::put(unblockTcb);
 513              		.loc 1 61 9
 514              	.LVL51:
 515              	.LBB65:
 516              	.LBB66:
 517              		.loc 3 41 22
 518              		.loc 3 41 36 is_stmt 0
 519 02ac 23880402 		sb	zero,48(s1)
 520              	.LVL52:
 521              	.LBE66:
 522              	.LBE65:
  62:src/SEM.cpp   ****     }
 523              		.loc 1 62 9 is_stmt 1
  62:src/SEM.cpp   ****     }
 524              		.loc 1 62 23 is_stmt 0
 525 02b0 13850400 		mv	a0,s1
 526 02b4 97000000 		call	_ZN9Scheduler3putEP3TCB@plt
 526      E7800000 
 527              	.LVL53:
 528              	.LBE60:
 529              	.LBE70:
  64:src/SEM.cpp   **** }
 530              		.loc 1 64 12
 531 02bc 13050000 		li	a0,0
 532              	.L32:
 533              		.loc 1 65 1
 534 02c0 83308101 		ld	ra,24(sp)
GAS LISTING /tmp/ccoihGmF.s 			page 14


 535              		.cfi_remember_state
 536              		.cfi_restore 1
 537 02c4 03340101 		ld	s0,16(sp)
 538              		.cfi_restore 8
 539              		.cfi_def_cfa 2, 32
 540 02c8 83348100 		ld	s1,8(sp)
 541              		.cfi_restore 9
 542              	.LVL54:
 543 02cc 13010102 		addi	sp,sp,32
 544              		.cfi_def_cfa_offset 0
 545 02d0 67800000 		jr	ra
 546              	.LVL55:
 547              	.L36:
 548              		.cfi_restore_state
 549              	.LBB71:
 550              	.LBB68:
 551              	.LBB67:
 552              	.LBB64:
  40:src/../h/List.hpp ****         tail=prev;
 553              		.loc 2 40 14
 554 02d4 23340500 		sd	zero,8(a0)
 555 02d8 6FF09FFB 		j	.L37
 556              	.LVL56:
 557              	.L38:
 558              		.cfi_def_cfa_register 2
 559              		.cfi_restore 1
 560              		.cfi_restore 8
 561              		.cfi_restore 9
 562              	.LBE64:
 563              	.LBE67:
 564              	.LBE68:
 565              	.LBE71:
  53:src/SEM.cpp   ****     }
 566              		.loc 1 53 17
 567 02dc 1305F0FF 		li	a0,-1
 568              	.LVL57:
 569 02e0 67800000 		ret
 570              	.LVL58:
 571              	.L40:
 572              		.cfi_def_cfa_register 8
 573              		.cfi_offset 1, -8
 574              		.cfi_offset 8, -16
 575              		.cfi_offset 9, -24
 576              	.LBB72:
 577              	.LBB69:
  59:src/SEM.cpp   ****         }
 578              		.loc 1 59 25
 579 02e4 1305F0FF 		li	a0,-1
 580 02e8 6FF09FFD 		j	.L32
 581              	.LBE69:
 582              	.LBE72:
 583              		.cfi_endproc
 584              	.LFE27:
 586              	.Letext0:
 587              		.file 4 "src/../h/../lib/hw.h"
 588              		.file 5 "src/../h/../h/Scheduler.hpp"
 589              		.file 6 "src/../h/SEM.hpp"
GAS LISTING /tmp/ccoihGmF.s 			page 15


 590              		.file 7 "src/../h/syscall_cpp.hpp"
GAS LISTING /tmp/ccoihGmF.s 			page 16

