GAS LISTING /tmp/cczfIhMc.s 			page 1


   1              		.file	"SList.cpp"
   2              		.option pic
   3              		.option norelax
   4              		.text
   5              	.Ltext0:
   6              		.align	2
   7              		.globl	_ZN5SList3addEP3TCBm
   9              	_ZN5SList3addEP3TCBm:
  10              	.LFB25:
  11              		.file 1 "src/SList.cpp"
   1:src/SList.cpp **** #include "../h/SList.hpp"
   2:src/SList.cpp **** #include "../h/Scheduler.hpp"
   3:src/SList.cpp **** #include "../h/syscall_cpp.hpp"
   4:src/SList.cpp **** 
   5:src/SList.cpp **** SList::Node* SList::head = nullptr;
   6:src/SList.cpp **** 
   7:src/SList.cpp **** int SList::size = 0;
   8:src/SList.cpp **** 
   9:src/SList.cpp **** void SList::add(TCB* tcb,time_t time) {
  12              		.loc 1 9 39
  13              		.cfi_startproc
  14              	.LVL0:
  15 0000 130101FE 		addi	sp,sp,-32
  16              		.cfi_def_cfa_offset 32
  17 0004 233C1100 		sd	ra,24(sp)
  18 0008 23388100 		sd	s0,16(sp)
  19 000c 23349100 		sd	s1,8(sp)
  20 0010 23302101 		sd	s2,0(sp)
  21              		.cfi_offset 1, -8
  22              		.cfi_offset 8, -16
  23              		.cfi_offset 9, -24
  24              		.cfi_offset 18, -32
  25 0014 13040102 		addi	s0,sp,32
  26              		.cfi_def_cfa 8, 0
  27 0018 13090500 		mv	s2,a0
  28 001c 93840500 		mv	s1,a1
  10:src/SList.cpp ****     Node* newNode = new Node(tcb, time);
  29              		.loc 1 10 5
  30              		.loc 1 10 39 is_stmt 0
  31 0020 13058001 		li	a0,24
  32              	.LVL1:
  33 0024 97000000 		call	_Znwm@plt
  33      E7800000 
  34              	.LVL2:
  35              	.LBB9:
  36              	.LBB10:
  37              		.file 2 "src/../h/SList.hpp"
   1:src/../h/SList.hpp **** //
   2:src/../h/SList.hpp **** // Created by os on 9/26/25.
   3:src/../h/SList.hpp **** //
   4:src/../h/SList.hpp **** 
   5:src/../h/SList.hpp **** #ifndef PROJECT_BASE_V1_1_COPY_SLIST_HPP
   6:src/../h/SList.hpp **** #define PROJECT_BASE_V1_1_COPY_SLIST_HPP
   7:src/../h/SList.hpp **** #include "TCB.hpp"
   8:src/../h/SList.hpp **** 
   9:src/../h/SList.hpp **** 
  10:src/../h/SList.hpp **** class SList {
GAS LISTING /tmp/cczfIhMc.s 			page 2


  11:src/../h/SList.hpp **** public:
  12:src/../h/SList.hpp ****     static void add(TCB* tcb, time_t sleepTime);
  13:src/../h/SList.hpp **** 
  14:src/../h/SList.hpp ****     static void oneTick();
  15:src/../h/SList.hpp **** 
  16:src/../h/SList.hpp ****     static int getSize() { return size; }
  17:src/../h/SList.hpp **** private:
  18:src/../h/SList.hpp ****     struct Node {
  19:src/../h/SList.hpp ****         TCB* tcb;
  20:src/../h/SList.hpp ****         time_t sleepTime;
  21:src/../h/SList.hpp ****         Node* next;
  22:src/../h/SList.hpp ****         Node(TCB* val,time_t sleep):tcb(val), sleepTime(sleep),next(nullptr){}
  38              		.loc 2 22 76
  39 002c 23302501 		sd	s2,0(a0)
  40 0030 23349500 		sd	s1,8(a0)
  41 0034 23380500 		sd	zero,16(a0)
  42              	.LVL3:
  43              	.LBE10:
  44              	.LBE9:
  11:src/SList.cpp ****     if(newNode==nullptr)
  45              		.loc 1 11 5 is_stmt 1
  46 0038 63040504 		beqz	a0,.L1
  12:src/SList.cpp ****         return;
  13:src/SList.cpp ****     if (head == nullptr || time < head->sleepTime) {
  47              		.loc 1 13 5
  48              	.LBB11:
  49              		.loc 1 13 14 is_stmt 0
  50 003c 97070000 		ld	a5,.LANCHOR0
  50      83B70700 
  51              		.loc 1 13 5
  52 0044 63860700 		beqz	a5,.L3
  53              		.loc 1 13 41 discriminator 1
  54 0048 03B78700 		ld	a4,8(a5)
  55              		.loc 1 13 25 discriminator 1
  56 004c 63F6E404 		bleu	a4,s1,.L4
  57              	.L3:
  14:src/SList.cpp ****         newNode->next = head;
  58              		.loc 1 14 9 is_stmt 1
  59              		.loc 1 14 23 is_stmt 0
  60 0050 2338F500 		sd	a5,16(a0)
  15:src/SList.cpp ****         if (head != nullptr) {
  61              		.loc 1 15 9 is_stmt 1
  62 0054 63880700 		beqz	a5,.L5
  16:src/SList.cpp ****             head->sleepTime=head->sleepTime-newNode->sleepTime;
  63              		.loc 1 16 13
  64              		.loc 1 16 35 is_stmt 0
  65 0058 83B58700 		ld	a1,8(a5)
  66              		.loc 1 16 44
  67 005c B3849540 		sub	s1,a1,s1
  68              	.LVL4:
  69              		.loc 1 16 28
  70 0060 23B49700 		sd	s1,8(a5)
  71              	.LVL5:
  72              	.L5:
  17:src/SList.cpp ****         }
  18:src/SList.cpp ****         head = newNode;
  73              		.loc 1 18 9 is_stmt 1
GAS LISTING /tmp/cczfIhMc.s 			page 3


  74              		.loc 1 18 14 is_stmt 0
  75 0064 97070000 		sd	a0,.LANCHOR0,a5
  75      23B0A700 
  76              	.L6:
  77              	.LBE11:
  19:src/SList.cpp ****     } else {
  20:src/SList.cpp ****         Node* curr = head;
  21:src/SList.cpp ****         while (curr->next != nullptr && curr->next->sleepTime <= newNode->sleepTime) {
  22:src/SList.cpp ****             newNode->sleepTime=newNode->sleepTime - curr->sleepTime;
  23:src/SList.cpp ****             curr=curr->next;
  24:src/SList.cpp ****         }
  25:src/SList.cpp ****         newNode->next = curr->next;
  26:src/SList.cpp ****         curr->next = newNode;
  27:src/SList.cpp ****     }
  28:src/SList.cpp ****     size++;
  78              		.loc 1 28 5 is_stmt 1
  79              		.loc 1 28 9 is_stmt 0
  80 006c 17070000 		lla	a4,.LANCHOR0
  80      13070700 
  81 0074 83278700 		lw	a5,8(a4)
  82 0078 9B871700 		addiw	a5,a5,1
  83 007c 2324F700 		sw	a5,8(a4)
  84              	.L1:
  29:src/SList.cpp **** 
  30:src/SList.cpp **** }
  85              		.loc 1 30 1
  86 0080 83308101 		ld	ra,24(sp)
  87              		.cfi_remember_state
  88              		.cfi_restore 1
  89 0084 03340101 		ld	s0,16(sp)
  90              		.cfi_restore 8
  91              		.cfi_def_cfa 2, 32
  92 0088 83348100 		ld	s1,8(sp)
  93              		.cfi_restore 9
  94 008c 03390100 		ld	s2,0(sp)
  95              		.cfi_restore 18
  96              	.LVL6:
  97 0090 13010102 		addi	sp,sp,32
  98              		.cfi_def_cfa_offset 0
  99 0094 67800000 		jr	ra
 100              	.LVL7:
 101              	.L4:
 102              		.cfi_restore_state
 103              	.LBB13:
 104              	.LBB12:
  21:src/SList.cpp ****             newNode->sleepTime=newNode->sleepTime - curr->sleepTime;
 105              		.loc 1 21 9 is_stmt 1
  21:src/SList.cpp ****             newNode->sleepTime=newNode->sleepTime - curr->sleepTime;
 106              		.loc 1 21 38
  21:src/SList.cpp ****             newNode->sleepTime=newNode->sleepTime - curr->sleepTime;
 107              		.loc 1 21 22 is_stmt 0
 108 0098 83B60701 		ld	a3,16(a5)
  21:src/SList.cpp ****             newNode->sleepTime=newNode->sleepTime - curr->sleepTime;
 109              		.loc 1 21 38
 110 009c 63820602 		beqz	a3,.L7
  21:src/SList.cpp ****             newNode->sleepTime=newNode->sleepTime - curr->sleepTime;
 111              		.loc 1 21 53 discriminator 1
GAS LISTING /tmp/cczfIhMc.s 			page 4


 112 00a0 03B68600 		ld	a2,8(a3)
  21:src/SList.cpp ****             newNode->sleepTime=newNode->sleepTime - curr->sleepTime;
 113              		.loc 1 21 75 discriminator 1
 114 00a4 03378500 		ld	a4,8(a0)
  21:src/SList.cpp ****             newNode->sleepTime=newNode->sleepTime - curr->sleepTime;
 115              		.loc 1 21 38 discriminator 1
 116 00a8 636CC700 		bgtu	a2,a4,.L7
  22:src/SList.cpp ****             curr=curr->next;
 117              		.loc 1 22 13 is_stmt 1
  22:src/SList.cpp ****             curr=curr->next;
 118              		.loc 1 22 59 is_stmt 0
 119 00ac 83B68700 		ld	a3,8(a5)
  22:src/SList.cpp ****             curr=curr->next;
 120              		.loc 1 22 51
 121 00b0 3307D740 		sub	a4,a4,a3
  22:src/SList.cpp ****             curr=curr->next;
 122              		.loc 1 22 31
 123 00b4 2334E500 		sd	a4,8(a0)
  23:src/SList.cpp ****         }
 124              		.loc 1 23 13 is_stmt 1
  23:src/SList.cpp ****         }
 125              		.loc 1 23 17 is_stmt 0
 126 00b8 83B70701 		ld	a5,16(a5)
 127              	.LVL8:
  21:src/SList.cpp ****             newNode->sleepTime=newNode->sleepTime - curr->sleepTime;
 128              		.loc 1 21 9
 129 00bc 6FF0DFFD 		j	.L4
 130              	.L7:
  25:src/SList.cpp ****         curr->next = newNode;
 131              		.loc 1 25 9 is_stmt 1
  25:src/SList.cpp ****         curr->next = newNode;
 132              		.loc 1 25 23 is_stmt 0
 133 00c0 2338D500 		sd	a3,16(a0)
  26:src/SList.cpp ****     }
 134              		.loc 1 26 9 is_stmt 1
  26:src/SList.cpp ****     }
 135              		.loc 1 26 20 is_stmt 0
 136 00c4 23B8A700 		sd	a0,16(a5)
 137 00c8 6FF05FFA 		j	.L6
 138              	.LBE12:
 139              	.LBE13:
 140              		.cfi_endproc
 141              	.LFE25:
 143              		.align	2
 144              		.globl	_ZN5SList7oneTickEv
 146              	_ZN5SList7oneTickEv:
 147              	.LFB26:
  31:src/SList.cpp **** 
  32:src/SList.cpp **** void SList::oneTick() {
 148              		.loc 1 32 23 is_stmt 1
 149              		.cfi_startproc
  33:src/SList.cpp ****     if (!head)
 150              		.loc 1 33 5
 151              		.loc 1 33 9 is_stmt 0
 152 00cc 97070000 		ld	a5,.LANCHOR0
 152      83B70700 
 153              		.loc 1 33 5
GAS LISTING /tmp/cczfIhMc.s 			page 5


 154 00d4 63880708 		beqz	a5,.L13
  34:src/SList.cpp ****         return;
  35:src/SList.cpp ****     head->sleepTime--;
 155              		.loc 1 35 5 is_stmt 1
 156              		.loc 1 35 11 is_stmt 0
 157 00d8 03B78700 		ld	a4,8(a5)
 158              		.loc 1 35 20
 159 00dc 1307F7FF 		addi	a4,a4,-1
 160 00e0 23B4E700 		sd	a4,8(a5)
  36:src/SList.cpp ****     while (head != nullptr && head->sleepTime <= 0) {
 161              		.loc 1 36 5 is_stmt 1
 162              		.loc 1 36 28
 163              		.loc 1 36 17 is_stmt 0
 164 00e4 97070000 		ld	a5,.LANCHOR0
 164      83B70700 
 165              		.loc 1 36 28
 166 00ec 638C0706 		beqz	a5,.L13
 167              		.loc 1 36 37
 168 00f0 03B78700 		ld	a4,8(a5)
 169              		.loc 1 36 28
 170 00f4 63180706 		bnez	a4,.L13
  32:src/SList.cpp ****     if (!head)
 171              		.loc 1 32 23
 172 00f8 130101FF 		addi	sp,sp,-16
 173              		.cfi_def_cfa_offset 16
 174 00fc 23341100 		sd	ra,8(sp)
 175 0100 23308100 		sd	s0,0(sp)
 176              		.cfi_offset 1, -8
 177              		.cfi_offset 8, -16
 178 0104 13040101 		addi	s0,sp,16
 179              		.cfi_def_cfa 8, 0
 180 0108 6F00C000 		j	.L16
 181              	.L19:
 182              		.loc 1 36 37 discriminator 1
 183 010c 03B78700 		ld	a4,8(a5)
 184              		.loc 1 36 28 discriminator 1
 185 0110 63120704 		bnez	a4,.L9
 186              	.L16:
  37:src/SList.cpp ****         head->tcb->unblock();
 187              		.loc 1 37 9 is_stmt 1
 188              		.loc 1 37 15 is_stmt 0
 189 0114 03B70700 		ld	a4,0(a5)
 190              	.LVL9:
 191              	.LBB14:
 192              	.LBB15:
 193              		.file 3 "src/../h/TCB.hpp"
   1:src/../h/TCB.hpp **** //
   2:src/../h/TCB.hpp **** // Created by os on 9/23/25.
   3:src/../h/TCB.hpp **** //
   4:src/../h/TCB.hpp **** 
   5:src/../h/TCB.hpp **** #ifndef PROJECT_BASE_V1_1_COPY_TCB_HPP
   6:src/../h/TCB.hpp **** #define PROJECT_BASE_V1_1_COPY_TCB_HPP
   7:src/../h/TCB.hpp **** #include "../lib/hw.h"
   8:src/../h/TCB.hpp **** #include "../h/Scheduler.hpp"
   9:src/../h/TCB.hpp **** #include "../h/MemoryAllocator.hpp"
  10:src/../h/TCB.hpp **** 
  11:src/../h/TCB.hpp **** class TCB
GAS LISTING /tmp/cczfIhMc.s 			page 6


  12:src/../h/TCB.hpp **** {
  13:src/../h/TCB.hpp **** public:
  14:src/../h/TCB.hpp ****     void* operator new(size_t size)
  15:src/../h/TCB.hpp **** {
  16:src/../h/TCB.hpp ****     return MemoryAllocator::Instance()->mem_alloc(size);
  17:src/../h/TCB.hpp **** }
  18:src/../h/TCB.hpp **** 
  19:src/../h/TCB.hpp ****     void operator delete(void* ptr)
  20:src/../h/TCB.hpp ****     {
  21:src/../h/TCB.hpp ****         return MemoryAllocator::Instance()->mem_free(ptr);
  22:src/../h/TCB.hpp ****     }
  23:src/../h/TCB.hpp **** 
  24:src/../h/TCB.hpp **** 
  25:src/../h/TCB.hpp ****     using Body=void(*)(void*);
  26:src/../h/TCB.hpp **** 
  27:src/../h/TCB.hpp ****     ~TCB()
  28:src/../h/TCB.hpp ****     {
  29:src/../h/TCB.hpp ****         delete stack;
  30:src/../h/TCB.hpp ****     }
  31:src/../h/TCB.hpp **** 
  32:src/../h/TCB.hpp ****     static TCB* createThread(Body body, void* arg, uint64* stack);
  33:src/../h/TCB.hpp **** 
  34:src/../h/TCB.hpp ****     static void dispatch();
  35:src/../h/TCB.hpp ****     static int exit();
  36:src/../h/TCB.hpp ****     static void InitOutputThread();
  37:src/../h/TCB.hpp **** 
  38:src/../h/TCB.hpp **** 
  39:src/../h/TCB.hpp ****     bool isFinished() const { return finished;}
  40:src/../h/TCB.hpp ****     void block() { this->blocked = true; }
  41:src/../h/TCB.hpp ****     void unblock() { this->blocked = false; }
 194              		.loc 3 41 22 is_stmt 1
 195              		.loc 3 41 36 is_stmt 0
 196 0118 23080702 		sb	zero,48(a4)
 197              	.LVL10:
 198              	.LBE15:
 199              	.LBE14:
  38:src/SList.cpp ****         Scheduler::put(head->tcb);
 200              		.loc 1 38 9 is_stmt 1
 201              		.loc 1 38 23 is_stmt 0
 202 011c 03B50700 		ld	a0,0(a5)
 203 0120 97000000 		call	_ZN9Scheduler3putEP3TCB@plt
 203      E7800000 
 204              	.LVL11:
  39:src/SList.cpp ****         head = head->next;
 205              		.loc 1 39 9 is_stmt 1
 206              		.loc 1 39 22 is_stmt 0
 207 0128 97070000 		lla	a5,.LANCHOR0
 207      93870700 
 208 0130 03B70700 		ld	a4,0(a5)
 209 0134 03370701 		ld	a4,16(a4)
 210              		.loc 1 39 14
 211 0138 23B0E700 		sd	a4,0(a5)
  40:src/SList.cpp ****         size--;
 212              		.loc 1 40 9 is_stmt 1
 213              		.loc 1 40 13 is_stmt 0
 214 013c 03A78700 		lw	a4,8(a5)
 215 0140 1B07F7FF 		addiw	a4,a4,-1
GAS LISTING /tmp/cczfIhMc.s 			page 7


 216 0144 23A4E700 		sw	a4,8(a5)
  36:src/SList.cpp ****         head->tcb->unblock();
 217              		.loc 1 36 5 is_stmt 1
  36:src/SList.cpp ****         head->tcb->unblock();
 218              		.loc 1 36 28
  36:src/SList.cpp ****         head->tcb->unblock();
 219              		.loc 1 36 17 is_stmt 0
 220 0148 97070000 		ld	a5,.LANCHOR0
 220      83B70700 
  36:src/SList.cpp ****         head->tcb->unblock();
 221              		.loc 1 36 28
 222 0150 E39E07FA 		bnez	a5,.L19
 223              	.L9:
  41:src/SList.cpp ****     }
  42:src/SList.cpp **** }
 224              		.loc 1 42 1
 225 0154 83308100 		ld	ra,8(sp)
 226              		.cfi_restore 1
 227 0158 03340100 		ld	s0,0(sp)
 228              		.cfi_restore 8
 229              		.cfi_def_cfa 2, 16
 230 015c 13010101 		addi	sp,sp,16
 231              		.cfi_def_cfa_offset 0
 232 0160 67800000 		jr	ra
 233              	.L13:
 234 0164 67800000 		ret
 235              		.cfi_endproc
 236              	.LFE26:
 238              		.globl	_ZN5SList4sizeE
 239              		.globl	_ZN5SList4headE
 240              		.bss
 241              		.align	3
 242              		.set	.LANCHOR0,. + 0
 245              	_ZN5SList4headE:
 246 0000 00000000 		.zero	8
 246      00000000 
 249              	_ZN5SList4sizeE:
 250 0008 00000000 		.zero	4
 251              		.text
 252              	.Letext0:
 253              		.file 4 "src/../h/../lib/hw.h"
 254              		.file 5 "src/../h/../h/Scheduler.hpp"
 255              		.file 6 "src/../h/../h/List.hpp"
 256              		.file 7 "src/../h/syscall_cpp.hpp"
GAS LISTING /tmp/cczfIhMc.s 			page 8

