GAS LISTING /tmp/ccg8AQx8.s 			page 1


   1              		.file	"syscall_c.cpp"
   2              		.option pic
   3              		.option norelax
   4              		.text
   5              	.Ltext0:
   6              		.align	2
   7              		.globl	_Z9mem_allocm
   9              	_Z9mem_allocm:
  10              	.LFB24:
  11              		.file 1 "src/syscall_c.cpp"
   1:src/syscall_c.cpp **** //
   2:src/syscall_c.cpp **** // Created by os on 9/8/25.
   3:src/syscall_c.cpp **** //
   4:src/syscall_c.cpp **** #include "../h/syscall_c.hpp"
   5:src/syscall_c.cpp **** #include  "../h/MemoryAllocator.hpp"
   6:src/syscall_c.cpp **** 
   7:src/syscall_c.cpp **** 
   8:src/syscall_c.cpp **** inline void invoke(uint64 opcode)
   9:src/syscall_c.cpp **** {
  10:src/syscall_c.cpp ****     __asm__ volatile("mv a0, %0" ::"r"(opcode));
  11:src/syscall_c.cpp ****     __asm__ volatile("ecall");
  12:src/syscall_c.cpp **** }
  13:src/syscall_c.cpp **** 
  14:src/syscall_c.cpp **** void* mem_alloc(size_t size) {
  12              		.loc 1 14 30
  13              		.cfi_startproc
  14              	.LVL0:
  15 0000 130101FF 		addi	sp,sp,-16
  16              		.cfi_def_cfa_offset 16
  17 0004 23348100 		sd	s0,8(sp)
  18              		.cfi_offset 8, -8
  19 0008 13040101 		addi	s0,sp,16
  20              		.cfi_def_cfa 8, 0
  15:src/syscall_c.cpp ****     size_t offset = size % MEM_BLOCK_SIZE;
  21              		.loc 1 15 5
  22              		.loc 1 15 12 is_stmt 0
  23 000c 93773500 		andi	a5,a0,3
  24              	.LVL1:
  16:src/syscall_c.cpp ****     if (offset!=0)
  25              		.loc 1 16 5 is_stmt 1
  26 0010 63840700 		beqz	a5,.L2
  17:src/syscall_c.cpp ****         offset=1;
  27              		.loc 1 17 15 is_stmt 0
  28 0014 93071000 		li	a5,1
  29              	.LVL2:
  30              	.L2:
  18:src/syscall_c.cpp ****     size_t blocks=size/MEM_BLOCK_SIZE +offset;
  31              		.loc 1 18 5 is_stmt 1
  32              		.loc 1 18 23 is_stmt 0
  33 0018 13552500 		srli	a0,a0,2
  34              	.LVL3:
  35              		.loc 1 18 12
  36 001c 3305F500 		add	a0,a0,a5
  37              	.LVL4:
  19:src/syscall_c.cpp ****     __asm__ volatile ("mv a1, %[x]" :: [x] "r" (blocks));
  38              		.loc 1 19 5 is_stmt 1
  39              		.loc 1 19 57 is_stmt 0
GAS LISTING /tmp/ccg8AQx8.s 			page 2


  40              	#APP
  41              	# 19 "src/syscall_c.cpp" 1
  20              	    invoke(MEM_ALLOC);
  42              		mv a1, a0
  43              	# 0 "" 2
  44              		.loc 1 20 5 is_stmt 1
  45              	.LVL5:
  46              	#NO_APP
  47              	.LBB16:
  48              	.LBB17:
  10:src/syscall_c.cpp ****     __asm__ volatile("ecall");
  49              		.loc 1 10 5
  10:src/syscall_c.cpp ****     __asm__ volatile("ecall");
  50              		.loc 1 10 48 is_stmt 0
  51 0024 93071000 		li	a5,1
  52              	.LVL6:
  53              	#APP
  54              	# 10 "src/syscall_c.cpp" 1
  11:src/syscall_c.cpp **** }
  55              		mv a0, a5
  56              	# 0 "" 2
  57              		.loc 1 11 5 is_stmt 1
  11:src/syscall_c.cpp **** }
  58              		.loc 1 11 30 is_stmt 0
  59              	# 11 "src/syscall_c.cpp" 1
  60              		ecall
  61              	# 0 "" 2
  62              	.LVL7:
  63              	#NO_APP
  64              	.LBE17:
  65              	.LBE16:
  21:src/syscall_c.cpp **** 
  22:src/syscall_c.cpp ****     uint64 ret;
  66              		.loc 1 22 5 is_stmt 1
  23:src/syscall_c.cpp ****     __asm__ volatile ("mv %[x], a0" : [x] "=r" (ret));
  67              		.loc 1 23 5
  68              		.loc 1 23 54 is_stmt 0
  69              	#APP
  70              	# 23 "src/syscall_c.cpp" 1
  24              	    return (void*)ret;
  71              		mv a0, a0
  72              	# 0 "" 2
  73              	.LVL8:
  74              		.loc 1 24 5 is_stmt 1
  25:src/syscall_c.cpp **** }
  75              		.loc 1 25 1 is_stmt 0
  76              	#NO_APP
  77 0034 03348100 		ld	s0,8(sp)
  78              		.cfi_restore 8
  79              		.cfi_def_cfa 2, 16
  80 0038 13010101 		addi	sp,sp,16
  81              		.cfi_def_cfa_offset 0
  82 003c 67800000 		jr	ra
  83              		.cfi_endproc
  84              	.LFE24:
  86              		.align	2
  87              		.globl	_Z8mem_freePv
GAS LISTING /tmp/ccg8AQx8.s 			page 3


  89              	_Z8mem_freePv:
  90              	.LFB25:
  26:src/syscall_c.cpp **** 
  27:src/syscall_c.cpp **** int mem_free(void* ptr) {
  91              		.loc 1 27 25 is_stmt 1
  92              		.cfi_startproc
  93              	.LVL9:
  94 0040 130101FF 		addi	sp,sp,-16
  95              		.cfi_def_cfa_offset 16
  96 0044 23348100 		sd	s0,8(sp)
  97              		.cfi_offset 8, -8
  98 0048 13040101 		addi	s0,sp,16
  99              		.cfi_def_cfa 8, 0
  28:src/syscall_c.cpp ****     if (ptr==nullptr) {
 100              		.loc 1 28 5
 101 004c 63040502 		beqz	a0,.L7
  29:src/syscall_c.cpp ****         return 0;
  30:src/syscall_c.cpp ****     }
  31:src/syscall_c.cpp ****     void *p=ptr;
 102              		.loc 1 31 5
 103              	.LVL10:
  32:src/syscall_c.cpp ****     __asm__ volatile ("mv a1, %[x]" :: [x] "r" (p));
 104              		.loc 1 32 5
 105              		.loc 1 32 52 is_stmt 0
 106              	#APP
 107              	# 32 "src/syscall_c.cpp" 1
  33              	    invoke(MEM_FREE);
 108              		mv a1, a0
 109              	# 0 "" 2
 110              		.loc 1 33 5 is_stmt 1
 111              	.LVL11:
 112              	#NO_APP
 113              	.LBB18:
 114              	.LBB19:
  10:src/syscall_c.cpp ****     __asm__ volatile("ecall");
 115              		.loc 1 10 5
  10:src/syscall_c.cpp ****     __asm__ volatile("ecall");
 116              		.loc 1 10 48 is_stmt 0
 117 0054 93072000 		li	a5,2
 118              	#APP
 119              	# 10 "src/syscall_c.cpp" 1
  11:src/syscall_c.cpp **** }
 120              		mv a0, a5
 121              	# 0 "" 2
 122              		.loc 1 11 5 is_stmt 1
  11:src/syscall_c.cpp **** }
 123              		.loc 1 11 30 is_stmt 0
 124              	# 11 "src/syscall_c.cpp" 1
 125              		ecall
 126              	# 0 "" 2
 127              	.LVL12:
 128              	#NO_APP
 129              	.LBE19:
 130              	.LBE18:
  34:src/syscall_c.cpp ****     uint64 ret;
 131              		.loc 1 34 5 is_stmt 1
  35:src/syscall_c.cpp ****     __asm__ volatile ("mv %[x], a0" : [x] "=r" (ret));
GAS LISTING /tmp/ccg8AQx8.s 			page 4


 132              		.loc 1 35 5
 133              		.loc 1 35 54 is_stmt 0
 134              	#APP
 135              	# 35 "src/syscall_c.cpp" 1
  36              	    return (int)ret;
 136              		mv a0, a0
 137              	# 0 "" 2
 138              	.LVL13:
 139              		.loc 1 36 5 is_stmt 1
 140              		.loc 1 36 17 is_stmt 0
 141              	#NO_APP
 142 0064 1B050500 		sext.w	a0,a0
 143              	.LVL14:
 144              	.L6:
  37:src/syscall_c.cpp **** }
 145              		.loc 1 37 1
 146 0068 03348100 		ld	s0,8(sp)
 147              		.cfi_remember_state
 148              		.cfi_restore 8
 149              		.cfi_def_cfa 2, 16
 150 006c 13010101 		addi	sp,sp,16
 151              		.cfi_def_cfa_offset 0
 152 0070 67800000 		jr	ra
 153              	.LVL15:
 154              	.L7:
 155              		.cfi_restore_state
  29:src/syscall_c.cpp ****     }
 156              		.loc 1 29 16
 157 0074 13050000 		li	a0,0
 158              	.LVL16:
 159 0078 6FF01FFF 		j	.L6
 160              		.cfi_endproc
 161              	.LFE25:
 163              		.align	2
 164              		.globl	_Z18mem_get_free_spacev
 166              	_Z18mem_get_free_spacev:
 167              	.LFB26:
  38:src/syscall_c.cpp **** 
  39:src/syscall_c.cpp **** size_t mem_get_free_space() {
 168              		.loc 1 39 29 is_stmt 1
 169              		.cfi_startproc
 170 007c 130101FF 		addi	sp,sp,-16
 171              		.cfi_def_cfa_offset 16
 172 0080 23348100 		sd	s0,8(sp)
 173              		.cfi_offset 8, -8
 174 0084 13040101 		addi	s0,sp,16
 175              		.cfi_def_cfa 8, 0
  40:src/syscall_c.cpp **** 
  41:src/syscall_c.cpp ****     invoke(MEM_GET_FREE_SPACE);
 176              		.loc 1 41 5
 177              	.LVL17:
 178              	.LBB20:
 179              	.LBB21:
  10:src/syscall_c.cpp ****     __asm__ volatile("ecall");
 180              		.loc 1 10 5
  10:src/syscall_c.cpp ****     __asm__ volatile("ecall");
 181              		.loc 1 10 48 is_stmt 0
GAS LISTING /tmp/ccg8AQx8.s 			page 5


 182 0088 93073000 		li	a5,3
 183              	#APP
 184              	# 10 "src/syscall_c.cpp" 1
  11:src/syscall_c.cpp **** }
 185              		mv a0, a5
 186              	# 0 "" 2
 187              		.loc 1 11 5 is_stmt 1
  11:src/syscall_c.cpp **** }
 188              		.loc 1 11 30 is_stmt 0
 189              	# 11 "src/syscall_c.cpp" 1
 190              		ecall
 191              	# 0 "" 2
 192              	.LVL18:
 193              	#NO_APP
 194              	.LBE21:
 195              	.LBE20:
  42:src/syscall_c.cpp ****     uint64 ret;
 196              		.loc 1 42 5 is_stmt 1
  43:src/syscall_c.cpp ****     __asm__ volatile ("mv %[x], a0" : [x] "=r" (ret));
 197              		.loc 1 43 5
 198              		.loc 1 43 54 is_stmt 0
 199              	#APP
 200              	# 43 "src/syscall_c.cpp" 1
  44              	    return (size_t)ret;
 201              		mv a0, a0
 202              	# 0 "" 2
 203              	.LVL19:
 204              		.loc 1 44 5 is_stmt 1
  45:src/syscall_c.cpp **** }
 205              		.loc 1 45 1 is_stmt 0
 206              	#NO_APP
 207 0098 03348100 		ld	s0,8(sp)
 208              		.cfi_restore 8
 209              		.cfi_def_cfa 2, 16
 210 009c 13010101 		addi	sp,sp,16
 211              		.cfi_def_cfa_offset 0
 212 00a0 67800000 		jr	ra
 213              		.cfi_endproc
 214              	.LFE26:
 216              		.align	2
 217              		.globl	_Z26mem_get_largest_free_blockv
 219              	_Z26mem_get_largest_free_blockv:
 220              	.LFB27:
  46:src/syscall_c.cpp **** 
  47:src/syscall_c.cpp **** size_t mem_get_largest_free_block() {
 221              		.loc 1 47 37 is_stmt 1
 222              		.cfi_startproc
 223 00a4 130101FF 		addi	sp,sp,-16
 224              		.cfi_def_cfa_offset 16
 225 00a8 23348100 		sd	s0,8(sp)
 226              		.cfi_offset 8, -8
 227 00ac 13040101 		addi	s0,sp,16
 228              		.cfi_def_cfa 8, 0
  48:src/syscall_c.cpp ****     invoke(MEM_GET_LARGEST_FREE_BLOCK);
 229              		.loc 1 48 5
 230              	.LVL20:
 231              	.LBB22:
GAS LISTING /tmp/ccg8AQx8.s 			page 6


 232              	.LBB23:
  10:src/syscall_c.cpp ****     __asm__ volatile("ecall");
 233              		.loc 1 10 5
  10:src/syscall_c.cpp ****     __asm__ volatile("ecall");
 234              		.loc 1 10 48 is_stmt 0
 235 00b0 93074000 		li	a5,4
 236              	#APP
 237              	# 10 "src/syscall_c.cpp" 1
  11:src/syscall_c.cpp **** }
 238              		mv a0, a5
 239              	# 0 "" 2
 240              		.loc 1 11 5 is_stmt 1
  11:src/syscall_c.cpp **** }
 241              		.loc 1 11 30 is_stmt 0
 242              	# 11 "src/syscall_c.cpp" 1
 243              		ecall
 244              	# 0 "" 2
 245              	.LVL21:
 246              	#NO_APP
 247              	.LBE23:
 248              	.LBE22:
  49:src/syscall_c.cpp ****     uint64 ret;
 249              		.loc 1 49 5 is_stmt 1
  50:src/syscall_c.cpp ****     __asm__ volatile ("mv %[x], a0" : [x] "=r" (ret));
 250              		.loc 1 50 5
 251              		.loc 1 50 54 is_stmt 0
 252              	#APP
 253              	# 50 "src/syscall_c.cpp" 1
  51              	    return (size_t)ret;
 254              		mv a0, a0
 255              	# 0 "" 2
 256              	.LVL22:
 257              		.loc 1 51 5 is_stmt 1
  52:src/syscall_c.cpp **** }
 258              		.loc 1 52 1 is_stmt 0
 259              	#NO_APP
 260 00c0 03348100 		ld	s0,8(sp)
 261              		.cfi_restore 8
 262              		.cfi_def_cfa 2, 16
 263 00c4 13010101 		addi	sp,sp,16
 264              		.cfi_def_cfa_offset 0
 265 00c8 67800000 		jr	ra
 266              		.cfi_endproc
 267              	.LFE27:
 269              		.align	2
 270              		.globl	_Z13thread_createPP3TCBPFvPvES2_
 272              	_Z13thread_createPP3TCBPFvPvES2_:
 273              	.LFB28:
  53:src/syscall_c.cpp **** 
  54:src/syscall_c.cpp **** 
  55:src/syscall_c.cpp **** int thread_create(thread_t* handle, void(*start_routine)(void*), void* arg)
  56:src/syscall_c.cpp **** {
 274              		.loc 1 56 1 is_stmt 1
 275              		.cfi_startproc
 276              	.LVL23:
 277 00cc 130101FF 		addi	sp,sp,-16
 278              		.cfi_def_cfa_offset 16
GAS LISTING /tmp/ccg8AQx8.s 			page 7


 279 00d0 23348100 		sd	s0,8(sp)
 280              		.cfi_offset 8, -8
 281 00d4 13040101 		addi	s0,sp,16
 282              		.cfi_def_cfa 8, 0
  57:src/syscall_c.cpp **** 
  58:src/syscall_c.cpp ****     __asm__ volatile ("mv a3, %[x]" :: [x] "r" (arg));
 283              		.loc 1 58 5
 284              		.loc 1 58 54 is_stmt 0
 285              	#APP
 286              	# 58 "src/syscall_c.cpp" 1
  59              	    __asm__ volatile ("mv a2, %[x]" :: [x] "r" (start_routine));
 287              		mv a3, a2
 288              	# 0 "" 2
 289              		.loc 1 59 5 is_stmt 1
 290              		.loc 1 59 64 is_stmt 0
 291              	# 59 "src/syscall_c.cpp" 1
  60              	    __asm__ volatile ("mv a1, %[x]" :: [x] "r" (handle));
 292              		mv a2, a1
 293              	# 0 "" 2
 294              		.loc 1 60 5 is_stmt 1
 295              		.loc 1 60 57 is_stmt 0
 296              	# 60 "src/syscall_c.cpp" 1
  61              	
  62:src/syscall_c.cpp ****     invoke(THREAD_CREATE);
 297              		mv a1, a0
 298              	# 0 "" 2
 299              		.loc 1 62 5 is_stmt 1
 300              	.LVL24:
 301              	#NO_APP
 302              	.LBB24:
 303              	.LBB25:
  10:src/syscall_c.cpp ****     __asm__ volatile("ecall");
 304              		.loc 1 10 5
  10:src/syscall_c.cpp ****     __asm__ volatile("ecall");
 305              		.loc 1 10 48 is_stmt 0
 306 00e4 93071001 		li	a5,17
 307              	#APP
 308              	# 10 "src/syscall_c.cpp" 1
  11:src/syscall_c.cpp **** }
 309              		mv a0, a5
 310              	# 0 "" 2
 311              		.loc 1 11 5 is_stmt 1
  11:src/syscall_c.cpp **** }
 312              		.loc 1 11 30 is_stmt 0
 313              	# 11 "src/syscall_c.cpp" 1
 314              		ecall
 315              	# 0 "" 2
 316              	.LVL25:
 317              	#NO_APP
 318              	.LBE25:
 319              	.LBE24:
  63:src/syscall_c.cpp ****     uint64 ret;
 320              		.loc 1 63 5 is_stmt 1
  64:src/syscall_c.cpp ****     __asm__ volatile ("mv %[x], a0" : [x] "=r" (ret));
 321              		.loc 1 64 5
 322              		.loc 1 64 54 is_stmt 0
 323              	#APP
GAS LISTING /tmp/ccg8AQx8.s 			page 8


 324              	# 64 "src/syscall_c.cpp" 1
  65              	    return (int)ret;
 325              		mv a0, a0
 326              	# 0 "" 2
 327              	.LVL26:
 328              		.loc 1 65 5 is_stmt 1
  66:src/syscall_c.cpp **** }
 329              		.loc 1 66 1 is_stmt 0
 330              	#NO_APP
 331 00f4 1B050500 		sext.w	a0,a0
 332              	.LVL27:
 333 00f8 03348100 		ld	s0,8(sp)
 334              		.cfi_restore 8
 335              		.cfi_def_cfa 2, 16
 336 00fc 13010101 		addi	sp,sp,16
 337              		.cfi_def_cfa_offset 0
 338 0100 67800000 		jr	ra
 339              		.cfi_endproc
 340              	.LFE28:
 342              		.align	2
 343              		.globl	_Z11thread_exitv
 345              	_Z11thread_exitv:
 346              	.LFB29:
  67:src/syscall_c.cpp **** int thread_exit()
  68:src/syscall_c.cpp **** {
 347              		.loc 1 68 1 is_stmt 1
 348              		.cfi_startproc
 349 0104 130101FF 		addi	sp,sp,-16
 350              		.cfi_def_cfa_offset 16
 351 0108 23348100 		sd	s0,8(sp)
 352              		.cfi_offset 8, -8
 353 010c 13040101 		addi	s0,sp,16
 354              		.cfi_def_cfa 8, 0
  69:src/syscall_c.cpp ****     invoke(THREAD_EXIT);
 355              		.loc 1 69 5
 356              	.LVL28:
 357              	.LBB26:
 358              	.LBB27:
  10:src/syscall_c.cpp ****     __asm__ volatile("ecall");
 359              		.loc 1 10 5
  10:src/syscall_c.cpp ****     __asm__ volatile("ecall");
 360              		.loc 1 10 48 is_stmt 0
 361 0110 93072001 		li	a5,18
 362              	#APP
 363              	# 10 "src/syscall_c.cpp" 1
  11:src/syscall_c.cpp **** }
 364              		mv a0, a5
 365              	# 0 "" 2
 366              		.loc 1 11 5 is_stmt 1
  11:src/syscall_c.cpp **** }
 367              		.loc 1 11 30 is_stmt 0
 368              	# 11 "src/syscall_c.cpp" 1
 369              		ecall
 370              	# 0 "" 2
 371              	.LVL29:
 372              	#NO_APP
 373              	.LBE27:
GAS LISTING /tmp/ccg8AQx8.s 			page 9


 374              	.LBE26:
  70:src/syscall_c.cpp ****     uint64 ret;
 375              		.loc 1 70 5 is_stmt 1
  71:src/syscall_c.cpp ****     __asm__ volatile ("mv %[x], a0" : [x] "=r" (ret));
 376              		.loc 1 71 5
 377              		.loc 1 71 54 is_stmt 0
 378              	#APP
 379              	# 71 "src/syscall_c.cpp" 1
  72              	    return (int)ret;
 380              		mv a0, a0
 381              	# 0 "" 2
 382              	.LVL30:
 383              		.loc 1 72 5 is_stmt 1
  73:src/syscall_c.cpp **** }
 384              		.loc 1 73 1 is_stmt 0
 385              	#NO_APP
 386 0120 1B050500 		sext.w	a0,a0
 387              	.LVL31:
 388 0124 03348100 		ld	s0,8(sp)
 389              		.cfi_restore 8
 390              		.cfi_def_cfa 2, 16
 391 0128 13010101 		addi	sp,sp,16
 392              		.cfi_def_cfa_offset 0
 393 012c 67800000 		jr	ra
 394              		.cfi_endproc
 395              	.LFE29:
 397              		.align	2
 398              		.globl	_Z15thread_dispatchv
 400              	_Z15thread_dispatchv:
 401              	.LFB30:
  74:src/syscall_c.cpp **** 
  75:src/syscall_c.cpp **** void thread_dispatch()
  76:src/syscall_c.cpp **** {
 402              		.loc 1 76 1 is_stmt 1
 403              		.cfi_startproc
 404 0130 130101FF 		addi	sp,sp,-16
 405              		.cfi_def_cfa_offset 16
 406 0134 23348100 		sd	s0,8(sp)
 407              		.cfi_offset 8, -8
 408 0138 13040101 		addi	s0,sp,16
 409              		.cfi_def_cfa 8, 0
  77:src/syscall_c.cpp ****     invoke(THREAD_DISPATCH);
 410              		.loc 1 77 5
 411              	.LVL32:
 412              	.LBB28:
 413              	.LBB29:
  10:src/syscall_c.cpp ****     __asm__ volatile("ecall");
 414              		.loc 1 10 5
  10:src/syscall_c.cpp ****     __asm__ volatile("ecall");
 415              		.loc 1 10 48 is_stmt 0
 416 013c 93073001 		li	a5,19
 417              	#APP
 418              	# 10 "src/syscall_c.cpp" 1
  11:src/syscall_c.cpp **** }
 419              		mv a0, a5
 420              	# 0 "" 2
 421              		.loc 1 11 5 is_stmt 1
GAS LISTING /tmp/ccg8AQx8.s 			page 10


  11:src/syscall_c.cpp **** }
 422              		.loc 1 11 30 is_stmt 0
 423              	# 11 "src/syscall_c.cpp" 1
 424              		ecall
 425              	# 0 "" 2
 426              	.LVL33:
 427              	#NO_APP
 428              	.LBE29:
 429              	.LBE28:
  78:src/syscall_c.cpp **** }...
 430              		.loc 1 78 1
 431 0148 03348100 		ld	s0,8(sp)
 432              		.cfi_restore 8
 433              		.cfi_def_cfa 2, 16
 434 014c 13010101 		addi	sp,sp,16
 435              		.cfi_def_cfa_offset 0
 436 0150 67800000 		jr	ra
 437              		.cfi_endproc
 438              	.LFE30:
 440              	.Letext0:
 441              		.file 2 "src/../h/../lib/hw.h"
 442              		.file 3 "src/../h/TCB.hpp"
 443              		.file 4 "src/../h/syscall_c.hpp"
GAS LISTING /tmp/ccg8AQx8.s 			page 11


DEFINED SYMBOLS
                            *ABS*:0000000000000000 syscall_c.cpp
     /tmp/ccg8AQx8.s:9      .text:0000000000000000 _Z9mem_allocm
     /tmp/ccg8AQx8.s:13     .text:0000000000000000 .L0 
     /tmp/ccg8AQx8.s:15     .text:0000000000000000 .L0 
     /tmp/ccg8AQx8.s:16     .text:0000000000000004 .L0 
     /tmp/ccg8AQx8.s:18     .text:0000000000000008 .L0 
     /tmp/ccg8AQx8.s:20     .text:000000000000000c .L0 
     /tmp/ccg8AQx8.s:22     .text:000000000000000c .L0 
     /tmp/ccg8AQx8.s:23     .text:000000000000000c .L0 
     /tmp/ccg8AQx8.s:26     .text:0000000000000010 .L0 
     /tmp/ccg8AQx8.s:28     .text:0000000000000014 .L0 
     /tmp/ccg8AQx8.s:32     .text:0000000000000018 .L0 
     /tmp/ccg8AQx8.s:33     .text:0000000000000018 .L0 
     /tmp/ccg8AQx8.s:36     .text:000000000000001c .L0 
     /tmp/ccg8AQx8.s:39     .text:0000000000000020 .L0 
   src/syscall_c.cpp:19     .text:0000000000000020 .L0 
     /tmp/ccg8AQx8.s:49     .text:0000000000000024 .L0 
     /tmp/ccg8AQx8.s:50     .text:0000000000000024 .L0 
     /tmp/ccg8AQx8.s:51     .text:0000000000000024 .L0 
     /tmp/ccg8AQx8.s:58     .text:000000000000002c .L0 
   src/syscall_c.cpp:11     .text:000000000000002c .L0 
     /tmp/ccg8AQx8.s:67     .text:0000000000000030 .L0 
     /tmp/ccg8AQx8.s:68     .text:0000000000000030 .L0 
   src/syscall_c.cpp:23     .text:0000000000000030 .L0 
     /tmp/ccg8AQx8.s:75     .text:0000000000000034 .L0 
     /tmp/ccg8AQx8.s:77     .text:0000000000000034 .L0 
     /tmp/ccg8AQx8.s:78     .text:0000000000000038 .L0 
     /tmp/ccg8AQx8.s:79     .text:0000000000000038 .L0 
     /tmp/ccg8AQx8.s:81     .text:000000000000003c .L0 
     /tmp/ccg8AQx8.s:83     .text:0000000000000040 .L0 
     /tmp/ccg8AQx8.s:89     .text:0000000000000040 _Z8mem_freePv
     /tmp/ccg8AQx8.s:92     .text:0000000000000040 .L0 
     /tmp/ccg8AQx8.s:94     .text:0000000000000040 .L0 
     /tmp/ccg8AQx8.s:95     .text:0000000000000044 .L0 
     /tmp/ccg8AQx8.s:97     .text:0000000000000048 .L0 
     /tmp/ccg8AQx8.s:99     .text:000000000000004c .L0 
     /tmp/ccg8AQx8.s:101    .text:000000000000004c .L0 
     /tmp/ccg8AQx8.s:104    .text:0000000000000050 .L0 
     /tmp/ccg8AQx8.s:105    .text:0000000000000050 .L0 
   src/syscall_c.cpp:32     .text:0000000000000050 .L0 
     /tmp/ccg8AQx8.s:115    .text:0000000000000054 .L0 
     /tmp/ccg8AQx8.s:116    .text:0000000000000054 .L0 
     /tmp/ccg8AQx8.s:117    .text:0000000000000054 .L0 
     /tmp/ccg8AQx8.s:123    .text:000000000000005c .L0 
   src/syscall_c.cpp:11     .text:000000000000005c .L0 
     /tmp/ccg8AQx8.s:132    .text:0000000000000060 .L0 
     /tmp/ccg8AQx8.s:133    .text:0000000000000060 .L0 
   src/syscall_c.cpp:35     .text:0000000000000060 .L0 
     /tmp/ccg8AQx8.s:140    .text:0000000000000064 .L0 
     /tmp/ccg8AQx8.s:142    .text:0000000000000064 .L0 
     /tmp/ccg8AQx8.s:146    .text:0000000000000068 .L0 
     /tmp/ccg8AQx8.s:147    .text:000000000000006c .L0 
     /tmp/ccg8AQx8.s:148    .text:000000000000006c .L0 
     /tmp/ccg8AQx8.s:149    .text:000000000000006c .L0 
     /tmp/ccg8AQx8.s:151    .text:0000000000000070 .L0 
     /tmp/ccg8AQx8.s:155    .text:0000000000000074 .L0 
GAS LISTING /tmp/ccg8AQx8.s 			page 12


     /tmp/ccg8AQx8.s:157    .text:0000000000000074 .L0 
     /tmp/ccg8AQx8.s:160    .text:000000000000007c .L0 
     /tmp/ccg8AQx8.s:166    .text:000000000000007c _Z18mem_get_free_spacev
     /tmp/ccg8AQx8.s:169    .text:000000000000007c .L0 
     /tmp/ccg8AQx8.s:170    .text:000000000000007c .L0 
     /tmp/ccg8AQx8.s:171    .text:0000000000000080 .L0 
     /tmp/ccg8AQx8.s:173    .text:0000000000000084 .L0 
     /tmp/ccg8AQx8.s:175    .text:0000000000000088 .L0 
     /tmp/ccg8AQx8.s:180    .text:0000000000000088 .L0 
     /tmp/ccg8AQx8.s:181    .text:0000000000000088 .L0 
     /tmp/ccg8AQx8.s:182    .text:0000000000000088 .L0 
     /tmp/ccg8AQx8.s:188    .text:0000000000000090 .L0 
   src/syscall_c.cpp:11     .text:0000000000000090 .L0 
     /tmp/ccg8AQx8.s:197    .text:0000000000000094 .L0 
     /tmp/ccg8AQx8.s:198    .text:0000000000000094 .L0 
   src/syscall_c.cpp:43     .text:0000000000000094 .L0 
     /tmp/ccg8AQx8.s:205    .text:0000000000000098 .L0 
     /tmp/ccg8AQx8.s:207    .text:0000000000000098 .L0 
     /tmp/ccg8AQx8.s:208    .text:000000000000009c .L0 
     /tmp/ccg8AQx8.s:209    .text:000000000000009c .L0 
     /tmp/ccg8AQx8.s:211    .text:00000000000000a0 .L0 
     /tmp/ccg8AQx8.s:213    .text:00000000000000a4 .L0 
     /tmp/ccg8AQx8.s:219    .text:00000000000000a4 _Z26mem_get_largest_free_blockv
     /tmp/ccg8AQx8.s:222    .text:00000000000000a4 .L0 
     /tmp/ccg8AQx8.s:223    .text:00000000000000a4 .L0 
     /tmp/ccg8AQx8.s:224    .text:00000000000000a8 .L0 
     /tmp/ccg8AQx8.s:226    .text:00000000000000ac .L0 
     /tmp/ccg8AQx8.s:228    .text:00000000000000b0 .L0 
     /tmp/ccg8AQx8.s:233    .text:00000000000000b0 .L0 
     /tmp/ccg8AQx8.s:234    .text:00000000000000b0 .L0 
     /tmp/ccg8AQx8.s:235    .text:00000000000000b0 .L0 
     /tmp/ccg8AQx8.s:241    .text:00000000000000b8 .L0 
   src/syscall_c.cpp:11     .text:00000000000000b8 .L0 
     /tmp/ccg8AQx8.s:250    .text:00000000000000bc .L0 
     /tmp/ccg8AQx8.s:251    .text:00000000000000bc .L0 
   src/syscall_c.cpp:50     .text:00000000000000bc .L0 
     /tmp/ccg8AQx8.s:258    .text:00000000000000c0 .L0 
     /tmp/ccg8AQx8.s:260    .text:00000000000000c0 .L0 
     /tmp/ccg8AQx8.s:261    .text:00000000000000c4 .L0 
     /tmp/ccg8AQx8.s:262    .text:00000000000000c4 .L0 
     /tmp/ccg8AQx8.s:264    .text:00000000000000c8 .L0 
     /tmp/ccg8AQx8.s:266    .text:00000000000000cc .L0 
     /tmp/ccg8AQx8.s:272    .text:00000000000000cc _Z13thread_createPP3TCBPFvPvES2_
     /tmp/ccg8AQx8.s:275    .text:00000000000000cc .L0 
     /tmp/ccg8AQx8.s:277    .text:00000000000000cc .L0 
     /tmp/ccg8AQx8.s:278    .text:00000000000000d0 .L0 
     /tmp/ccg8AQx8.s:280    .text:00000000000000d4 .L0 
     /tmp/ccg8AQx8.s:282    .text:00000000000000d8 .L0 
     /tmp/ccg8AQx8.s:284    .text:00000000000000d8 .L0 
   src/syscall_c.cpp:58     .text:00000000000000d8 .L0 
     /tmp/ccg8AQx8.s:290    .text:00000000000000dc .L0 
   src/syscall_c.cpp:59     .text:00000000000000dc .L0 
     /tmp/ccg8AQx8.s:295    .text:00000000000000e0 .L0 
   src/syscall_c.cpp:60     .text:00000000000000e0 .L0 
     /tmp/ccg8AQx8.s:304    .text:00000000000000e4 .L0 
     /tmp/ccg8AQx8.s:305    .text:00000000000000e4 .L0 
     /tmp/ccg8AQx8.s:306    .text:00000000000000e4 .L0 
GAS LISTING /tmp/ccg8AQx8.s 			page 13


     /tmp/ccg8AQx8.s:312    .text:00000000000000ec .L0 
   src/syscall_c.cpp:11     .text:00000000000000ec .L0 
     /tmp/ccg8AQx8.s:321    .text:00000000000000f0 .L0 
     /tmp/ccg8AQx8.s:322    .text:00000000000000f0 .L0 
   src/syscall_c.cpp:64     .text:00000000000000f0 .L0 
     /tmp/ccg8AQx8.s:329    .text:00000000000000f4 .L0 
     /tmp/ccg8AQx8.s:331    .text:00000000000000f4 .L0 
     /tmp/ccg8AQx8.s:334    .text:00000000000000fc .L0 
     /tmp/ccg8AQx8.s:335    .text:00000000000000fc .L0 
     /tmp/ccg8AQx8.s:337    .text:0000000000000100 .L0 
     /tmp/ccg8AQx8.s:339    .text:0000000000000104 .L0 
     /tmp/ccg8AQx8.s:345    .text:0000000000000104 _Z11thread_exitv
     /tmp/ccg8AQx8.s:348    .text:0000000000000104 .L0 
     /tmp/ccg8AQx8.s:349    .text:0000000000000104 .L0 
     /tmp/ccg8AQx8.s:350    .text:0000000000000108 .L0 
     /tmp/ccg8AQx8.s:352    .text:000000000000010c .L0 
     /tmp/ccg8AQx8.s:354    .text:0000000000000110 .L0 
     /tmp/ccg8AQx8.s:359    .text:0000000000000110 .L0 
     /tmp/ccg8AQx8.s:360    .text:0000000000000110 .L0 
     /tmp/ccg8AQx8.s:361    .text:0000000000000110 .L0 
     /tmp/ccg8AQx8.s:367    .text:0000000000000118 .L0 
   src/syscall_c.cpp:11     .text:0000000000000118 .L0 
     /tmp/ccg8AQx8.s:376    .text:000000000000011c .L0 
     /tmp/ccg8AQx8.s:377    .text:000000000000011c .L0 
   src/syscall_c.cpp:71     .text:000000000000011c .L0 
     /tmp/ccg8AQx8.s:384    .text:0000000000000120 .L0 
     /tmp/ccg8AQx8.s:386    .text:0000000000000120 .L0 
     /tmp/ccg8AQx8.s:389    .text:0000000000000128 .L0 
     /tmp/ccg8AQx8.s:390    .text:0000000000000128 .L0 
     /tmp/ccg8AQx8.s:392    .text:000000000000012c .L0 
     /tmp/ccg8AQx8.s:394    .text:0000000000000130 .L0 
     /tmp/ccg8AQx8.s:400    .text:0000000000000130 _Z15thread_dispatchv
     /tmp/ccg8AQx8.s:403    .text:0000000000000130 .L0 
     /tmp/ccg8AQx8.s:404    .text:0000000000000130 .L0 
     /tmp/ccg8AQx8.s:405    .text:0000000000000134 .L0 
     /tmp/ccg8AQx8.s:407    .text:0000000000000138 .L0 
     /tmp/ccg8AQx8.s:409    .text:000000000000013c .L0 
     /tmp/ccg8AQx8.s:414    .text:000000000000013c .L0 
     /tmp/ccg8AQx8.s:415    .text:000000000000013c .L0 
     /tmp/ccg8AQx8.s:416    .text:000000000000013c .L0 
     /tmp/ccg8AQx8.s:422    .text:0000000000000144 .L0 
   src/syscall_c.cpp:11     .text:0000000000000144 .L0 
     /tmp/ccg8AQx8.s:431    .text:0000000000000148 .L0 
     /tmp/ccg8AQx8.s:432    .text:000000000000014c .L0 
     /tmp/ccg8AQx8.s:433    .text:000000000000014c .L0 
     /tmp/ccg8AQx8.s:435    .text:0000000000000150 .L0 
     /tmp/ccg8AQx8.s:437    .text:0000000000000154 .L0 
     /tmp/ccg8AQx8.s:444    .text:0000000000000154 .L0 
     /tmp/ccg8AQx8.s:30     .text:0000000000000018 .L2
     /tmp/ccg8AQx8.s:154    .text:0000000000000074 .L7
     /tmp/ccg8AQx8.s:144    .text:0000000000000068 .L6
     /tmp/ccg8AQx8.s:1112   .debug_abbrev:0000000000000000 .Ldebug_abbrev0
     /tmp/ccg8AQx8.s:2136   .debug_str:0000000000000372 .LASF58
     /tmp/ccg8AQx8.s:2066   .debug_str:000000000000018d .LASF59
     /tmp/ccg8AQx8.s:2086   .debug_str:0000000000000201 .LASF60
     /tmp/ccg8AQx8.s:5      .text:0000000000000000 .Ltext0
     /tmp/ccg8AQx8.s:440    .text:0000000000000154 .Letext0
GAS LISTING /tmp/ccg8AQx8.s 			page 14


     /tmp/ccg8AQx8.s:2006   .debug_line:0000000000000000 .Ldebug_line0
     /tmp/ccg8AQx8.s:2092   .debug_str:0000000000000245 .LASF0
     /tmp/ccg8AQx8.s:2098   .debug_str:0000000000000261 .LASF1
     /tmp/ccg8AQx8.s:2084   .debug_str:00000000000001f3 .LASF2
     /tmp/ccg8AQx8.s:2064   .debug_str:0000000000000186 .LASF4
     /tmp/ccg8AQx8.s:2126   .debug_str:0000000000000333 .LASF3
     /tmp/ccg8AQx8.s:2020   .debug_str:0000000000000045 .LASF5
     /tmp/ccg8AQx8.s:2104   .debug_str:000000000000028c .LASF6
     /tmp/ccg8AQx8.s:2090   .debug_str:0000000000000232 .LASF7
     /tmp/ccg8AQx8.s:2144   .debug_str:0000000000000462 .LASF8
     /tmp/ccg8AQx8.s:2062   .debug_str:0000000000000178 .LASF9
     /tmp/ccg8AQx8.s:2110   .debug_str:00000000000002cb .LASF10
     /tmp/ccg8AQx8.s:2138   .debug_str:0000000000000436 .LASF11
     /tmp/ccg8AQx8.s:2022   .debug_str:000000000000004c .LASF12
     /tmp/ccg8AQx8.s:2010   .debug_str:0000000000000009 .LASF13
     /tmp/ccg8AQx8.s:2028   .debug_str:0000000000000083 .LASF14
     /tmp/ccg8AQx8.s:2124   .debug_str:000000000000031d .LASF15
     /tmp/ccg8AQx8.s:2038   .debug_str:00000000000000c7 .LASF16
     /tmp/ccg8AQx8.s:2012   .debug_str:0000000000000019 .LASF61
     /tmp/ccg8AQx8.s:2148   .debug_str:000000000000048d .LASF17
     /tmp/ccg8AQx8.s:2134   .debug_str:0000000000000366 .LASF19
     /tmp/ccg8AQx8.s:2130   .debug_str:000000000000034f .LASF23
     /tmp/ccg8AQx8.s:2122   .debug_str:0000000000000310 .LASF62
     /tmp/ccg8AQx8.s:2044   .debug_str:00000000000000f2 .LASF18
     /tmp/ccg8AQx8.s:2116   .debug_str:00000000000002f6 .LASF20
     /tmp/ccg8AQx8.s:2072   .debug_str:00000000000001ac .LASF21
     /tmp/ccg8AQx8.s:2154   .debug_str:00000000000004c1 .LASF22
     /tmp/ccg8AQx8.s:2118   .debug_str:0000000000000302 .LASF63
     /tmp/ccg8AQx8.s:2094   .debug_str:0000000000000252 .LASF64
     /tmp/ccg8AQx8.s:2050   .debug_str:000000000000010b .LASF65
     /tmp/ccg8AQx8.s:2076   .debug_str:00000000000001c7 .LASF66
     /tmp/ccg8AQx8.s:2026   .debug_str:0000000000000074 .LASF67
     /tmp/ccg8AQx8.s:2106   .debug_str:000000000000029f .LASF37
     /tmp/ccg8AQx8.s:2060   .debug_str:0000000000000161 .LASF39
     /tmp/ccg8AQx8.s:2048   .debug_str:0000000000000103 .LASF68
     /tmp/ccg8AQx8.s:2158   .debug_str:00000000000004f1 .LASF69
     /tmp/ccg8AQx8.s:2080   .debug_str:00000000000001df .LASF24
     /tmp/ccg8AQx8.s:2096   .debug_str:000000000000025b .LASF25
     /tmp/ccg8AQx8.s:2070   .debug_str:00000000000001a4 .LASF26
     /tmp/ccg8AQx8.s:2068   .debug_str:000000000000019f .LASF27
     /tmp/ccg8AQx8.s:2082   .debug_str:00000000000001e8 .LASF70
     /tmp/ccg8AQx8.s:2142   .debug_str:000000000000044c .LASF71
     /tmp/ccg8AQx8.s:2052   .debug_str:000000000000011e .LASF28
     /tmp/ccg8AQx8.s:2018   .debug_str:0000000000000038 .LASF72
     /tmp/ccg8AQx8.s:2036   .debug_str:00000000000000bd .LASF29
     /tmp/ccg8AQx8.s:2120   .debug_str:0000000000000307 .LASF30
     /tmp/ccg8AQx8.s:2078   .debug_str:00000000000001cc .LASF31
     /tmp/ccg8AQx8.s:2054   .debug_str:0000000000000123 .LASF32
     /tmp/ccg8AQx8.s:2074   .debug_str:00000000000001b9 .LASF33
     /tmp/ccg8AQx8.s:2046   .debug_str:00000000000000f7 .LASF34
     /tmp/ccg8AQx8.s:2030   .debug_str:000000000000008f .LASF35
     /tmp/ccg8AQx8.s:2008   .debug_str:0000000000000000 .LASF36
     /tmp/ccg8AQx8.s:2032   .debug_str:000000000000009f .LASF38
     /tmp/ccg8AQx8.s:2056   .debug_str:000000000000013e .LASF40
     /tmp/ccg8AQx8.s:401    .text:0000000000000130 .LFB30
     /tmp/ccg8AQx8.s:438    .text:0000000000000154 .LFE30
     /tmp/ccg8AQx8.s:412    .text:000000000000013c .LBB28
GAS LISTING /tmp/ccg8AQx8.s 			page 15


     /tmp/ccg8AQx8.s:429    .text:0000000000000148 .LBE28
     /tmp/ccg8AQx8.s:1835   .debug_loc:0000000000000000 .LLST15
     /tmp/ccg8AQx8.s:2016   .debug_str:000000000000002c .LASF41
     /tmp/ccg8AQx8.s:2102   .debug_str:000000000000027b .LASF43
     /tmp/ccg8AQx8.s:346    .text:0000000000000104 .LFB29
     /tmp/ccg8AQx8.s:395    .text:0000000000000130 .LFE29
     /tmp/ccg8AQx8.s:1843   .debug_loc:0000000000000024 .LLST13
     /tmp/ccg8AQx8.s:357    .text:0000000000000110 .LBB26
     /tmp/ccg8AQx8.s:374    .text:000000000000011c .LBE26
     /tmp/ccg8AQx8.s:1850   .debug_loc:0000000000000047 .LLST14
     /tmp/ccg8AQx8.s:2040   .debug_str:00000000000000dd .LASF42
     /tmp/ccg8AQx8.s:2108   .debug_str:00000000000002aa .LASF44
     /tmp/ccg8AQx8.s:273    .text:00000000000000cc .LFB28
     /tmp/ccg8AQx8.s:340    .text:0000000000000104 .LFE28
     /tmp/ccg8AQx8.s:2132   .debug_str:000000000000035f .LASF45
     /tmp/ccg8AQx8.s:1858   .debug_loc:000000000000006b .LLST10
     /tmp/ccg8AQx8.s:2058   .debug_str:0000000000000153 .LASF46
     /tmp/ccg8AQx8.s:1872   .debug_loc:00000000000000a4 .LLST11
     /tmp/ccg8AQx8.s:302    .text:00000000000000e4 .LBB24
     /tmp/ccg8AQx8.s:319    .text:00000000000000f0 .LBE24
     /tmp/ccg8AQx8.s:1879   .debug_loc:00000000000000c7 .LLST12
     /tmp/ccg8AQx8.s:2146   .debug_str:0000000000000472 .LASF47
     /tmp/ccg8AQx8.s:2150   .debug_str:000000000000049a .LASF48
     /tmp/ccg8AQx8.s:220    .text:00000000000000a4 .LFB27
     /tmp/ccg8AQx8.s:267    .text:00000000000000cc .LFE27
     /tmp/ccg8AQx8.s:231    .text:00000000000000b0 .LBB22
     /tmp/ccg8AQx8.s:248    .text:00000000000000bc .LBE22
     /tmp/ccg8AQx8.s:1887   .debug_loc:00000000000000eb .LLST9
     /tmp/ccg8AQx8.s:2112   .debug_str:00000000000002da .LASF49
     /tmp/ccg8AQx8.s:2024   .debug_str:000000000000005c .LASF50
     /tmp/ccg8AQx8.s:167    .text:000000000000007c .LFB26
     /tmp/ccg8AQx8.s:214    .text:00000000000000a4 .LFE26
     /tmp/ccg8AQx8.s:178    .text:0000000000000088 .LBB20
     /tmp/ccg8AQx8.s:195    .text:0000000000000094 .LBE20
     /tmp/ccg8AQx8.s:1895   .debug_loc:000000000000010f .LLST8
     /tmp/ccg8AQx8.s:2114   .debug_str:00000000000002ed .LASF51
     /tmp/ccg8AQx8.s:2156   .debug_str:00000000000004e3 .LASF52
     /tmp/ccg8AQx8.s:90     .text:0000000000000040 .LFB25
     /tmp/ccg8AQx8.s:161    .text:000000000000007c .LFE25
     /tmp/ccg8AQx8.s:1903   .debug_loc:0000000000000133 .LLST4
     /tmp/ccg8AQx8.s:1928   .debug_loc:0000000000000195 .LLST5
     /tmp/ccg8AQx8.s:1942   .debug_loc:00000000000001ce .LLST6
     /tmp/ccg8AQx8.s:113    .text:0000000000000054 .LBB18
     /tmp/ccg8AQx8.s:130    .text:0000000000000060 .LBE18
     /tmp/ccg8AQx8.s:1949   .debug_loc:00000000000001f1 .LLST7
     /tmp/ccg8AQx8.s:2128   .debug_str:0000000000000345 .LASF53
     /tmp/ccg8AQx8.s:2034   .debug_str:00000000000000af .LASF54
     /tmp/ccg8AQx8.s:10     .text:0000000000000000 .LFB24
     /tmp/ccg8AQx8.s:84     .text:0000000000000040 .LFE24
     /tmp/ccg8AQx8.s:2088   .debug_str:000000000000022d .LASF55
     /tmp/ccg8AQx8.s:1957   .debug_loc:0000000000000215 .LLST0
     /tmp/ccg8AQx8.s:2100   .debug_str:0000000000000274 .LASF56
     /tmp/ccg8AQx8.s:1971   .debug_loc:000000000000024e .LLST1
     /tmp/ccg8AQx8.s:2140   .debug_str:0000000000000445 .LASF57
     /tmp/ccg8AQx8.s:1978   .debug_loc:0000000000000271 .LLST2
     /tmp/ccg8AQx8.s:47     .text:0000000000000024 .LBB16
     /tmp/ccg8AQx8.s:65     .text:0000000000000030 .LBE16
GAS LISTING /tmp/ccg8AQx8.s 			page 16


     /tmp/ccg8AQx8.s:1985   .debug_loc:0000000000000294 .LLST3
     /tmp/ccg8AQx8.s:2152   .debug_str:00000000000004ba .LASF73
     /tmp/ccg8AQx8.s:2014   .debug_str:0000000000000021 .LASF74
     /tmp/ccg8AQx8.s:2042   .debug_str:00000000000000eb .LASF75
     /tmp/ccg8AQx8.s:411    .text:000000000000013c .LVL32
     /tmp/ccg8AQx8.s:426    .text:0000000000000148 .LVL33
     /tmp/ccg8AQx8.s:382    .text:0000000000000120 .LVL30
     /tmp/ccg8AQx8.s:387    .text:0000000000000124 .LVL31
     /tmp/ccg8AQx8.s:356    .text:0000000000000110 .LVL28
     /tmp/ccg8AQx8.s:371    .text:000000000000011c .LVL29
     /tmp/ccg8AQx8.s:276    .text:00000000000000cc .LVL23
     /tmp/ccg8AQx8.s:327    .text:00000000000000f4 .LVL26
     /tmp/ccg8AQx8.s:332    .text:00000000000000f8 .LVL27
     /tmp/ccg8AQx8.s:300    .text:00000000000000e4 .LVL24
     /tmp/ccg8AQx8.s:316    .text:00000000000000f0 .LVL25
     /tmp/ccg8AQx8.s:230    .text:00000000000000b0 .LVL20
     /tmp/ccg8AQx8.s:245    .text:00000000000000bc .LVL21
     /tmp/ccg8AQx8.s:177    .text:0000000000000088 .LVL17
     /tmp/ccg8AQx8.s:192    .text:0000000000000094 .LVL18
     /tmp/ccg8AQx8.s:93     .text:0000000000000040 .LVL9
     /tmp/ccg8AQx8.s:138    .text:0000000000000064 .LVL13
     /tmp/ccg8AQx8.s:153    .text:0000000000000074 .LVL15
     /tmp/ccg8AQx8.s:158    .text:0000000000000078 .LVL16
     /tmp/ccg8AQx8.s:103    .text:0000000000000050 .LVL10
     /tmp/ccg8AQx8.s:143    .text:0000000000000068 .LVL14
     /tmp/ccg8AQx8.s:111    .text:0000000000000054 .LVL11
     /tmp/ccg8AQx8.s:127    .text:0000000000000060 .LVL12
     /tmp/ccg8AQx8.s:14     .text:0000000000000000 .LVL0
     /tmp/ccg8AQx8.s:34     .text:000000000000001c .LVL3
     /tmp/ccg8AQx8.s:24     .text:0000000000000010 .LVL1
     /tmp/ccg8AQx8.s:52     .text:0000000000000028 .LVL6
     /tmp/ccg8AQx8.s:37     .text:0000000000000020 .LVL4
     /tmp/ccg8AQx8.s:73     .text:0000000000000034 .LVL8
     /tmp/ccg8AQx8.s:45     .text:0000000000000024 .LVL5
     /tmp/ccg8AQx8.s:62     .text:0000000000000030 .LVL7
     /tmp/ccg8AQx8.s:445    .debug_info:0000000000000000 .Ldebug_info0

NO UNDEFINED SYMBOLS
