GAS LISTING /tmp/cctsFnnE.s 			page 1


   1              		.file	"syscall_c.cpp"
   2              		.option pic
   3              		.option norelax
   4              		.text
   5              	.Ltext0:
   6              		.align	2
   7              		.globl	_Z9mem_allocm
   9              	_Z9mem_allocm:
  10              	.LFB0:
  11              		.file 1 "src/syscall_c.cpp"
   1:src/syscall_c.cpp **** //
   2:src/syscall_c.cpp **** // Created by os on 9/8/25.
   3:src/syscall_c.cpp **** //
   4:src/syscall_c.cpp **** #include "../h/syscall_c.hpp"
   5:src/syscall_c.cpp **** 
   6:src/syscall_c.cpp **** void* mem_alloc(size_t size) {
  12              		.loc 1 6 30
  13              		.cfi_startproc
  14              	.LVL0:
  15 0000 130101FF 		addi	sp,sp,-16
  16              		.cfi_def_cfa_offset 16
  17 0004 23348100 		sd	s0,8(sp)
  18              		.cfi_offset 8, -8
  19 0008 13040101 		addi	s0,sp,16
  20              		.cfi_def_cfa 8, 0
   7:src/syscall_c.cpp ****     size_t offset = size % MEM_BLOCK_SIZE;
  21              		.loc 1 7 5
  22              		.loc 1 7 12 is_stmt 0
  23 000c 9377F503 		andi	a5,a0,63
  24              	.LVL1:
   8:src/syscall_c.cpp ****     if (offset!=0)
  25              		.loc 1 8 5 is_stmt 1
  26 0010 63840700 		beqz	a5,.L2
   9:src/syscall_c.cpp ****         offset=1;
  27              		.loc 1 9 15 is_stmt 0
  28 0014 93071000 		li	a5,1
  29              	.LVL2:
  30              	.L2:
  10:src/syscall_c.cpp ****     size_t blocks=size/MEM_BLOCK_SIZE +offset;
  31              		.loc 1 10 5 is_stmt 1
  32              		.loc 1 10 23 is_stmt 0
  33 0018 13556500 		srli	a0,a0,6
  34              	.LVL3:
  35              		.loc 1 10 12
  36 001c 3305F500 		add	a0,a0,a5
  37              	.LVL4:
  11:src/syscall_c.cpp ****     uint64 opcode=MEM_ALLOC;
  38              		.loc 1 11 5 is_stmt 1
  12:src/syscall_c.cpp ****     __asm__ volatile ("mv a1, %[x]" :: [x] "r" (blocks));
  39              		.loc 1 12 5
  40              		.loc 1 12 57 is_stmt 0
  41              	#APP
  42              	# 12 "src/syscall_c.cpp" 1
  13              	    __asm__ volatile ("mv a0, %[x]" :: [x] "r" (opcode));
  43              		mv a1, a0
  44              	# 0 "" 2
  45              		.loc 1 13 5 is_stmt 1
GAS LISTING /tmp/cctsFnnE.s 			page 2


  46              		.loc 1 13 57 is_stmt 0
  47              	#NO_APP
  48 0024 93071000 		li	a5,1
  49              	.LVL5:
  50              	#APP
  51              	# 13 "src/syscall_c.cpp" 1
  14              	    __asm__ volatile ("ecall");
  52              		mv a0, a5
  53              	# 0 "" 2
  54              		.loc 1 14 5 is_stmt 1
  55              		.loc 1 14 31 is_stmt 0
  56              	# 14 "src/syscall_c.cpp" 1
  15              	
  16:src/syscall_c.cpp ****     uint64 ret;
  57              		ecall
  58              	# 0 "" 2
  59              		.loc 1 16 5 is_stmt 1
  17:src/syscall_c.cpp ****     __asm__ volatile ("mv %[x], a0" : [x] "=r" (ret));
  60              		.loc 1 17 5
  61              		.loc 1 17 54 is_stmt 0
  62              	# 17 "src/syscall_c.cpp" 1
  18              	    return (void*)ret;
  63              		mv a0, a0
  64              	# 0 "" 2
  65              	.LVL6:
  66              		.loc 1 18 5 is_stmt 1
  19:src/syscall_c.cpp **** }
  67              		.loc 1 19 1 is_stmt 0
  68              	#NO_APP
  69 0034 03348100 		ld	s0,8(sp)
  70              		.cfi_restore 8
  71              		.cfi_def_cfa 2, 16
  72 0038 13010101 		addi	sp,sp,16
  73              		.cfi_def_cfa_offset 0
  74 003c 67800000 		jr	ra
  75              		.cfi_endproc
  76              	.LFE0:
  78              		.align	2
  79              		.globl	_Z8mem_freePv
  81              	_Z8mem_freePv:
  82              	.LFB1:
  20:src/syscall_c.cpp **** 
  21:src/syscall_c.cpp **** int mem_free(void* ptr) {
  83              		.loc 1 21 25 is_stmt 1
  84              		.cfi_startproc
  85              	.LVL7:
  86 0040 130101FF 		addi	sp,sp,-16
  87              		.cfi_def_cfa_offset 16
  88 0044 23348100 		sd	s0,8(sp)
  89              		.cfi_offset 8, -8
  90 0048 13040101 		addi	s0,sp,16
  91              		.cfi_def_cfa 8, 0
  22:src/syscall_c.cpp ****     if (ptr==nullptr) {
  92              		.loc 1 22 5
  93 004c 63040502 		beqz	a0,.L7
  23:src/syscall_c.cpp ****         return 0;
  24:src/syscall_c.cpp ****     }
GAS LISTING /tmp/cctsFnnE.s 			page 3


  25:src/syscall_c.cpp ****     uint64 opcode=MEM_FREE;
  94              		.loc 1 25 5
  95              	.LVL8:
  26:src/syscall_c.cpp ****     __asm__ volatile ("mv a1, %[x]" :: [x] "r" (ptr));
  96              		.loc 1 26 5
  97              		.loc 1 26 54 is_stmt 0
  98              	#APP
  99              	# 26 "src/syscall_c.cpp" 1
  27              	    __asm__ volatile ("mv a0, %[x]" :: [x] "r" (opcode));
 100              		mv a1, a0
 101              	# 0 "" 2
 102              		.loc 1 27 5 is_stmt 1
 103              		.loc 1 27 57 is_stmt 0
 104              	#NO_APP
 105 0054 93072000 		li	a5,2
 106              	#APP
 107              	# 27 "src/syscall_c.cpp" 1
  28              	    __asm__ volatile ("ecall");
 108              		mv a0, a5
 109              	# 0 "" 2
 110              		.loc 1 28 5 is_stmt 1
 111              		.loc 1 28 31 is_stmt 0
 112              	# 28 "src/syscall_c.cpp" 1
  29              	    uint64 ret;
 113              		ecall
 114              	# 0 "" 2
 115              		.loc 1 29 5 is_stmt 1
  30:src/syscall_c.cpp ****     __asm__ volatile ("mv %[x], a0" : [x] "=r" (ret));
 116              		.loc 1 30 5
 117              		.loc 1 30 54 is_stmt 0
 118              	# 30 "src/syscall_c.cpp" 1
  31              	    return (int)ret;
 119              		mv a0, a0
 120              	# 0 "" 2
 121              	.LVL9:
 122              		.loc 1 31 5 is_stmt 1
 123              		.loc 1 31 17 is_stmt 0
 124              	#NO_APP
 125 0064 1B050500 		sext.w	a0,a0
 126              	.LVL10:
 127              	.L6:
  32:src/syscall_c.cpp **** }
 128              		.loc 1 32 1
 129 0068 03348100 		ld	s0,8(sp)
 130              		.cfi_remember_state
 131              		.cfi_restore 8
 132              		.cfi_def_cfa 2, 16
 133 006c 13010101 		addi	sp,sp,16
 134              		.cfi_def_cfa_offset 0
 135 0070 67800000 		jr	ra
 136              	.LVL11:
 137              	.L7:
 138              		.cfi_restore_state
  23:src/syscall_c.cpp ****     }
 139              		.loc 1 23 16
 140 0074 13050000 		li	a0,0
 141              	.LVL12:
GAS LISTING /tmp/cctsFnnE.s 			page 4


 142 0078 6FF01FFF 		j	.L6
 143              		.cfi_endproc
 144              	.LFE1:
 146              		.align	2
 147              		.globl	_Z18mem_get_free_spacev
 149              	_Z18mem_get_free_spacev:
 150              	.LFB2:
  33:src/syscall_c.cpp **** 
  34:src/syscall_c.cpp **** size_t mem_get_free_space() {
 151              		.loc 1 34 29 is_stmt 1
 152              		.cfi_startproc
 153 007c 130101FF 		addi	sp,sp,-16
 154              		.cfi_def_cfa_offset 16
 155 0080 23348100 		sd	s0,8(sp)
 156              		.cfi_offset 8, -8
 157 0084 13040101 		addi	s0,sp,16
 158              		.cfi_def_cfa 8, 0
  35:src/syscall_c.cpp ****     uint64 opcode=MEM_GET_FREE_SPACE;
 159              		.loc 1 35 5
 160              	.LVL13:
  36:src/syscall_c.cpp ****     __asm__ volatile ("mv a0, %[x]" :: [x] "r" (opcode));
 161              		.loc 1 36 5
 162              		.loc 1 36 57 is_stmt 0
 163 0088 93073000 		li	a5,3
 164              	#APP
 165              	# 36 "src/syscall_c.cpp" 1
  37              	    __asm__ volatile ("ecall");
 166              		mv a0, a5
 167              	# 0 "" 2
 168              		.loc 1 37 5 is_stmt 1
 169              		.loc 1 37 31 is_stmt 0
 170              	# 37 "src/syscall_c.cpp" 1
  38              	    uint64 ret;
 171              		ecall
 172              	# 0 "" 2
 173              		.loc 1 38 5 is_stmt 1
  39:src/syscall_c.cpp ****     __asm__ volatile ("mv %[x], a0" : [x] "=r" (ret));
 174              		.loc 1 39 5
 175              		.loc 1 39 54 is_stmt 0
 176              	# 39 "src/syscall_c.cpp" 1
  40              	    return (size_t)ret;
 177              		mv a0, a0
 178              	# 0 "" 2
 179              	.LVL14:
 180              		.loc 1 40 5 is_stmt 1
  41:src/syscall_c.cpp **** }
 181              		.loc 1 41 1 is_stmt 0
 182              	#NO_APP
 183 0098 03348100 		ld	s0,8(sp)
 184              		.cfi_restore 8
 185              		.cfi_def_cfa 2, 16
 186 009c 13010101 		addi	sp,sp,16
 187              		.cfi_def_cfa_offset 0
 188 00a0 67800000 		jr	ra
 189              		.cfi_endproc
 190              	.LFE2:
 192              		.align	2
GAS LISTING /tmp/cctsFnnE.s 			page 5


 193              		.globl	_Z26mem_get_largest_free_blockv
 195              	_Z26mem_get_largest_free_blockv:
 196              	.LFB3:
  42:src/syscall_c.cpp **** 
  43:src/syscall_c.cpp **** size_t mem_get_largest_free_block() {
 197              		.loc 1 43 37 is_stmt 1
 198              		.cfi_startproc
 199 00a4 130101FF 		addi	sp,sp,-16
 200              		.cfi_def_cfa_offset 16
 201 00a8 23348100 		sd	s0,8(sp)
 202              		.cfi_offset 8, -8
 203 00ac 13040101 		addi	s0,sp,16
 204              		.cfi_def_cfa 8, 0
  44:src/syscall_c.cpp ****     uint64 opcode=MEM_GET_LARGEST_FREE_BLOCK;
 205              		.loc 1 44 5
 206              	.LVL15:
  45:src/syscall_c.cpp ****     __asm__ volatile ("mv a0, %[x]" :: [x] "r" (opcode));
 207              		.loc 1 45 5
 208              		.loc 1 45 57 is_stmt 0
 209 00b0 93074000 		li	a5,4
 210              	#APP
 211              	# 45 "src/syscall_c.cpp" 1
  46              	    __asm__ volatile ("ecall");
 212              		mv a0, a5
 213              	# 0 "" 2
 214              		.loc 1 46 5 is_stmt 1
 215              		.loc 1 46 31 is_stmt 0
 216              	# 46 "src/syscall_c.cpp" 1
  47              	    uint64 ret;
 217              		ecall
 218              	# 0 "" 2
 219              		.loc 1 47 5 is_stmt 1
  48:src/syscall_c.cpp ****     __asm__ volatile ("mv %[x], a0" : [x] "=r" (ret));
 220              		.loc 1 48 5
 221              		.loc 1 48 54 is_stmt 0
 222              	# 48 "src/syscall_c.cpp" 1
  49              	    return (size_t)ret;
 223              		mv a0, a0
 224              	# 0 "" 2
 225              	.LVL16:
 226              		.loc 1 49 5 is_stmt 1
  50:src/syscall_c.cpp **** }...
 227              		.loc 1 50 1 is_stmt 0
 228              	#NO_APP
 229 00c0 03348100 		ld	s0,8(sp)
 230              		.cfi_restore 8
 231              		.cfi_def_cfa 2, 16
 232 00c4 13010101 		addi	sp,sp,16
 233              		.cfi_def_cfa_offset 0
 234 00c8 67800000 		jr	ra
 235              		.cfi_endproc
 236              	.LFE3:
 238              	.Letext0:
 239              		.file 2 "src/../h/../lib/hw.h"
 240              		.file 3 "src/../h/syscall_c.hpp"
GAS LISTING /tmp/cctsFnnE.s 			page 6


DEFINED SYMBOLS
                            *ABS*:0000000000000000 syscall_c.cpp
     /tmp/cctsFnnE.s:9      .text:0000000000000000 _Z9mem_allocm
     /tmp/cctsFnnE.s:13     .text:0000000000000000 .L0 
     /tmp/cctsFnnE.s:15     .text:0000000000000000 .L0 
     /tmp/cctsFnnE.s:16     .text:0000000000000004 .L0 
     /tmp/cctsFnnE.s:18     .text:0000000000000008 .L0 
     /tmp/cctsFnnE.s:20     .text:000000000000000c .L0 
     /tmp/cctsFnnE.s:22     .text:000000000000000c .L0 
     /tmp/cctsFnnE.s:23     .text:000000000000000c .L0 
     /tmp/cctsFnnE.s:26     .text:0000000000000010 .L0 
     /tmp/cctsFnnE.s:28     .text:0000000000000014 .L0 
     /tmp/cctsFnnE.s:32     .text:0000000000000018 .L0 
     /tmp/cctsFnnE.s:33     .text:0000000000000018 .L0 
     /tmp/cctsFnnE.s:36     .text:000000000000001c .L0 
     /tmp/cctsFnnE.s:39     .text:0000000000000020 .L0 
     /tmp/cctsFnnE.s:40     .text:0000000000000020 .L0 
   src/syscall_c.cpp:12     .text:0000000000000020 .L0 
     /tmp/cctsFnnE.s:46     .text:0000000000000024 .L0 
     /tmp/cctsFnnE.s:48     .text:0000000000000024 .L0 
     /tmp/cctsFnnE.s:55     .text:000000000000002c .L0 
   src/syscall_c.cpp:14     .text:000000000000002c .L0 
     /tmp/cctsFnnE.s:60     .text:0000000000000030 .L0 
     /tmp/cctsFnnE.s:61     .text:0000000000000030 .L0 
   src/syscall_c.cpp:17     .text:0000000000000030 .L0 
     /tmp/cctsFnnE.s:67     .text:0000000000000034 .L0 
     /tmp/cctsFnnE.s:69     .text:0000000000000034 .L0 
     /tmp/cctsFnnE.s:70     .text:0000000000000038 .L0 
     /tmp/cctsFnnE.s:71     .text:0000000000000038 .L0 
     /tmp/cctsFnnE.s:73     .text:000000000000003c .L0 
     /tmp/cctsFnnE.s:75     .text:0000000000000040 .L0 
     /tmp/cctsFnnE.s:81     .text:0000000000000040 _Z8mem_freePv
     /tmp/cctsFnnE.s:84     .text:0000000000000040 .L0 
     /tmp/cctsFnnE.s:86     .text:0000000000000040 .L0 
     /tmp/cctsFnnE.s:87     .text:0000000000000044 .L0 
     /tmp/cctsFnnE.s:89     .text:0000000000000048 .L0 
     /tmp/cctsFnnE.s:91     .text:000000000000004c .L0 
     /tmp/cctsFnnE.s:93     .text:000000000000004c .L0 
     /tmp/cctsFnnE.s:96     .text:0000000000000050 .L0 
     /tmp/cctsFnnE.s:97     .text:0000000000000050 .L0 
   src/syscall_c.cpp:26     .text:0000000000000050 .L0 
     /tmp/cctsFnnE.s:103    .text:0000000000000054 .L0 
     /tmp/cctsFnnE.s:105    .text:0000000000000054 .L0 
     /tmp/cctsFnnE.s:111    .text:000000000000005c .L0 
   src/syscall_c.cpp:28     .text:000000000000005c .L0 
     /tmp/cctsFnnE.s:116    .text:0000000000000060 .L0 
     /tmp/cctsFnnE.s:117    .text:0000000000000060 .L0 
   src/syscall_c.cpp:30     .text:0000000000000060 .L0 
     /tmp/cctsFnnE.s:123    .text:0000000000000064 .L0 
     /tmp/cctsFnnE.s:125    .text:0000000000000064 .L0 
     /tmp/cctsFnnE.s:129    .text:0000000000000068 .L0 
     /tmp/cctsFnnE.s:130    .text:000000000000006c .L0 
     /tmp/cctsFnnE.s:131    .text:000000000000006c .L0 
     /tmp/cctsFnnE.s:132    .text:000000000000006c .L0 
     /tmp/cctsFnnE.s:134    .text:0000000000000070 .L0 
     /tmp/cctsFnnE.s:138    .text:0000000000000074 .L0 
     /tmp/cctsFnnE.s:140    .text:0000000000000074 .L0 
GAS LISTING /tmp/cctsFnnE.s 			page 7


     /tmp/cctsFnnE.s:143    .text:000000000000007c .L0 
     /tmp/cctsFnnE.s:149    .text:000000000000007c _Z18mem_get_free_spacev
     /tmp/cctsFnnE.s:152    .text:000000000000007c .L0 
     /tmp/cctsFnnE.s:153    .text:000000000000007c .L0 
     /tmp/cctsFnnE.s:154    .text:0000000000000080 .L0 
     /tmp/cctsFnnE.s:156    .text:0000000000000084 .L0 
     /tmp/cctsFnnE.s:158    .text:0000000000000088 .L0 
     /tmp/cctsFnnE.s:161    .text:0000000000000088 .L0 
     /tmp/cctsFnnE.s:162    .text:0000000000000088 .L0 
     /tmp/cctsFnnE.s:163    .text:0000000000000088 .L0 
     /tmp/cctsFnnE.s:169    .text:0000000000000090 .L0 
   src/syscall_c.cpp:37     .text:0000000000000090 .L0 
     /tmp/cctsFnnE.s:174    .text:0000000000000094 .L0 
     /tmp/cctsFnnE.s:175    .text:0000000000000094 .L0 
   src/syscall_c.cpp:39     .text:0000000000000094 .L0 
     /tmp/cctsFnnE.s:181    .text:0000000000000098 .L0 
     /tmp/cctsFnnE.s:183    .text:0000000000000098 .L0 
     /tmp/cctsFnnE.s:184    .text:000000000000009c .L0 
     /tmp/cctsFnnE.s:185    .text:000000000000009c .L0 
     /tmp/cctsFnnE.s:187    .text:00000000000000a0 .L0 
     /tmp/cctsFnnE.s:189    .text:00000000000000a4 .L0 
     /tmp/cctsFnnE.s:195    .text:00000000000000a4 _Z26mem_get_largest_free_blockv
     /tmp/cctsFnnE.s:198    .text:00000000000000a4 .L0 
     /tmp/cctsFnnE.s:199    .text:00000000000000a4 .L0 
     /tmp/cctsFnnE.s:200    .text:00000000000000a8 .L0 
     /tmp/cctsFnnE.s:202    .text:00000000000000ac .L0 
     /tmp/cctsFnnE.s:204    .text:00000000000000b0 .L0 
     /tmp/cctsFnnE.s:207    .text:00000000000000b0 .L0 
     /tmp/cctsFnnE.s:208    .text:00000000000000b0 .L0 
     /tmp/cctsFnnE.s:209    .text:00000000000000b0 .L0 
     /tmp/cctsFnnE.s:215    .text:00000000000000b8 .L0 
   src/syscall_c.cpp:46     .text:00000000000000b8 .L0 
     /tmp/cctsFnnE.s:220    .text:00000000000000bc .L0 
     /tmp/cctsFnnE.s:221    .text:00000000000000bc .L0 
   src/syscall_c.cpp:48     .text:00000000000000bc .L0 
     /tmp/cctsFnnE.s:227    .text:00000000000000c0 .L0 
     /tmp/cctsFnnE.s:229    .text:00000000000000c0 .L0 
     /tmp/cctsFnnE.s:230    .text:00000000000000c4 .L0 
     /tmp/cctsFnnE.s:231    .text:00000000000000c4 .L0 
     /tmp/cctsFnnE.s:233    .text:00000000000000c8 .L0 
     /tmp/cctsFnnE.s:235    .text:00000000000000cc .L0 
     /tmp/cctsFnnE.s:241    .text:00000000000000cc .L0 
     /tmp/cctsFnnE.s:30     .text:0000000000000018 .L2
     /tmp/cctsFnnE.s:137    .text:0000000000000074 .L7
     /tmp/cctsFnnE.s:127    .text:0000000000000068 .L6
     /tmp/cctsFnnE.s:531    .debug_abbrev:0000000000000000 .Ldebug_abbrev0
     /tmp/cctsFnnE.s:960    .debug_str:000000000000012a .LASF31
     /tmp/cctsFnnE.s:996    .debug_str:00000000000002e6 .LASF32
     /tmp/cctsFnnE.s:944    .debug_str:000000000000008d .LASF33
     /tmp/cctsFnnE.s:5      .text:0000000000000000 .Ltext0
     /tmp/cctsFnnE.s:238    .text:00000000000000cc .Letext0
     /tmp/cctsFnnE.s:924    .debug_line:0000000000000000 .Ldebug_line0
     /tmp/cctsFnnE.s:968    .debug_str:000000000000021e .LASF0
     /tmp/cctsFnnE.s:950    .debug_str:00000000000000d9 .LASF1
     /tmp/cctsFnnE.s:946    .debug_str:00000000000000b9 .LASF2
     /tmp/cctsFnnE.s:936    .debug_str:000000000000003d .LASF4
     /tmp/cctsFnnE.s:948    .debug_str:00000000000000c7 .LASF3
GAS LISTING /tmp/cctsFnnE.s 			page 8


     /tmp/cctsFnnE.s:930    .debug_str:0000000000000021 .LASF5
     /tmp/cctsFnnE.s:928    .debug_str:000000000000000e .LASF6
     /tmp/cctsFnnE.s:942    .debug_str:000000000000007a .LASF7
     /tmp/cctsFnnE.s:974    .debug_str:0000000000000241 .LASF8
     /tmp/cctsFnnE.s:934    .debug_str:000000000000002f .LASF9
     /tmp/cctsFnnE.s:998    .debug_str:00000000000002f8 .LASF10
     /tmp/cctsFnnE.s:972    .debug_str:0000000000000232 .LASF11
     /tmp/cctsFnnE.s:988    .debug_str:00000000000002b4 .LASF12
     /tmp/cctsFnnE.s:978    .debug_str:0000000000000267 .LASF13
     /tmp/cctsFnnE.s:954    .debug_str:0000000000000107 .LASF14
     /tmp/cctsFnnE.s:938    .debug_str:0000000000000044 .LASF15
     /tmp/cctsFnnE.s:976    .debug_str:0000000000000251 .LASF16
     /tmp/cctsFnnE.s:958    .debug_str:000000000000011d .LASF34
     /tmp/cctsFnnE.s:956    .debug_str:0000000000000113 .LASF17
     /tmp/cctsFnnE.s:986    .debug_str:00000000000002ab .LASF18
     /tmp/cctsFnnE.s:992    .debug_str:00000000000002ce .LASF19
     /tmp/cctsFnnE.s:952    .debug_str:00000000000000ec .LASF20
     /tmp/cctsFnnE.s:962    .debug_str:00000000000001ee .LASF22
     /tmp/cctsFnnE.s:940    .debug_str:000000000000005a .LASF24
     /tmp/cctsFnnE.s:196    .text:00000000000000a4 .LFB3
     /tmp/cctsFnnE.s:236    .text:00000000000000cc .LFE3
     /tmp/cctsFnnE.s:966    .debug_str:0000000000000217 .LASF21
     /tmp/cctsFnnE.s:982    .debug_str:0000000000000280 .LASF23
     /tmp/cctsFnnE.s:984    .debug_str:0000000000000293 .LASF25
     /tmp/cctsFnnE.s:150    .text:000000000000007c .LFB2
     /tmp/cctsFnnE.s:190    .text:00000000000000a4 .LFE2
     /tmp/cctsFnnE.s:980    .debug_str:0000000000000277 .LASF26
     /tmp/cctsFnnE.s:926    .debug_str:0000000000000000 .LASF27
     /tmp/cctsFnnE.s:82     .text:0000000000000040 .LFB1
     /tmp/cctsFnnE.s:144    .text:000000000000007c .LFE1
     /tmp/cctsFnnE.s:843    .debug_loc:0000000000000000 .LLST3
     /tmp/cctsFnnE.s:868    .debug_loc:0000000000000062 .LLST4
     /tmp/cctsFnnE.s:876    .debug_loc:0000000000000086 .LLST5
     /tmp/cctsFnnE.s:990    .debug_str:00000000000002c4 .LASF35
     /tmp/cctsFnnE.s:964    .debug_str:0000000000000209 .LASF36
     /tmp/cctsFnnE.s:10     .text:0000000000000000 .LFB0
     /tmp/cctsFnnE.s:76     .text:0000000000000040 .LFE0
     /tmp/cctsFnnE.s:994    .debug_str:00000000000002e1 .LASF28
     /tmp/cctsFnnE.s:883    .debug_loc:00000000000000a9 .LLST0
     /tmp/cctsFnnE.s:932    .debug_str:0000000000000028 .LASF29
     /tmp/cctsFnnE.s:897    .debug_loc:00000000000000e2 .LLST1
     /tmp/cctsFnnE.s:970    .debug_str:000000000000022b .LASF30
     /tmp/cctsFnnE.s:904    .debug_loc:0000000000000105 .LLST2
     /tmp/cctsFnnE.s:85     .text:0000000000000040 .LVL7
     /tmp/cctsFnnE.s:121    .text:0000000000000064 .LVL9
     /tmp/cctsFnnE.s:136    .text:0000000000000074 .LVL11
     /tmp/cctsFnnE.s:141    .text:0000000000000078 .LVL12
     /tmp/cctsFnnE.s:95     .text:0000000000000050 .LVL8
     /tmp/cctsFnnE.s:126    .text:0000000000000068 .LVL10
     /tmp/cctsFnnE.s:14     .text:0000000000000000 .LVL0
     /tmp/cctsFnnE.s:34     .text:000000000000001c .LVL3
     /tmp/cctsFnnE.s:24     .text:0000000000000010 .LVL1
     /tmp/cctsFnnE.s:49     .text:0000000000000028 .LVL5
     /tmp/cctsFnnE.s:37     .text:0000000000000020 .LVL4
     /tmp/cctsFnnE.s:65     .text:0000000000000034 .LVL6
     /tmp/cctsFnnE.s:242    .debug_info:0000000000000000 .Ldebug_info0

GAS LISTING /tmp/cctsFnnE.s 			page 9


NO UNDEFINED SYMBOLS
