GAS LISTING /tmp/cc22aJg9.s 			page 1


   1              		.file	"syscall_c.cpp"
   2              		.option pic
   3              		.option norelax
   4              		.text
   5              	.Ltext0:
   6              		.align	2
   7              		.globl	_Z9mem_allocm
   9              	_Z9mem_allocm:
  10              	.LFB20:
  11              		.file 1 "src/syscall_c.cpp"
   1:src/syscall_c.cpp **** //
   2:src/syscall_c.cpp **** // Created by os on 9/8/25.
   3:src/syscall_c.cpp **** //
   4:src/syscall_c.cpp **** #include "../h/syscall_c.hpp"
   5:src/syscall_c.cpp **** #include  "../h/MemoryAllocator.hpp"
   6:src/syscall_c.cpp **** 
   7:src/syscall_c.cpp **** 
   8:src/syscall_c.cpp **** inline void invoke(uint64 opcode)
   9:src/syscall_c.cpp **** {
  10:src/syscall_c.cpp ****     __asm__ volatile("mv a0, %0" ::"r"(opcode));
  11:src/syscall_c.cpp ****     __asm__ volatile("ecall");
  12:src/syscall_c.cpp **** }
  13:src/syscall_c.cpp **** 
  14:src/syscall_c.cpp **** void* mem_alloc(size_t size) {
  12              		.loc 1 14 30
  13              		.cfi_startproc
  14              	.LVL0:
  15 0000 130101FF 		addi	sp,sp,-16
  16              		.cfi_def_cfa_offset 16
  17 0004 23348100 		sd	s0,8(sp)
  18              		.cfi_offset 8, -8
  19 0008 13040101 		addi	s0,sp,16
  20              		.cfi_def_cfa 8, 0
  15:src/syscall_c.cpp ****     size_t offset = size % MEM_BLOCK_SIZE;
  21              		.loc 1 15 5
  22              		.loc 1 15 12 is_stmt 0
  23 000c 93773500 		andi	a5,a0,3
  24              	.LVL1:
  16:src/syscall_c.cpp ****     if (offset!=0)
  25              		.loc 1 16 5 is_stmt 1
  26 0010 63840700 		beqz	a5,.L2
  17:src/syscall_c.cpp ****         offset=1;
  27              		.loc 1 17 15 is_stmt 0
  28 0014 93071000 		li	a5,1
  29              	.LVL2:
  30              	.L2:
  18:src/syscall_c.cpp ****     size_t blocks=size/MEM_BLOCK_SIZE +offset;
  31              		.loc 1 18 5 is_stmt 1
  32              		.loc 1 18 23 is_stmt 0
  33 0018 13552500 		srli	a0,a0,2
  34              	.LVL3:
  35              		.loc 1 18 12
  36 001c 3305F500 		add	a0,a0,a5
  37              	.LVL4:
  19:src/syscall_c.cpp ****     __asm__ volatile ("mv a1, %[x]" :: [x] "r" (blocks));
  38              		.loc 1 19 5 is_stmt 1
  39              		.loc 1 19 57 is_stmt 0
GAS LISTING /tmp/cc22aJg9.s 			page 2


  40              	#APP
  41              	# 19 "src/syscall_c.cpp" 1
  20              	    invoke(MEM_ALLOC);
  42              		mv a1, a0
  43              	# 0 "" 2
  44              		.loc 1 20 5 is_stmt 1
  45              	.LVL5:
  46              	#NO_APP
  47              	.LBB30:
  48              	.LBB31:
  10:src/syscall_c.cpp ****     __asm__ volatile("ecall");
  49              		.loc 1 10 5
  10:src/syscall_c.cpp ****     __asm__ volatile("ecall");
  50              		.loc 1 10 48 is_stmt 0
  51 0024 93071000 		li	a5,1
  52              	.LVL6:
  53              	#APP
  54              	# 10 "src/syscall_c.cpp" 1
  11:src/syscall_c.cpp **** }
  55              		mv a0, a5
  56              	# 0 "" 2
  57              		.loc 1 11 5 is_stmt 1
  11:src/syscall_c.cpp **** }
  58              		.loc 1 11 30 is_stmt 0
  59              	# 11 "src/syscall_c.cpp" 1
  60              		ecall
  61              	# 0 "" 2
  62              	.LVL7:
  63              	#NO_APP
  64              	.LBE31:
  65              	.LBE30:
  21:src/syscall_c.cpp **** 
  22:src/syscall_c.cpp ****     uint64 ret;
  66              		.loc 1 22 5 is_stmt 1
  23:src/syscall_c.cpp ****     __asm__ volatile ("mv %[x], a0" : [x] "=r" (ret));
  67              		.loc 1 23 5
  68              		.loc 1 23 54 is_stmt 0
  69              	#APP
  70              	# 23 "src/syscall_c.cpp" 1
  24              	    return (void*)ret;
  71              		mv a0, a0
  72              	# 0 "" 2
  73              	.LVL8:
  74              		.loc 1 24 5 is_stmt 1
  25:src/syscall_c.cpp **** }
  75              		.loc 1 25 1 is_stmt 0
  76              	#NO_APP
  77 0034 03348100 		ld	s0,8(sp)
  78              		.cfi_restore 8
  79              		.cfi_def_cfa 2, 16
  80 0038 13010101 		addi	sp,sp,16
  81              		.cfi_def_cfa_offset 0
  82 003c 67800000 		jr	ra
  83              		.cfi_endproc
  84              	.LFE20:
  86              		.align	2
  87              		.globl	_Z8mem_freePv
GAS LISTING /tmp/cc22aJg9.s 			page 3


  89              	_Z8mem_freePv:
  90              	.LFB21:
  26:src/syscall_c.cpp **** 
  27:src/syscall_c.cpp **** int mem_free(void* ptr) {
  91              		.loc 1 27 25 is_stmt 1
  92              		.cfi_startproc
  93              	.LVL9:
  94 0040 130101FF 		addi	sp,sp,-16
  95              		.cfi_def_cfa_offset 16
  96 0044 23348100 		sd	s0,8(sp)
  97              		.cfi_offset 8, -8
  98 0048 13040101 		addi	s0,sp,16
  99              		.cfi_def_cfa 8, 0
  28:src/syscall_c.cpp ****     if (ptr==nullptr) {
 100              		.loc 1 28 5
 101 004c 63040502 		beqz	a0,.L7
  29:src/syscall_c.cpp ****         return 0;
  30:src/syscall_c.cpp ****     }
  31:src/syscall_c.cpp ****     void *p=ptr;
 102              		.loc 1 31 5
 103              	.LVL10:
  32:src/syscall_c.cpp ****     __asm__ volatile ("mv a1, %[x]" :: [x] "r" (p));
 104              		.loc 1 32 5
 105              		.loc 1 32 52 is_stmt 0
 106              	#APP
 107              	# 32 "src/syscall_c.cpp" 1
  33              	    invoke(MEM_FREE);
 108              		mv a1, a0
 109              	# 0 "" 2
 110              		.loc 1 33 5 is_stmt 1
 111              	.LVL11:
 112              	#NO_APP
 113              	.LBB32:
 114              	.LBB33:
  10:src/syscall_c.cpp ****     __asm__ volatile("ecall");
 115              		.loc 1 10 5
  10:src/syscall_c.cpp ****     __asm__ volatile("ecall");
 116              		.loc 1 10 48 is_stmt 0
 117 0054 93072000 		li	a5,2
 118              	#APP
 119              	# 10 "src/syscall_c.cpp" 1
  11:src/syscall_c.cpp **** }
 120              		mv a0, a5
 121              	# 0 "" 2
 122              		.loc 1 11 5 is_stmt 1
  11:src/syscall_c.cpp **** }
 123              		.loc 1 11 30 is_stmt 0
 124              	# 11 "src/syscall_c.cpp" 1
 125              		ecall
 126              	# 0 "" 2
 127              	.LVL12:
 128              	#NO_APP
 129              	.LBE33:
 130              	.LBE32:
  34:src/syscall_c.cpp ****     uint64 ret;
 131              		.loc 1 34 5 is_stmt 1
  35:src/syscall_c.cpp ****     __asm__ volatile ("mv %[x], a0" : [x] "=r" (ret));
GAS LISTING /tmp/cc22aJg9.s 			page 4


 132              		.loc 1 35 5
 133              		.loc 1 35 54 is_stmt 0
 134              	#APP
 135              	# 35 "src/syscall_c.cpp" 1
  36              	    return (int)ret;
 136              		mv a0, a0
 137              	# 0 "" 2
 138              	.LVL13:
 139              		.loc 1 36 5 is_stmt 1
 140              		.loc 1 36 17 is_stmt 0
 141              	#NO_APP
 142 0064 1B050500 		sext.w	a0,a0
 143              	.LVL14:
 144              	.L6:
  37:src/syscall_c.cpp **** }
 145              		.loc 1 37 1
 146 0068 03348100 		ld	s0,8(sp)
 147              		.cfi_remember_state
 148              		.cfi_restore 8
 149              		.cfi_def_cfa 2, 16
 150 006c 13010101 		addi	sp,sp,16
 151              		.cfi_def_cfa_offset 0
 152 0070 67800000 		jr	ra
 153              	.LVL15:
 154              	.L7:
 155              		.cfi_restore_state
  29:src/syscall_c.cpp ****     }
 156              		.loc 1 29 16
 157 0074 13050000 		li	a0,0
 158              	.LVL16:
 159 0078 6FF01FFF 		j	.L6
 160              		.cfi_endproc
 161              	.LFE21:
 163              		.align	2
 164              		.globl	_Z18mem_get_free_spacev
 166              	_Z18mem_get_free_spacev:
 167              	.LFB22:
  38:src/syscall_c.cpp **** 
  39:src/syscall_c.cpp **** size_t mem_get_free_space() {
 168              		.loc 1 39 29 is_stmt 1
 169              		.cfi_startproc
 170 007c 130101FF 		addi	sp,sp,-16
 171              		.cfi_def_cfa_offset 16
 172 0080 23348100 		sd	s0,8(sp)
 173              		.cfi_offset 8, -8
 174 0084 13040101 		addi	s0,sp,16
 175              		.cfi_def_cfa 8, 0
  40:src/syscall_c.cpp **** 
  41:src/syscall_c.cpp ****     invoke(MEM_GET_FREE_SPACE);
 176              		.loc 1 41 5
 177              	.LVL17:
 178              	.LBB34:
 179              	.LBB35:
  10:src/syscall_c.cpp ****     __asm__ volatile("ecall");
 180              		.loc 1 10 5
  10:src/syscall_c.cpp ****     __asm__ volatile("ecall");
 181              		.loc 1 10 48 is_stmt 0
GAS LISTING /tmp/cc22aJg9.s 			page 5


 182 0088 93073000 		li	a5,3
 183              	#APP
 184              	# 10 "src/syscall_c.cpp" 1
  11:src/syscall_c.cpp **** }
 185              		mv a0, a5
 186              	# 0 "" 2
 187              		.loc 1 11 5 is_stmt 1
  11:src/syscall_c.cpp **** }
 188              		.loc 1 11 30 is_stmt 0
 189              	# 11 "src/syscall_c.cpp" 1
 190              		ecall
 191              	# 0 "" 2
 192              	.LVL18:
 193              	#NO_APP
 194              	.LBE35:
 195              	.LBE34:
  42:src/syscall_c.cpp ****     uint64 ret;
 196              		.loc 1 42 5 is_stmt 1
  43:src/syscall_c.cpp ****     __asm__ volatile ("mv %[x], a0" : [x] "=r" (ret));
 197              		.loc 1 43 5
 198              		.loc 1 43 54 is_stmt 0
 199              	#APP
 200              	# 43 "src/syscall_c.cpp" 1
  44              	    return (size_t)ret;
 201              		mv a0, a0
 202              	# 0 "" 2
 203              	.LVL19:
 204              		.loc 1 44 5 is_stmt 1
  45:src/syscall_c.cpp **** }
 205              		.loc 1 45 1 is_stmt 0
 206              	#NO_APP
 207 0098 03348100 		ld	s0,8(sp)
 208              		.cfi_restore 8
 209              		.cfi_def_cfa 2, 16
 210 009c 13010101 		addi	sp,sp,16
 211              		.cfi_def_cfa_offset 0
 212 00a0 67800000 		jr	ra
 213              		.cfi_endproc
 214              	.LFE22:
 216              		.align	2
 217              		.globl	_Z26mem_get_largest_free_blockv
 219              	_Z26mem_get_largest_free_blockv:
 220              	.LFB23:
  46:src/syscall_c.cpp **** 
  47:src/syscall_c.cpp **** size_t mem_get_largest_free_block() {
 221              		.loc 1 47 37 is_stmt 1
 222              		.cfi_startproc
 223 00a4 130101FF 		addi	sp,sp,-16
 224              		.cfi_def_cfa_offset 16
 225 00a8 23348100 		sd	s0,8(sp)
 226              		.cfi_offset 8, -8
 227 00ac 13040101 		addi	s0,sp,16
 228              		.cfi_def_cfa 8, 0
  48:src/syscall_c.cpp ****     invoke(MEM_GET_LARGEST_FREE_BLOCK);
 229              		.loc 1 48 5
 230              	.LVL20:
 231              	.LBB36:
GAS LISTING /tmp/cc22aJg9.s 			page 6


 232              	.LBB37:
  10:src/syscall_c.cpp ****     __asm__ volatile("ecall");
 233              		.loc 1 10 5
  10:src/syscall_c.cpp ****     __asm__ volatile("ecall");
 234              		.loc 1 10 48 is_stmt 0
 235 00b0 93074000 		li	a5,4
 236              	#APP
 237              	# 10 "src/syscall_c.cpp" 1
  11:src/syscall_c.cpp **** }
 238              		mv a0, a5
 239              	# 0 "" 2
 240              		.loc 1 11 5 is_stmt 1
  11:src/syscall_c.cpp **** }
 241              		.loc 1 11 30 is_stmt 0
 242              	# 11 "src/syscall_c.cpp" 1
 243              		ecall
 244              	# 0 "" 2
 245              	.LVL21:
 246              	#NO_APP
 247              	.LBE37:
 248              	.LBE36:
  49:src/syscall_c.cpp ****     uint64 ret;
 249              		.loc 1 49 5 is_stmt 1
  50:src/syscall_c.cpp ****     __asm__ volatile ("mv %[x], a0" : [x] "=r" (ret));
 250              		.loc 1 50 5
 251              		.loc 1 50 54 is_stmt 0
 252              	#APP
 253              	# 50 "src/syscall_c.cpp" 1
  51              	    return (size_t)ret;
 254              		mv a0, a0
 255              	# 0 "" 2
 256              	.LVL22:
 257              		.loc 1 51 5 is_stmt 1
  52:src/syscall_c.cpp **** }
 258              		.loc 1 52 1 is_stmt 0
 259              	#NO_APP
 260 00c0 03348100 		ld	s0,8(sp)
 261              		.cfi_restore 8
 262              		.cfi_def_cfa 2, 16
 263 00c4 13010101 		addi	sp,sp,16
 264              		.cfi_def_cfa_offset 0
 265 00c8 67800000 		jr	ra
 266              		.cfi_endproc
 267              	.LFE23:
 269              		.align	2
 270              		.globl	_Z13thread_createPP3TCBPFvPvES2_
 272              	_Z13thread_createPP3TCBPFvPvES2_:
 273              	.LFB24:
  53:src/syscall_c.cpp **** 
  54:src/syscall_c.cpp **** 
  55:src/syscall_c.cpp **** int thread_create(thread_t* handle, void(*start_routine)(void*), void* arg)
  56:src/syscall_c.cpp **** {
 274              		.loc 1 56 1 is_stmt 1
 275              		.cfi_startproc
 276              	.LVL23:
 277 00cc 130101FF 		addi	sp,sp,-16
 278              		.cfi_def_cfa_offset 16
GAS LISTING /tmp/cc22aJg9.s 			page 7


 279 00d0 23348100 		sd	s0,8(sp)
 280              		.cfi_offset 8, -8
 281 00d4 13040101 		addi	s0,sp,16
 282              		.cfi_def_cfa 8, 0
  57:src/syscall_c.cpp **** 
  58:src/syscall_c.cpp ****     __asm__ volatile ("mv a3, %[x]" :: [x] "r" (arg));
 283              		.loc 1 58 5
 284              		.loc 1 58 54 is_stmt 0
 285              	#APP
 286              	# 58 "src/syscall_c.cpp" 1
  59              	    __asm__ volatile ("mv a2, %[x]" :: [x] "r" (start_routine));
 287              		mv a3, a2
 288              	# 0 "" 2
 289              		.loc 1 59 5 is_stmt 1
 290              		.loc 1 59 64 is_stmt 0
 291              	# 59 "src/syscall_c.cpp" 1
  60              	    __asm__ volatile ("mv a1, %[x]" :: [x] "r" (handle));
 292              		mv a2, a1
 293              	# 0 "" 2
 294              		.loc 1 60 5 is_stmt 1
 295              		.loc 1 60 57 is_stmt 0
 296              	# 60 "src/syscall_c.cpp" 1
  61              	
  62:src/syscall_c.cpp ****     invoke(THREAD_CREATE);
 297              		mv a1, a0
 298              	# 0 "" 2
 299              		.loc 1 62 5 is_stmt 1
 300              	.LVL24:
 301              	#NO_APP
 302              	.LBB38:
 303              	.LBB39:
  10:src/syscall_c.cpp ****     __asm__ volatile("ecall");
 304              		.loc 1 10 5
  10:src/syscall_c.cpp ****     __asm__ volatile("ecall");
 305              		.loc 1 10 48 is_stmt 0
 306 00e4 93071001 		li	a5,17
 307              	#APP
 308              	# 10 "src/syscall_c.cpp" 1
  11:src/syscall_c.cpp **** }
 309              		mv a0, a5
 310              	# 0 "" 2
 311              		.loc 1 11 5 is_stmt 1
  11:src/syscall_c.cpp **** }
 312              		.loc 1 11 30 is_stmt 0
 313              	# 11 "src/syscall_c.cpp" 1
 314              		ecall
 315              	# 0 "" 2
 316              	.LVL25:
 317              	#NO_APP
 318              	.LBE39:
 319              	.LBE38:
  63:src/syscall_c.cpp ****     uint64 ret;
 320              		.loc 1 63 5 is_stmt 1
  64:src/syscall_c.cpp ****     __asm__ volatile ("mv %[x], a0" : [x] "=r" (ret));
 321              		.loc 1 64 5
 322              		.loc 1 64 54 is_stmt 0
 323              	#APP
GAS LISTING /tmp/cc22aJg9.s 			page 8


 324              	# 64 "src/syscall_c.cpp" 1
  65              	    return (int)ret;
 325              		mv a0, a0
 326              	# 0 "" 2
 327              	.LVL26:
 328              		.loc 1 65 5 is_stmt 1
  66:src/syscall_c.cpp **** }
 329              		.loc 1 66 1 is_stmt 0
 330              	#NO_APP
 331 00f4 1B050500 		sext.w	a0,a0
 332              	.LVL27:
 333 00f8 03348100 		ld	s0,8(sp)
 334              		.cfi_restore 8
 335              		.cfi_def_cfa 2, 16
 336 00fc 13010101 		addi	sp,sp,16
 337              		.cfi_def_cfa_offset 0
 338 0100 67800000 		jr	ra
 339              		.cfi_endproc
 340              	.LFE24:
 342              		.align	2
 343              		.globl	_Z11thread_exitv
 345              	_Z11thread_exitv:
 346              	.LFB25:
  67:src/syscall_c.cpp **** int thread_exit()
  68:src/syscall_c.cpp **** {
 347              		.loc 1 68 1 is_stmt 1
 348              		.cfi_startproc
 349 0104 130101FF 		addi	sp,sp,-16
 350              		.cfi_def_cfa_offset 16
 351 0108 23348100 		sd	s0,8(sp)
 352              		.cfi_offset 8, -8
 353 010c 13040101 		addi	s0,sp,16
 354              		.cfi_def_cfa 8, 0
  69:src/syscall_c.cpp ****     invoke(THREAD_EXIT);
 355              		.loc 1 69 5
 356              	.LVL28:
 357              	.LBB40:
 358              	.LBB41:
  10:src/syscall_c.cpp ****     __asm__ volatile("ecall");
 359              		.loc 1 10 5
  10:src/syscall_c.cpp ****     __asm__ volatile("ecall");
 360              		.loc 1 10 48 is_stmt 0
 361 0110 93072001 		li	a5,18
 362              	#APP
 363              	# 10 "src/syscall_c.cpp" 1
  11:src/syscall_c.cpp **** }
 364              		mv a0, a5
 365              	# 0 "" 2
 366              		.loc 1 11 5 is_stmt 1
  11:src/syscall_c.cpp **** }
 367              		.loc 1 11 30 is_stmt 0
 368              	# 11 "src/syscall_c.cpp" 1
 369              		ecall
 370              	# 0 "" 2
 371              	.LVL29:
 372              	#NO_APP
 373              	.LBE41:
GAS LISTING /tmp/cc22aJg9.s 			page 9


 374              	.LBE40:
  70:src/syscall_c.cpp ****     uint64 ret;
 375              		.loc 1 70 5 is_stmt 1
  71:src/syscall_c.cpp ****     __asm__ volatile ("mv %[x], a0" : [x] "=r" (ret));
 376              		.loc 1 71 5
 377              		.loc 1 71 54 is_stmt 0
 378              	#APP
 379              	# 71 "src/syscall_c.cpp" 1
  72              	    return (int)ret;
 380              		mv a0, a0
 381              	# 0 "" 2
 382              	.LVL30:
 383              		.loc 1 72 5 is_stmt 1
  73:src/syscall_c.cpp **** }
 384              		.loc 1 73 1 is_stmt 0
 385              	#NO_APP
 386 0120 1B050500 		sext.w	a0,a0
 387              	.LVL31:
 388 0124 03348100 		ld	s0,8(sp)
 389              		.cfi_restore 8
 390              		.cfi_def_cfa 2, 16
 391 0128 13010101 		addi	sp,sp,16
 392              		.cfi_def_cfa_offset 0
 393 012c 67800000 		jr	ra
 394              		.cfi_endproc
 395              	.LFE25:
 397              		.align	2
 398              		.globl	_Z15thread_dispatchv
 400              	_Z15thread_dispatchv:
 401              	.LFB26:
  74:src/syscall_c.cpp **** 
  75:src/syscall_c.cpp **** void thread_dispatch()
  76:src/syscall_c.cpp **** {
 402              		.loc 1 76 1 is_stmt 1
 403              		.cfi_startproc
 404 0130 130101FF 		addi	sp,sp,-16
 405              		.cfi_def_cfa_offset 16
 406 0134 23348100 		sd	s0,8(sp)
 407              		.cfi_offset 8, -8
 408 0138 13040101 		addi	s0,sp,16
 409              		.cfi_def_cfa 8, 0
  77:src/syscall_c.cpp ****     invoke(THREAD_DISPATCH);
 410              		.loc 1 77 5
 411              	.LVL32:
 412              	.LBB42:
 413              	.LBB43:
  10:src/syscall_c.cpp ****     __asm__ volatile("ecall");
 414              		.loc 1 10 5
  10:src/syscall_c.cpp ****     __asm__ volatile("ecall");
 415              		.loc 1 10 48 is_stmt 0
 416 013c 93073001 		li	a5,19
 417              	#APP
 418              	# 10 "src/syscall_c.cpp" 1
  11:src/syscall_c.cpp **** }
 419              		mv a0, a5
 420              	# 0 "" 2
 421              		.loc 1 11 5 is_stmt 1
GAS LISTING /tmp/cc22aJg9.s 			page 10


  11:src/syscall_c.cpp **** }
 422              		.loc 1 11 30 is_stmt 0
 423              	# 11 "src/syscall_c.cpp" 1
 424              		ecall
 425              	# 0 "" 2
 426              	.LVL33:
 427              	#NO_APP
 428              	.LBE43:
 429              	.LBE42:
  78:src/syscall_c.cpp **** }
 430              		.loc 1 78 1
 431 0148 03348100 		ld	s0,8(sp)
 432              		.cfi_restore 8
 433              		.cfi_def_cfa 2, 16
 434 014c 13010101 		addi	sp,sp,16
 435              		.cfi_def_cfa_offset 0
 436 0150 67800000 		jr	ra
 437              		.cfi_endproc
 438              	.LFE26:
 440              		.align	2
 441              		.globl	_Z8sem_openPP3SEMj
 443              	_Z8sem_openPP3SEMj:
 444              	.LFB27:
  79:src/syscall_c.cpp **** 
  80:src/syscall_c.cpp **** 
  81:src/syscall_c.cpp **** int sem_open(sem_t* handle, unsigned init)
  82:src/syscall_c.cpp **** {
 445              		.loc 1 82 1 is_stmt 1
 446              		.cfi_startproc
 447              	.LVL34:
 448 0154 130101FF 		addi	sp,sp,-16
 449              		.cfi_def_cfa_offset 16
 450 0158 23348100 		sd	s0,8(sp)
 451              		.cfi_offset 8, -8
 452 015c 13040101 		addi	s0,sp,16
 453              		.cfi_def_cfa 8, 0
  83:src/syscall_c.cpp ****     __asm__ volatile ("mv a2, %[x]" :: [x] "r" (init));
 454              		.loc 1 83 5
 455              		.loc 1 83 55 is_stmt 0
 456              	#APP
 457              	# 83 "src/syscall_c.cpp" 1
  84              	    __asm__ volatile ("mv a1, %[x]" :: [x] "r" (handle));
 458              		mv a2, a1
 459              	# 0 "" 2
 460              		.loc 1 84 5 is_stmt 1
 461              		.loc 1 84 57 is_stmt 0
 462              	# 84 "src/syscall_c.cpp" 1
  85              	    invoke(SEM_OPEN);
 463              		mv a1, a0
 464              	# 0 "" 2
 465              		.loc 1 85 5 is_stmt 1
 466              	.LVL35:
 467              	#NO_APP
 468              	.LBB44:
 469              	.LBB45:
  10:src/syscall_c.cpp ****     __asm__ volatile("ecall");
 470              		.loc 1 10 5
GAS LISTING /tmp/cc22aJg9.s 			page 11


  10:src/syscall_c.cpp ****     __asm__ volatile("ecall");
 471              		.loc 1 10 48 is_stmt 0
 472 0168 93071002 		li	a5,33
 473              	#APP
 474              	# 10 "src/syscall_c.cpp" 1
  11:src/syscall_c.cpp **** }
 475              		mv a0, a5
 476              	# 0 "" 2
 477              		.loc 1 11 5 is_stmt 1
  11:src/syscall_c.cpp **** }
 478              		.loc 1 11 30 is_stmt 0
 479              	# 11 "src/syscall_c.cpp" 1
 480              		ecall
 481              	# 0 "" 2
 482              	.LVL36:
 483              	#NO_APP
 484              	.LBE45:
 485              	.LBE44:
  86:src/syscall_c.cpp ****     uint64 ret;
 486              		.loc 1 86 5 is_stmt 1
  87:src/syscall_c.cpp ****     __asm__ volatile ("mv %[x], a0" : [x] "=r" (ret));
 487              		.loc 1 87 5
 488              		.loc 1 87 54 is_stmt 0
 489              	#APP
 490              	# 87 "src/syscall_c.cpp" 1
  88              	    return (int)ret;
 491              		mv a0, a0
 492              	# 0 "" 2
 493              	.LVL37:
 494              		.loc 1 88 5 is_stmt 1
  89:src/syscall_c.cpp **** }
 495              		.loc 1 89 1 is_stmt 0
 496              	#NO_APP
 497 0178 1B050500 		sext.w	a0,a0
 498              	.LVL38:
 499 017c 03348100 		ld	s0,8(sp)
 500              		.cfi_restore 8
 501              		.cfi_def_cfa 2, 16
 502 0180 13010101 		addi	sp,sp,16
 503              		.cfi_def_cfa_offset 0
 504 0184 67800000 		jr	ra
 505              		.cfi_endproc
 506              	.LFE27:
 508              		.align	2
 509              		.globl	_Z9sem_closeP3SEM
 511              	_Z9sem_closeP3SEM:
 512              	.LFB28:
  90:src/syscall_c.cpp **** 
  91:src/syscall_c.cpp **** int sem_close(sem_t handle)
  92:src/syscall_c.cpp **** {
 513              		.loc 1 92 1 is_stmt 1
 514              		.cfi_startproc
 515              	.LVL39:
 516 0188 130101FF 		addi	sp,sp,-16
 517              		.cfi_def_cfa_offset 16
 518 018c 23348100 		sd	s0,8(sp)
 519              		.cfi_offset 8, -8
GAS LISTING /tmp/cc22aJg9.s 			page 12


 520 0190 13040101 		addi	s0,sp,16
 521              		.cfi_def_cfa 8, 0
  93:src/syscall_c.cpp ****     __asm__ volatile ("mv a1, %[x]" :: [x] "r" (handle));
 522              		.loc 1 93 5
 523              		.loc 1 93 57 is_stmt 0
 524              	#APP
 525              	# 93 "src/syscall_c.cpp" 1
  94              	    invoke(SEM_CLOSE);
 526              		mv a1, a0
 527              	# 0 "" 2
 528              		.loc 1 94 5 is_stmt 1
 529              	.LVL40:
 530              	#NO_APP
 531              	.LBB46:
 532              	.LBB47:
  10:src/syscall_c.cpp ****     __asm__ volatile("ecall");
 533              		.loc 1 10 5
  10:src/syscall_c.cpp ****     __asm__ volatile("ecall");
 534              		.loc 1 10 48 is_stmt 0
 535 0198 93072002 		li	a5,34
 536              	#APP
 537              	# 10 "src/syscall_c.cpp" 1
  11:src/syscall_c.cpp **** }
 538              		mv a0, a5
 539              	# 0 "" 2
 540              		.loc 1 11 5 is_stmt 1
  11:src/syscall_c.cpp **** }
 541              		.loc 1 11 30 is_stmt 0
 542              	# 11 "src/syscall_c.cpp" 1
 543              		ecall
 544              	# 0 "" 2
 545              	.LVL41:
 546              	#NO_APP
 547              	.LBE47:
 548              	.LBE46:
  95:src/syscall_c.cpp ****     uint64 ret;
 549              		.loc 1 95 5 is_stmt 1
  96:src/syscall_c.cpp ****     __asm__ volatile ("mv %[x], a0" : [x] "=r" (ret));
 550              		.loc 1 96 5
 551              		.loc 1 96 54 is_stmt 0
 552              	#APP
 553              	# 96 "src/syscall_c.cpp" 1
  97              	    return (int)ret;
 554              		mv a0, a0
 555              	# 0 "" 2
 556              	.LVL42:
 557              		.loc 1 97 5 is_stmt 1
  98:src/syscall_c.cpp **** }
 558              		.loc 1 98 1 is_stmt 0
 559              	#NO_APP
 560 01a8 1B050500 		sext.w	a0,a0
 561              	.LVL43:
 562 01ac 03348100 		ld	s0,8(sp)
 563              		.cfi_restore 8
 564              		.cfi_def_cfa 2, 16
 565 01b0 13010101 		addi	sp,sp,16
 566              		.cfi_def_cfa_offset 0
GAS LISTING /tmp/cc22aJg9.s 			page 13


 567 01b4 67800000 		jr	ra
 568              		.cfi_endproc
 569              	.LFE28:
 571              		.align	2
 572              		.globl	_Z8sem_waitP3SEM
 574              	_Z8sem_waitP3SEM:
 575              	.LFB29:
  99:src/syscall_c.cpp **** 
 100:src/syscall_c.cpp **** int sem_wait(sem_t id)
 101:src/syscall_c.cpp **** {
 576              		.loc 1 101 1 is_stmt 1
 577              		.cfi_startproc
 578              	.LVL44:
 579 01b8 130101FF 		addi	sp,sp,-16
 580              		.cfi_def_cfa_offset 16
 581 01bc 23348100 		sd	s0,8(sp)
 582              		.cfi_offset 8, -8
 583 01c0 13040101 		addi	s0,sp,16
 584              		.cfi_def_cfa 8, 0
 102:src/syscall_c.cpp ****     __asm__ volatile ("mv a1, %[x]" :: [x] "r" (id));
 585              		.loc 1 102 5
 586              		.loc 1 102 53 is_stmt 0
 587              	#APP
 588              	# 102 "src/syscall_c.cpp" 1
 103              	    invoke(SEM_WAIT);
 589              		mv a1, a0
 590              	# 0 "" 2
 591              		.loc 1 103 5 is_stmt 1
 592              	.LVL45:
 593              	#NO_APP
 594              	.LBB48:
 595              	.LBB49:
  10:src/syscall_c.cpp ****     __asm__ volatile("ecall");
 596              		.loc 1 10 5
  10:src/syscall_c.cpp ****     __asm__ volatile("ecall");
 597              		.loc 1 10 48 is_stmt 0
 598 01c8 93073002 		li	a5,35
 599              	#APP
 600              	# 10 "src/syscall_c.cpp" 1
  11:src/syscall_c.cpp **** }
 601              		mv a0, a5
 602              	# 0 "" 2
 603              		.loc 1 11 5 is_stmt 1
  11:src/syscall_c.cpp **** }
 604              		.loc 1 11 30 is_stmt 0
 605              	# 11 "src/syscall_c.cpp" 1
 606              		ecall
 607              	# 0 "" 2
 608              	.LVL46:
 609              	#NO_APP
 610              	.LBE49:
 611              	.LBE48:
 104:src/syscall_c.cpp ****     uint64 ret;
 612              		.loc 1 104 5 is_stmt 1
 105:src/syscall_c.cpp ****     __asm__ volatile ("mv %[x], a0" : [x] "=r" (ret));
 613              		.loc 1 105 5
 614              		.loc 1 105 54 is_stmt 0
GAS LISTING /tmp/cc22aJg9.s 			page 14


 615              	#APP
 616              	# 105 "src/syscall_c.cpp" 1
 106              	    return (int)ret;
 617              		mv a0, a0
 618              	# 0 "" 2
 619              	.LVL47:
 620              		.loc 1 106 5 is_stmt 1
 107:src/syscall_c.cpp **** }
 621              		.loc 1 107 1 is_stmt 0
 622              	#NO_APP
 623 01d8 1B050500 		sext.w	a0,a0
 624              	.LVL48:
 625 01dc 03348100 		ld	s0,8(sp)
 626              		.cfi_restore 8
 627              		.cfi_def_cfa 2, 16
 628 01e0 13010101 		addi	sp,sp,16
 629              		.cfi_def_cfa_offset 0
 630 01e4 67800000 		jr	ra
 631              		.cfi_endproc
 632              	.LFE29:
 634              		.align	2
 635              		.globl	_Z10sem_signalP3SEM
 637              	_Z10sem_signalP3SEM:
 638              	.LFB30:
 108:src/syscall_c.cpp **** 
 109:src/syscall_c.cpp **** int sem_signal(sem_t id)
 110:src/syscall_c.cpp **** {
 639              		.loc 1 110 1 is_stmt 1
 640              		.cfi_startproc
 641              	.LVL49:
 642 01e8 130101FF 		addi	sp,sp,-16
 643              		.cfi_def_cfa_offset 16
 644 01ec 23348100 		sd	s0,8(sp)
 645              		.cfi_offset 8, -8
 646 01f0 13040101 		addi	s0,sp,16
 647              		.cfi_def_cfa 8, 0
 111:src/syscall_c.cpp ****     __asm__ volatile ("mv a1, %[x]" :: [x] "r" (id));
 648              		.loc 1 111 5
 649              		.loc 1 111 53 is_stmt 0
 650              	#APP
 651              	# 111 "src/syscall_c.cpp" 1
 112              	    invoke(SEM_SIGNAL);
 652              		mv a1, a0
 653              	# 0 "" 2
 654              		.loc 1 112 5 is_stmt 1
 655              	.LVL50:
 656              	#NO_APP
 657              	.LBB50:
 658              	.LBB51:
  10:src/syscall_c.cpp ****     __asm__ volatile("ecall");
 659              		.loc 1 10 5
  10:src/syscall_c.cpp ****     __asm__ volatile("ecall");
 660              		.loc 1 10 48 is_stmt 0
 661 01f8 93074002 		li	a5,36
 662              	#APP
 663              	# 10 "src/syscall_c.cpp" 1
  11:src/syscall_c.cpp **** }
GAS LISTING /tmp/cc22aJg9.s 			page 15


 664              		mv a0, a5
 665              	# 0 "" 2
 666              		.loc 1 11 5 is_stmt 1
  11:src/syscall_c.cpp **** }
 667              		.loc 1 11 30 is_stmt 0
 668              	# 11 "src/syscall_c.cpp" 1
 669              		ecall
 670              	# 0 "" 2
 671              	.LVL51:
 672              	#NO_APP
 673              	.LBE51:
 674              	.LBE50:
 113:src/syscall_c.cpp ****     uint64 ret;
 675              		.loc 1 113 5 is_stmt 1
 114:src/syscall_c.cpp ****     __asm__ volatile ("mv %[x], a0" : [x] "=r" (ret));
 676              		.loc 1 114 5
 677              		.loc 1 114 54 is_stmt 0
 678              	#APP
 679              	# 114 "src/syscall_c.cpp" 1
 115              	    return (int)ret;
 680              		mv a0, a0
 681              	# 0 "" 2
 682              	.LVL52:
 683              		.loc 1 115 5 is_stmt 1
 116:src/syscall_c.cpp **** }
 684              		.loc 1 116 1 is_stmt 0
 685              	#NO_APP
 686 0208 1B050500 		sext.w	a0,a0
 687              	.LVL53:
 688 020c 03348100 		ld	s0,8(sp)
 689              		.cfi_restore 8
 690              		.cfi_def_cfa 2, 16
 691 0210 13010101 		addi	sp,sp,16
 692              		.cfi_def_cfa_offset 0
 693 0214 67800000 		jr	ra
 694              		.cfi_endproc
 695              	.LFE30:
 697              		.align	2
 698              		.globl	_Z10time_sleepm
 700              	_Z10time_sleepm:
 701              	.LFB31:
 117:src/syscall_c.cpp **** 
 118:src/syscall_c.cpp **** int time_sleep(time_t time)
 119:src/syscall_c.cpp **** {
 702              		.loc 1 119 1 is_stmt 1
 703              		.cfi_startproc
 704              	.LVL54:
 705 0218 130101FF 		addi	sp,sp,-16
 706              		.cfi_def_cfa_offset 16
 707 021c 23348100 		sd	s0,8(sp)
 708              		.cfi_offset 8, -8
 709 0220 13040101 		addi	s0,sp,16
 710              		.cfi_def_cfa 8, 0
 120:src/syscall_c.cpp ****     __asm__ volatile ("mv a1, %[x]" :: [x] "r" (time));
 711              		.loc 1 120 5
 712              		.loc 1 120 55 is_stmt 0
 713              	#APP
GAS LISTING /tmp/cc22aJg9.s 			page 16


 714              	# 120 "src/syscall_c.cpp" 1
 121              	    invoke(TIME_SLEEP);
 715              		mv a1, a0
 716              	# 0 "" 2
 717              		.loc 1 121 5 is_stmt 1
 718              	.LVL55:
 719              	#NO_APP
 720              	.LBB52:
 721              	.LBB53:
  10:src/syscall_c.cpp ****     __asm__ volatile("ecall");
 722              		.loc 1 10 5
  10:src/syscall_c.cpp ****     __asm__ volatile("ecall");
 723              		.loc 1 10 48 is_stmt 0
 724 0228 93071003 		li	a5,49
 725              	#APP
 726              	# 10 "src/syscall_c.cpp" 1
  11:src/syscall_c.cpp **** }
 727              		mv a0, a5
 728              	# 0 "" 2
 729              		.loc 1 11 5 is_stmt 1
  11:src/syscall_c.cpp **** }
 730              		.loc 1 11 30 is_stmt 0
 731              	# 11 "src/syscall_c.cpp" 1
 732              		ecall
 733              	# 0 "" 2
 734              	.LVL56:
 735              	#NO_APP
 736              	.LBE53:
 737              	.LBE52:
 122:src/syscall_c.cpp ****     uint64 ret;
 738              		.loc 1 122 5 is_stmt 1
 123:src/syscall_c.cpp ****     __asm__ volatile ("mv %[x], a0" : [x] "=r" (ret));
 739              		.loc 1 123 5
 740              		.loc 1 123 54 is_stmt 0
 741              	#APP
 742              	# 123 "src/syscall_c.cpp" 1
 124              	    return (int)ret;
 743              		mv a0, a0
 744              	# 0 "" 2
 745              	.LVL57:
 746              		.loc 1 124 5 is_stmt 1
 125:src/syscall_c.cpp **** }
 747              		.loc 1 125 1 is_stmt 0
 748              	#NO_APP
 749 0238 1B050500 		sext.w	a0,a0
 750              	.LVL58:
 751 023c 03348100 		ld	s0,8(sp)
 752              		.cfi_restore 8
 753              		.cfi_def_cfa 2, 16
 754 0240 13010101 		addi	sp,sp,16
 755              		.cfi_def_cfa_offset 0
 756 0244 67800000 		jr	ra
 757              		.cfi_endproc
 758              	.LFE31:
 760              		.align	2
 761              		.globl	_Z4getcv
 763              	_Z4getcv:
GAS LISTING /tmp/cc22aJg9.s 			page 17


 764              	.LFB32:
 126:src/syscall_c.cpp **** 
 127:src/syscall_c.cpp **** char getc() {
 765              		.loc 1 127 13 is_stmt 1
 766              		.cfi_startproc
 767 0248 130101FF 		addi	sp,sp,-16
 768              		.cfi_def_cfa_offset 16
 769 024c 23348100 		sd	s0,8(sp)
 770              		.cfi_offset 8, -8
 771 0250 13040101 		addi	s0,sp,16
 772              		.cfi_def_cfa 8, 0
 128:src/syscall_c.cpp ****     invoke(GETCHAR);
 773              		.loc 1 128 5
 774              	.LVL59:
 775              	.LBB54:
 776              	.LBB55:
  10:src/syscall_c.cpp ****     __asm__ volatile("ecall");
 777              		.loc 1 10 5
  10:src/syscall_c.cpp ****     __asm__ volatile("ecall");
 778              		.loc 1 10 48 is_stmt 0
 779 0254 93071004 		li	a5,65
 780              	#APP
 781              	# 10 "src/syscall_c.cpp" 1
  11:src/syscall_c.cpp **** }
 782              		mv a0, a5
 783              	# 0 "" 2
 784              		.loc 1 11 5 is_stmt 1
  11:src/syscall_c.cpp **** }
 785              		.loc 1 11 30 is_stmt 0
 786              	# 11 "src/syscall_c.cpp" 1
 787              		ecall
 788              	# 0 "" 2
 789              	.LVL60:
 790              	#NO_APP
 791              	.LBE55:
 792              	.LBE54:
 129:src/syscall_c.cpp ****     uint64 ret;
 793              		.loc 1 129 5 is_stmt 1
 130:src/syscall_c.cpp ****     __asm__ volatile ("mv %[x], a0" : [x] "=r" (ret));
 794              		.loc 1 130 5
 795              		.loc 1 130 54 is_stmt 0
 796              	#APP
 797              	# 130 "src/syscall_c.cpp" 1
 131              	    return (char)ret;
 798              		mv a0, a0
 799              	# 0 "" 2
 800              	.LVL61:
 801              		.loc 1 131 5 is_stmt 1
 132:src/syscall_c.cpp **** }
 802              		.loc 1 132 1 is_stmt 0
 803              	#NO_APP
 804 0264 1375F50F 		andi	a0,a0,0xff
 805              	.LVL62:
 806 0268 03348100 		ld	s0,8(sp)
 807              		.cfi_restore 8
 808              		.cfi_def_cfa 2, 16
 809 026c 13010101 		addi	sp,sp,16
GAS LISTING /tmp/cc22aJg9.s 			page 18


 810              		.cfi_def_cfa_offset 0
 811 0270 67800000 		jr	ra
 812              		.cfi_endproc
 813              	.LFE32:
 815              		.align	2
 816              		.globl	_Z4putcc
 818              	_Z4putcc:
 819              	.LFB33:
 133:src/syscall_c.cpp **** 
 134:src/syscall_c.cpp **** void putc(char c) {
 820              		.loc 1 134 19 is_stmt 1
 821              		.cfi_startproc
 822              	.LVL63:
 823 0274 130101FF 		addi	sp,sp,-16
 824              		.cfi_def_cfa_offset 16
 825 0278 23348100 		sd	s0,8(sp)
 826              		.cfi_offset 8, -8
 827 027c 13040101 		addi	s0,sp,16
 828              		.cfi_def_cfa 8, 0
 135:src/syscall_c.cpp ****     __asm__ volatile ("mv a1, %[x]" :: [x] "r" (c));
 829              		.loc 1 135 5
 830              		.loc 1 135 52 is_stmt 0
 831              	#APP
 832              	# 135 "src/syscall_c.cpp" 1
 136              	    invoke(PUTCHAR);
 833              		mv a1, a0
 834              	# 0 "" 2
 835              		.loc 1 136 5 is_stmt 1
 836              	.LVL64:
 837              	#NO_APP
 838              	.LBB56:
 839              	.LBB57:
  10:src/syscall_c.cpp ****     __asm__ volatile("ecall");
 840              		.loc 1 10 5
  10:src/syscall_c.cpp ****     __asm__ volatile("ecall");
 841              		.loc 1 10 48 is_stmt 0
 842 0284 93072004 		li	a5,66
 843              	#APP
 844              	# 10 "src/syscall_c.cpp" 1
  11:src/syscall_c.cpp **** }
 845              		mv a0, a5
 846              	# 0 "" 2
 847              		.loc 1 11 5 is_stmt 1
  11:src/syscall_c.cpp **** }
 848              		.loc 1 11 30 is_stmt 0
 849              	# 11 "src/syscall_c.cpp" 1
 850              		ecall
 851              	# 0 "" 2
 852              	.LVL65:
 853              	#NO_APP
 854              	.LBE57:
 855              	.LBE56:
 137:src/syscall_c.cpp **** }
 856              		.loc 1 137 1
 857 0290 03348100 		ld	s0,8(sp)
 858              		.cfi_restore 8
 859              		.cfi_def_cfa 2, 16
GAS LISTING /tmp/cc22aJg9.s 			page 19


 860 0294 13010101 		addi	sp,sp,16
 861              		.cfi_def_cfa_offset 0
 862 0298 67800000 		jr	ra
 863              		.cfi_endproc
 864              	.LFE33:
 866              	.Letext0:
 867              		.file 2 "src/../h/../lib/hw.h"
 868              		.file 3 "src/../h/TCB.hpp"
 869              		.file 4 "src/../h/../h/List.hpp"
 870              		.file 5 "src/../h/SEM.hpp"
 871              		.file 6 "src/../h/syscall_c.hpp"
GAS LISTING /tmp/cc22aJg9.s 			page 20


DEFINED SYMBOLS
                            *ABS*:0000000000000000 syscall_c.cpp
     /tmp/cc22aJg9.s:9      .text:0000000000000000 _Z9mem_allocm
     /tmp/cc22aJg9.s:13     .text:0000000000000000 .L0 
     /tmp/cc22aJg9.s:15     .text:0000000000000000 .L0 
     /tmp/cc22aJg9.s:16     .text:0000000000000004 .L0 
     /tmp/cc22aJg9.s:18     .text:0000000000000008 .L0 
     /tmp/cc22aJg9.s:20     .text:000000000000000c .L0 
     /tmp/cc22aJg9.s:22     .text:000000000000000c .L0 
     /tmp/cc22aJg9.s:23     .text:000000000000000c .L0 
     /tmp/cc22aJg9.s:26     .text:0000000000000010 .L0 
     /tmp/cc22aJg9.s:28     .text:0000000000000014 .L0 
     /tmp/cc22aJg9.s:32     .text:0000000000000018 .L0 
     /tmp/cc22aJg9.s:33     .text:0000000000000018 .L0 
     /tmp/cc22aJg9.s:36     .text:000000000000001c .L0 
     /tmp/cc22aJg9.s:39     .text:0000000000000020 .L0 
   src/syscall_c.cpp:19     .text:0000000000000020 .L0 
     /tmp/cc22aJg9.s:49     .text:0000000000000024 .L0 
     /tmp/cc22aJg9.s:50     .text:0000000000000024 .L0 
     /tmp/cc22aJg9.s:51     .text:0000000000000024 .L0 
     /tmp/cc22aJg9.s:58     .text:000000000000002c .L0 
   src/syscall_c.cpp:11     .text:000000000000002c .L0 
     /tmp/cc22aJg9.s:67     .text:0000000000000030 .L0 
     /tmp/cc22aJg9.s:68     .text:0000000000000030 .L0 
   src/syscall_c.cpp:23     .text:0000000000000030 .L0 
     /tmp/cc22aJg9.s:75     .text:0000000000000034 .L0 
     /tmp/cc22aJg9.s:77     .text:0000000000000034 .L0 
     /tmp/cc22aJg9.s:78     .text:0000000000000038 .L0 
     /tmp/cc22aJg9.s:79     .text:0000000000000038 .L0 
     /tmp/cc22aJg9.s:81     .text:000000000000003c .L0 
     /tmp/cc22aJg9.s:83     .text:0000000000000040 .L0 
     /tmp/cc22aJg9.s:89     .text:0000000000000040 _Z8mem_freePv
     /tmp/cc22aJg9.s:92     .text:0000000000000040 .L0 
     /tmp/cc22aJg9.s:94     .text:0000000000000040 .L0 
     /tmp/cc22aJg9.s:95     .text:0000000000000044 .L0 
     /tmp/cc22aJg9.s:97     .text:0000000000000048 .L0 
     /tmp/cc22aJg9.s:99     .text:000000000000004c .L0 
     /tmp/cc22aJg9.s:101    .text:000000000000004c .L0 
     /tmp/cc22aJg9.s:104    .text:0000000000000050 .L0 
     /tmp/cc22aJg9.s:105    .text:0000000000000050 .L0 
   src/syscall_c.cpp:32     .text:0000000000000050 .L0 
     /tmp/cc22aJg9.s:115    .text:0000000000000054 .L0 
     /tmp/cc22aJg9.s:116    .text:0000000000000054 .L0 
     /tmp/cc22aJg9.s:117    .text:0000000000000054 .L0 
     /tmp/cc22aJg9.s:123    .text:000000000000005c .L0 
   src/syscall_c.cpp:11     .text:000000000000005c .L0 
     /tmp/cc22aJg9.s:132    .text:0000000000000060 .L0 
     /tmp/cc22aJg9.s:133    .text:0000000000000060 .L0 
   src/syscall_c.cpp:35     .text:0000000000000060 .L0 
     /tmp/cc22aJg9.s:140    .text:0000000000000064 .L0 
     /tmp/cc22aJg9.s:142    .text:0000000000000064 .L0 
     /tmp/cc22aJg9.s:146    .text:0000000000000068 .L0 
     /tmp/cc22aJg9.s:147    .text:000000000000006c .L0 
     /tmp/cc22aJg9.s:148    .text:000000000000006c .L0 
     /tmp/cc22aJg9.s:149    .text:000000000000006c .L0 
     /tmp/cc22aJg9.s:151    .text:0000000000000070 .L0 
     /tmp/cc22aJg9.s:155    .text:0000000000000074 .L0 
GAS LISTING /tmp/cc22aJg9.s 			page 21


     /tmp/cc22aJg9.s:157    .text:0000000000000074 .L0 
     /tmp/cc22aJg9.s:160    .text:000000000000007c .L0 
     /tmp/cc22aJg9.s:166    .text:000000000000007c _Z18mem_get_free_spacev
     /tmp/cc22aJg9.s:169    .text:000000000000007c .L0 
     /tmp/cc22aJg9.s:170    .text:000000000000007c .L0 
     /tmp/cc22aJg9.s:171    .text:0000000000000080 .L0 
     /tmp/cc22aJg9.s:173    .text:0000000000000084 .L0 
     /tmp/cc22aJg9.s:175    .text:0000000000000088 .L0 
     /tmp/cc22aJg9.s:180    .text:0000000000000088 .L0 
     /tmp/cc22aJg9.s:181    .text:0000000000000088 .L0 
     /tmp/cc22aJg9.s:182    .text:0000000000000088 .L0 
     /tmp/cc22aJg9.s:188    .text:0000000000000090 .L0 
   src/syscall_c.cpp:11     .text:0000000000000090 .L0 
     /tmp/cc22aJg9.s:197    .text:0000000000000094 .L0 
     /tmp/cc22aJg9.s:198    .text:0000000000000094 .L0 
   src/syscall_c.cpp:43     .text:0000000000000094 .L0 
     /tmp/cc22aJg9.s:205    .text:0000000000000098 .L0 
     /tmp/cc22aJg9.s:207    .text:0000000000000098 .L0 
     /tmp/cc22aJg9.s:208    .text:000000000000009c .L0 
     /tmp/cc22aJg9.s:209    .text:000000000000009c .L0 
     /tmp/cc22aJg9.s:211    .text:00000000000000a0 .L0 
     /tmp/cc22aJg9.s:213    .text:00000000000000a4 .L0 
     /tmp/cc22aJg9.s:219    .text:00000000000000a4 _Z26mem_get_largest_free_blockv
     /tmp/cc22aJg9.s:222    .text:00000000000000a4 .L0 
     /tmp/cc22aJg9.s:223    .text:00000000000000a4 .L0 
     /tmp/cc22aJg9.s:224    .text:00000000000000a8 .L0 
     /tmp/cc22aJg9.s:226    .text:00000000000000ac .L0 
     /tmp/cc22aJg9.s:228    .text:00000000000000b0 .L0 
     /tmp/cc22aJg9.s:233    .text:00000000000000b0 .L0 
     /tmp/cc22aJg9.s:234    .text:00000000000000b0 .L0 
     /tmp/cc22aJg9.s:235    .text:00000000000000b0 .L0 
     /tmp/cc22aJg9.s:241    .text:00000000000000b8 .L0 
   src/syscall_c.cpp:11     .text:00000000000000b8 .L0 
     /tmp/cc22aJg9.s:250    .text:00000000000000bc .L0 
     /tmp/cc22aJg9.s:251    .text:00000000000000bc .L0 
   src/syscall_c.cpp:50     .text:00000000000000bc .L0 
     /tmp/cc22aJg9.s:258    .text:00000000000000c0 .L0 
     /tmp/cc22aJg9.s:260    .text:00000000000000c0 .L0 
     /tmp/cc22aJg9.s:261    .text:00000000000000c4 .L0 
     /tmp/cc22aJg9.s:262    .text:00000000000000c4 .L0 
     /tmp/cc22aJg9.s:264    .text:00000000000000c8 .L0 
     /tmp/cc22aJg9.s:266    .text:00000000000000cc .L0 
     /tmp/cc22aJg9.s:272    .text:00000000000000cc _Z13thread_createPP3TCBPFvPvES2_
     /tmp/cc22aJg9.s:275    .text:00000000000000cc .L0 
     /tmp/cc22aJg9.s:277    .text:00000000000000cc .L0 
     /tmp/cc22aJg9.s:278    .text:00000000000000d0 .L0 
     /tmp/cc22aJg9.s:280    .text:00000000000000d4 .L0 
     /tmp/cc22aJg9.s:282    .text:00000000000000d8 .L0 
     /tmp/cc22aJg9.s:284    .text:00000000000000d8 .L0 
   src/syscall_c.cpp:58     .text:00000000000000d8 .L0 
     /tmp/cc22aJg9.s:290    .text:00000000000000dc .L0 
   src/syscall_c.cpp:59     .text:00000000000000dc .L0 
     /tmp/cc22aJg9.s:295    .text:00000000000000e0 .L0 
   src/syscall_c.cpp:60     .text:00000000000000e0 .L0 
     /tmp/cc22aJg9.s:304    .text:00000000000000e4 .L0 
     /tmp/cc22aJg9.s:305    .text:00000000000000e4 .L0 
     /tmp/cc22aJg9.s:306    .text:00000000000000e4 .L0 
GAS LISTING /tmp/cc22aJg9.s 			page 22


     /tmp/cc22aJg9.s:312    .text:00000000000000ec .L0 
   src/syscall_c.cpp:11     .text:00000000000000ec .L0 
     /tmp/cc22aJg9.s:321    .text:00000000000000f0 .L0 
     /tmp/cc22aJg9.s:322    .text:00000000000000f0 .L0 
   src/syscall_c.cpp:64     .text:00000000000000f0 .L0 
     /tmp/cc22aJg9.s:329    .text:00000000000000f4 .L0 
     /tmp/cc22aJg9.s:331    .text:00000000000000f4 .L0 
     /tmp/cc22aJg9.s:334    .text:00000000000000fc .L0 
     /tmp/cc22aJg9.s:335    .text:00000000000000fc .L0 
     /tmp/cc22aJg9.s:337    .text:0000000000000100 .L0 
     /tmp/cc22aJg9.s:339    .text:0000000000000104 .L0 
     /tmp/cc22aJg9.s:345    .text:0000000000000104 _Z11thread_exitv
     /tmp/cc22aJg9.s:348    .text:0000000000000104 .L0 
     /tmp/cc22aJg9.s:349    .text:0000000000000104 .L0 
     /tmp/cc22aJg9.s:350    .text:0000000000000108 .L0 
     /tmp/cc22aJg9.s:352    .text:000000000000010c .L0 
     /tmp/cc22aJg9.s:354    .text:0000000000000110 .L0 
     /tmp/cc22aJg9.s:359    .text:0000000000000110 .L0 
     /tmp/cc22aJg9.s:360    .text:0000000000000110 .L0 
     /tmp/cc22aJg9.s:361    .text:0000000000000110 .L0 
     /tmp/cc22aJg9.s:367    .text:0000000000000118 .L0 
   src/syscall_c.cpp:11     .text:0000000000000118 .L0 
     /tmp/cc22aJg9.s:376    .text:000000000000011c .L0 
     /tmp/cc22aJg9.s:377    .text:000000000000011c .L0 
   src/syscall_c.cpp:71     .text:000000000000011c .L0 
     /tmp/cc22aJg9.s:384    .text:0000000000000120 .L0 
     /tmp/cc22aJg9.s:386    .text:0000000000000120 .L0 
     /tmp/cc22aJg9.s:389    .text:0000000000000128 .L0 
     /tmp/cc22aJg9.s:390    .text:0000000000000128 .L0 
     /tmp/cc22aJg9.s:392    .text:000000000000012c .L0 
     /tmp/cc22aJg9.s:394    .text:0000000000000130 .L0 
     /tmp/cc22aJg9.s:400    .text:0000000000000130 _Z15thread_dispatchv
     /tmp/cc22aJg9.s:403    .text:0000000000000130 .L0 
     /tmp/cc22aJg9.s:404    .text:0000000000000130 .L0 
     /tmp/cc22aJg9.s:405    .text:0000000000000134 .L0 
     /tmp/cc22aJg9.s:407    .text:0000000000000138 .L0 
     /tmp/cc22aJg9.s:409    .text:000000000000013c .L0 
     /tmp/cc22aJg9.s:414    .text:000000000000013c .L0 
     /tmp/cc22aJg9.s:415    .text:000000000000013c .L0 
     /tmp/cc22aJg9.s:416    .text:000000000000013c .L0 
     /tmp/cc22aJg9.s:422    .text:0000000000000144 .L0 
   src/syscall_c.cpp:11     .text:0000000000000144 .L0 
     /tmp/cc22aJg9.s:431    .text:0000000000000148 .L0 
     /tmp/cc22aJg9.s:432    .text:000000000000014c .L0 
     /tmp/cc22aJg9.s:433    .text:000000000000014c .L0 
     /tmp/cc22aJg9.s:435    .text:0000000000000150 .L0 
     /tmp/cc22aJg9.s:437    .text:0000000000000154 .L0 
     /tmp/cc22aJg9.s:443    .text:0000000000000154 _Z8sem_openPP3SEMj
     /tmp/cc22aJg9.s:446    .text:0000000000000154 .L0 
     /tmp/cc22aJg9.s:448    .text:0000000000000154 .L0 
     /tmp/cc22aJg9.s:449    .text:0000000000000158 .L0 
     /tmp/cc22aJg9.s:451    .text:000000000000015c .L0 
     /tmp/cc22aJg9.s:453    .text:0000000000000160 .L0 
     /tmp/cc22aJg9.s:455    .text:0000000000000160 .L0 
   src/syscall_c.cpp:83     .text:0000000000000160 .L0 
     /tmp/cc22aJg9.s:461    .text:0000000000000164 .L0 
   src/syscall_c.cpp:84     .text:0000000000000164 .L0 
GAS LISTING /tmp/cc22aJg9.s 			page 23


     /tmp/cc22aJg9.s:470    .text:0000000000000168 .L0 
     /tmp/cc22aJg9.s:471    .text:0000000000000168 .L0 
     /tmp/cc22aJg9.s:472    .text:0000000000000168 .L0 
     /tmp/cc22aJg9.s:478    .text:0000000000000170 .L0 
   src/syscall_c.cpp:11     .text:0000000000000170 .L0 
     /tmp/cc22aJg9.s:487    .text:0000000000000174 .L0 
     /tmp/cc22aJg9.s:488    .text:0000000000000174 .L0 
   src/syscall_c.cpp:87     .text:0000000000000174 .L0 
     /tmp/cc22aJg9.s:495    .text:0000000000000178 .L0 
     /tmp/cc22aJg9.s:497    .text:0000000000000178 .L0 
     /tmp/cc22aJg9.s:500    .text:0000000000000180 .L0 
     /tmp/cc22aJg9.s:501    .text:0000000000000180 .L0 
     /tmp/cc22aJg9.s:503    .text:0000000000000184 .L0 
     /tmp/cc22aJg9.s:505    .text:0000000000000188 .L0 
     /tmp/cc22aJg9.s:511    .text:0000000000000188 _Z9sem_closeP3SEM
     /tmp/cc22aJg9.s:514    .text:0000000000000188 .L0 
     /tmp/cc22aJg9.s:516    .text:0000000000000188 .L0 
     /tmp/cc22aJg9.s:517    .text:000000000000018c .L0 
     /tmp/cc22aJg9.s:519    .text:0000000000000190 .L0 
     /tmp/cc22aJg9.s:521    .text:0000000000000194 .L0 
     /tmp/cc22aJg9.s:523    .text:0000000000000194 .L0 
   src/syscall_c.cpp:93     .text:0000000000000194 .L0 
     /tmp/cc22aJg9.s:533    .text:0000000000000198 .L0 
     /tmp/cc22aJg9.s:534    .text:0000000000000198 .L0 
     /tmp/cc22aJg9.s:535    .text:0000000000000198 .L0 
     /tmp/cc22aJg9.s:541    .text:00000000000001a0 .L0 
   src/syscall_c.cpp:11     .text:00000000000001a0 .L0 
     /tmp/cc22aJg9.s:550    .text:00000000000001a4 .L0 
     /tmp/cc22aJg9.s:551    .text:00000000000001a4 .L0 
   src/syscall_c.cpp:96     .text:00000000000001a4 .L0 
     /tmp/cc22aJg9.s:558    .text:00000000000001a8 .L0 
     /tmp/cc22aJg9.s:560    .text:00000000000001a8 .L0 
     /tmp/cc22aJg9.s:563    .text:00000000000001b0 .L0 
     /tmp/cc22aJg9.s:564    .text:00000000000001b0 .L0 
     /tmp/cc22aJg9.s:566    .text:00000000000001b4 .L0 
     /tmp/cc22aJg9.s:568    .text:00000000000001b8 .L0 
     /tmp/cc22aJg9.s:574    .text:00000000000001b8 _Z8sem_waitP3SEM
     /tmp/cc22aJg9.s:577    .text:00000000000001b8 .L0 
     /tmp/cc22aJg9.s:579    .text:00000000000001b8 .L0 
     /tmp/cc22aJg9.s:580    .text:00000000000001bc .L0 
     /tmp/cc22aJg9.s:582    .text:00000000000001c0 .L0 
     /tmp/cc22aJg9.s:584    .text:00000000000001c4 .L0 
     /tmp/cc22aJg9.s:586    .text:00000000000001c4 .L0 
   src/syscall_c.cpp:102    .text:00000000000001c4 .L0 
     /tmp/cc22aJg9.s:596    .text:00000000000001c8 .L0 
     /tmp/cc22aJg9.s:597    .text:00000000000001c8 .L0 
     /tmp/cc22aJg9.s:598    .text:00000000000001c8 .L0 
     /tmp/cc22aJg9.s:604    .text:00000000000001d0 .L0 
   src/syscall_c.cpp:11     .text:00000000000001d0 .L0 
     /tmp/cc22aJg9.s:613    .text:00000000000001d4 .L0 
     /tmp/cc22aJg9.s:614    .text:00000000000001d4 .L0 
   src/syscall_c.cpp:105    .text:00000000000001d4 .L0 
     /tmp/cc22aJg9.s:621    .text:00000000000001d8 .L0 
     /tmp/cc22aJg9.s:623    .text:00000000000001d8 .L0 
     /tmp/cc22aJg9.s:626    .text:00000000000001e0 .L0 
     /tmp/cc22aJg9.s:627    .text:00000000000001e0 .L0 
     /tmp/cc22aJg9.s:629    .text:00000000000001e4 .L0 
GAS LISTING /tmp/cc22aJg9.s 			page 24


     /tmp/cc22aJg9.s:631    .text:00000000000001e8 .L0 
     /tmp/cc22aJg9.s:637    .text:00000000000001e8 _Z10sem_signalP3SEM
     /tmp/cc22aJg9.s:640    .text:00000000000001e8 .L0 
     /tmp/cc22aJg9.s:642    .text:00000000000001e8 .L0 
     /tmp/cc22aJg9.s:643    .text:00000000000001ec .L0 
     /tmp/cc22aJg9.s:645    .text:00000000000001f0 .L0 
     /tmp/cc22aJg9.s:647    .text:00000000000001f4 .L0 
     /tmp/cc22aJg9.s:649    .text:00000000000001f4 .L0 
   src/syscall_c.cpp:111    .text:00000000000001f4 .L0 
     /tmp/cc22aJg9.s:659    .text:00000000000001f8 .L0 
     /tmp/cc22aJg9.s:660    .text:00000000000001f8 .L0 
     /tmp/cc22aJg9.s:661    .text:00000000000001f8 .L0 
     /tmp/cc22aJg9.s:667    .text:0000000000000200 .L0 
   src/syscall_c.cpp:11     .text:0000000000000200 .L0 
     /tmp/cc22aJg9.s:676    .text:0000000000000204 .L0 
     /tmp/cc22aJg9.s:677    .text:0000000000000204 .L0 
   src/syscall_c.cpp:114    .text:0000000000000204 .L0 
     /tmp/cc22aJg9.s:684    .text:0000000000000208 .L0 
     /tmp/cc22aJg9.s:686    .text:0000000000000208 .L0 
     /tmp/cc22aJg9.s:689    .text:0000000000000210 .L0 
     /tmp/cc22aJg9.s:690    .text:0000000000000210 .L0 
     /tmp/cc22aJg9.s:692    .text:0000000000000214 .L0 
     /tmp/cc22aJg9.s:694    .text:0000000000000218 .L0 
     /tmp/cc22aJg9.s:700    .text:0000000000000218 _Z10time_sleepm
     /tmp/cc22aJg9.s:703    .text:0000000000000218 .L0 
     /tmp/cc22aJg9.s:705    .text:0000000000000218 .L0 
     /tmp/cc22aJg9.s:706    .text:000000000000021c .L0 
     /tmp/cc22aJg9.s:708    .text:0000000000000220 .L0 
     /tmp/cc22aJg9.s:710    .text:0000000000000224 .L0 
     /tmp/cc22aJg9.s:712    .text:0000000000000224 .L0 
   src/syscall_c.cpp:120    .text:0000000000000224 .L0 
     /tmp/cc22aJg9.s:722    .text:0000000000000228 .L0 
     /tmp/cc22aJg9.s:723    .text:0000000000000228 .L0 
     /tmp/cc22aJg9.s:724    .text:0000000000000228 .L0 
     /tmp/cc22aJg9.s:730    .text:0000000000000230 .L0 
   src/syscall_c.cpp:11     .text:0000000000000230 .L0 
     /tmp/cc22aJg9.s:739    .text:0000000000000234 .L0 
     /tmp/cc22aJg9.s:740    .text:0000000000000234 .L0 
   src/syscall_c.cpp:123    .text:0000000000000234 .L0 
     /tmp/cc22aJg9.s:747    .text:0000000000000238 .L0 
     /tmp/cc22aJg9.s:749    .text:0000000000000238 .L0 
     /tmp/cc22aJg9.s:752    .text:0000000000000240 .L0 
     /tmp/cc22aJg9.s:753    .text:0000000000000240 .L0 
     /tmp/cc22aJg9.s:755    .text:0000000000000244 .L0 
     /tmp/cc22aJg9.s:757    .text:0000000000000248 .L0 
     /tmp/cc22aJg9.s:763    .text:0000000000000248 _Z4getcv
     /tmp/cc22aJg9.s:766    .text:0000000000000248 .L0 
     /tmp/cc22aJg9.s:767    .text:0000000000000248 .L0 
     /tmp/cc22aJg9.s:768    .text:000000000000024c .L0 
     /tmp/cc22aJg9.s:770    .text:0000000000000250 .L0 
     /tmp/cc22aJg9.s:772    .text:0000000000000254 .L0 
     /tmp/cc22aJg9.s:777    .text:0000000000000254 .L0 
     /tmp/cc22aJg9.s:778    .text:0000000000000254 .L0 
     /tmp/cc22aJg9.s:779    .text:0000000000000254 .L0 
     /tmp/cc22aJg9.s:785    .text:000000000000025c .L0 
   src/syscall_c.cpp:11     .text:000000000000025c .L0 
     /tmp/cc22aJg9.s:794    .text:0000000000000260 .L0 
GAS LISTING /tmp/cc22aJg9.s 			page 25


     /tmp/cc22aJg9.s:795    .text:0000000000000260 .L0 
   src/syscall_c.cpp:130    .text:0000000000000260 .L0 
     /tmp/cc22aJg9.s:802    .text:0000000000000264 .L0 
     /tmp/cc22aJg9.s:804    .text:0000000000000264 .L0 
     /tmp/cc22aJg9.s:807    .text:000000000000026c .L0 
     /tmp/cc22aJg9.s:808    .text:000000000000026c .L0 
     /tmp/cc22aJg9.s:810    .text:0000000000000270 .L0 
     /tmp/cc22aJg9.s:812    .text:0000000000000274 .L0 
     /tmp/cc22aJg9.s:818    .text:0000000000000274 _Z4putcc
     /tmp/cc22aJg9.s:821    .text:0000000000000274 .L0 
     /tmp/cc22aJg9.s:823    .text:0000000000000274 .L0 
     /tmp/cc22aJg9.s:824    .text:0000000000000278 .L0 
     /tmp/cc22aJg9.s:826    .text:000000000000027c .L0 
     /tmp/cc22aJg9.s:828    .text:0000000000000280 .L0 
     /tmp/cc22aJg9.s:830    .text:0000000000000280 .L0 
   src/syscall_c.cpp:135    .text:0000000000000280 .L0 
     /tmp/cc22aJg9.s:840    .text:0000000000000284 .L0 
     /tmp/cc22aJg9.s:841    .text:0000000000000284 .L0 
     /tmp/cc22aJg9.s:842    .text:0000000000000284 .L0 
     /tmp/cc22aJg9.s:848    .text:000000000000028c .L0 
   src/syscall_c.cpp:11     .text:000000000000028c .L0 
     /tmp/cc22aJg9.s:857    .text:0000000000000290 .L0 
     /tmp/cc22aJg9.s:858    .text:0000000000000294 .L0 
     /tmp/cc22aJg9.s:859    .text:0000000000000294 .L0 
     /tmp/cc22aJg9.s:861    .text:0000000000000298 .L0 
     /tmp/cc22aJg9.s:863    .text:000000000000029c .L0 
     /tmp/cc22aJg9.s:872    .text:000000000000029c .L0 
     /tmp/cc22aJg9.s:30     .text:0000000000000018 .L2
     /tmp/cc22aJg9.s:154    .text:0000000000000074 .L7
     /tmp/cc22aJg9.s:144    .text:0000000000000068 .L6
     /tmp/cc22aJg9.s:2157   .debug_abbrev:0000000000000000 .Ldebug_abbrev0
     /tmp/cc22aJg9.s:3592   .debug_str:000000000000062e .LASF130
     /tmp/cc22aJg9.s:3486   .debug_str:00000000000003ba .LASF131
     /tmp/cc22aJg9.s:3530   .debug_str:00000000000004b8 .LASF132
     /tmp/cc22aJg9.s:5      .text:0000000000000000 .Ltext0
     /tmp/cc22aJg9.s:866    .text:000000000000029c .Letext0
     /tmp/cc22aJg9.s:3356   .debug_line:0000000000000000 .Ldebug_line0
     /tmp/cc22aJg9.s:3450   .debug_str:00000000000002ac .LASF0
     /tmp/cc22aJg9.s:3474   .debug_str:0000000000000376 .LASF1
     /tmp/cc22aJg9.s:3540   .debug_str:000000000000050d .LASF2
     /tmp/cc22aJg9.s:3546   .debug_str:0000000000000535 .LASF4
     /tmp/cc22aJg9.s:3458   .debug_str:00000000000002e2 .LASF3
     /tmp/cc22aJg9.s:3366   .debug_str:0000000000000029 .LASF5
     /tmp/cc22aJg9.s:3518   .debug_str:0000000000000470 .LASF6
     /tmp/cc22aJg9.s:3510   .debug_str:000000000000043c .LASF7
     /tmp/cc22aJg9.s:3464   .debug_str:0000000000000320 .LASF8
     /tmp/cc22aJg9.s:3434   .debug_str:0000000000000239 .LASF9
     /tmp/cc22aJg9.s:3440   .debug_str:0000000000000276 .LASF10
     /tmp/cc22aJg9.s:3396   .debug_str:0000000000000128 .LASF11
     /tmp/cc22aJg9.s:3426   .debug_str:000000000000020a .LASF12
     /tmp/cc22aJg9.s:3408   .debug_str:000000000000018e .LASF13
     /tmp/cc22aJg9.s:3394   .debug_str:0000000000000118 .LASF14
     /tmp/cc22aJg9.s:3572   .debug_str:00000000000005d1 .LASF15
     /tmp/cc22aJg9.s:3422   .debug_str:00000000000001ed .LASF16
     /tmp/cc22aJg9.s:3560   .debug_str:0000000000000576 .LASF17
     /tmp/cc22aJg9.s:3580   .debug_str:00000000000005f5 .LASF133
     /tmp/cc22aJg9.s:3642   .debug_str:000000000000082f .LASF18
GAS LISTING /tmp/cc22aJg9.s 			page 26


     /tmp/cc22aJg9.s:3438   .debug_str:000000000000026a .LASF20
     /tmp/cc22aJg9.s:3360   .debug_str:0000000000000005 .LASF45
     /tmp/cc22aJg9.s:3480   .debug_str:000000000000039c .LASF134
     /tmp/cc22aJg9.s:3548   .debug_str:000000000000053c .LASF19
     /tmp/cc22aJg9.s:3364   .debug_str:000000000000001d .LASF21
     /tmp/cc22aJg9.s:3570   .debug_str:00000000000005c4 .LASF22
     /tmp/cc22aJg9.s:3624   .debug_str:00000000000007b0 .LASF23
     /tmp/cc22aJg9.s:3508   .debug_str:0000000000000437 .LASF135
     /tmp/cc22aJg9.s:3418   .debug_str:00000000000001df .LASF24
     /tmp/cc22aJg9.s:3402   .debug_str:0000000000000151 .LASF26
     /tmp/cc22aJg9.s:3556   .debug_str:0000000000000568 .LASF136
     /tmp/cc22aJg9.s:3460   .debug_str:00000000000002f4 .LASF137
     /tmp/cc22aJg9.s:3490   .debug_str:00000000000003d6 .LASF25
     /tmp/cc22aJg9.s:3384   .debug_str:00000000000000a7 .LASF27
     /tmp/cc22aJg9.s:3582   .debug_str:00000000000005fd .LASF32
     /tmp/cc22aJg9.s:3496   .debug_str:00000000000003f3 .LASF34
     /tmp/cc22aJg9.s:3448   .debug_str:00000000000002a6 .LASF28
     /tmp/cc22aJg9.s:3368   .debug_str:0000000000000030 .LASF29
     /tmp/cc22aJg9.s:3362   .debug_str:0000000000000015 .LASF30
     /tmp/cc22aJg9.s:3506   .debug_str:0000000000000425 .LASF31
     /tmp/cc22aJg9.s:3542   .debug_str:000000000000051b .LASF33
     /tmp/cc22aJg9.s:3390   .debug_str:00000000000000f8 .LASF35
     /tmp/cc22aJg9.s:3478   .debug_str:000000000000038f .LASF36
     /tmp/cc22aJg9.s:3612   .debug_str:000000000000075f .LASF37
     /tmp/cc22aJg9.s:3590   .debug_str:0000000000000626 .LASF38
     /tmp/cc22aJg9.s:3514   .debug_str:0000000000000454 .LASF39
     /tmp/cc22aJg9.s:3382   .debug_str:000000000000009c .LASF40
     /tmp/cc22aJg9.s:3428   .debug_str:0000000000000219 .LASF41
     /tmp/cc22aJg9.s:3630   .debug_str:00000000000007df .LASF42
     /tmp/cc22aJg9.s:3476   .debug_str:0000000000000389 .LASF43
     /tmp/cc22aJg9.s:3544   .debug_str:0000000000000525 .LASF44
     /tmp/cc22aJg9.s:3634   .debug_str:00000000000007f6 .LASF71
     /tmp/cc22aJg9.s:3558   .debug_str:000000000000056d .LASF46
     /tmp/cc22aJg9.s:3640   .debug_str:0000000000000829 .LASF47
     /tmp/cc22aJg9.s:3602   .debug_str:0000000000000719 .LASF48
     /tmp/cc22aJg9.s:3358   .debug_str:0000000000000000 .LASF49
     /tmp/cc22aJg9.s:3504   .debug_str:000000000000041d .LASF50
     /tmp/cc22aJg9.s:3596   .debug_str:0000000000000700 .LASF51
     /tmp/cc22aJg9.s:3392   .debug_str:000000000000010d .LASF138
     /tmp/cc22aJg9.s:3370   .debug_str:0000000000000040 .LASF139
     /tmp/cc22aJg9.s:3472   .debug_str:0000000000000365 .LASF140
     /tmp/cc22aJg9.s:3604   .debug_str:0000000000000721 .LASF141
     /tmp/cc22aJg9.s:3516   .debug_str:0000000000000461 .LASF126
     /tmp/cc22aJg9.s:3410   .debug_str:000000000000019e .LASF128
     /tmp/cc22aJg9.s:3618   .debug_str:000000000000078a .LASF52
     /tmp/cc22aJg9.s:3610   .debug_str:000000000000075a .LASF142
     /tmp/cc22aJg9.s:3566   .debug_str:00000000000005b2 .LASF53
     /tmp/cc22aJg9.s:3500   .debug_str:0000000000000413 .LASF54
     /tmp/cc22aJg9.s:3494   .debug_str:00000000000003ee .LASF55
     /tmp/cc22aJg9.s:3562   .debug_str:000000000000058c .LASF56
     /tmp/cc22aJg9.s:3468   .debug_str:000000000000034e .LASF57
     /tmp/cc22aJg9.s:3388   .debug_str:00000000000000db .LASF58
     /tmp/cc22aJg9.s:3552   .debug_str:0000000000000554 .LASF59
     /tmp/cc22aJg9.s:3462   .debug_str:0000000000000303 .LASF60
     /tmp/cc22aJg9.s:3412   .debug_str:00000000000001b9 .LASF61
     /tmp/cc22aJg9.s:3534   .debug_str:00000000000004f4 .LASF62
     /tmp/cc22aJg9.s:3420   .debug_str:00000000000001e8 .LASF63
GAS LISTING /tmp/cc22aJg9.s 			page 27


     /tmp/cc22aJg9.s:3638   .debug_str:000000000000081a .LASF64
     /tmp/cc22aJg9.s:3578   .debug_str:00000000000005ee .LASF65
     /tmp/cc22aJg9.s:3398   .debug_str:0000000000000137 .LASF66
     /tmp/cc22aJg9.s:3502   .debug_str:0000000000000418 .LASF67
     /tmp/cc22aJg9.s:3608   .debug_str:000000000000074b .LASF68
     /tmp/cc22aJg9.s:3372   .debug_str:0000000000000056 .LASF69
     /tmp/cc22aJg9.s:3380   .debug_str:000000000000008c .LASF70
     /tmp/cc22aJg9.s:3374   .debug_str:000000000000005c .LASF72
     /tmp/cc22aJg9.s:3620   .debug_str:0000000000000794 .LASF73
     /tmp/cc22aJg9.s:3606   .debug_str:000000000000073e .LASF74
     /tmp/cc22aJg9.s:3568   .debug_str:00000000000005b7 .LASF143
     /tmp/cc22aJg9.s:3646   .debug_str:0000000000000843 .LASF75
     /tmp/cc22aJg9.s:3430   .debug_str:000000000000021e .LASF76
     /tmp/cc22aJg9.s:3564   .debug_str:000000000000059f .LASF77
     /tmp/cc22aJg9.s:3520   .debug_str:0000000000000477 .LASF78
     /tmp/cc22aJg9.s:3586   .debug_str:000000000000060d .LASF79
     /tmp/cc22aJg9.s:3522   .debug_str:0000000000000492 .LASF80
     /tmp/cc22aJg9.s:3416   .debug_str:00000000000001cf .LASF81
     /tmp/cc22aJg9.s:3400   .debug_str:0000000000000148 .LASF82
     /tmp/cc22aJg9.s:3404   .debug_str:0000000000000164 .LASF83
     /tmp/cc22aJg9.s:3498   .debug_str:000000000000040a .LASF84
     /tmp/cc22aJg9.s:3588   .debug_str:000000000000061b .LASF85
     /tmp/cc22aJg9.s:3632   .debug_str:00000000000007eb .LASF86
     /tmp/cc22aJg9.s:3576   .debug_str:00000000000005e6 .LASF87
     /tmp/cc22aJg9.s:3600   .debug_str:0000000000000711 .LASF88
     /tmp/cc22aJg9.s:3616   .debug_str:0000000000000781 .LASF89
     /tmp/cc22aJg9.s:3628   .debug_str:00000000000007d9 .LASF90
     /tmp/cc22aJg9.s:3484   .debug_str:00000000000003b5 .LASF91
     /tmp/cc22aJg9.s:3574   .debug_str:00000000000005dd .LASF92
     /tmp/cc22aJg9.s:819    .text:0000000000000274 .LFB33
     /tmp/cc22aJg9.s:864    .text:000000000000029c .LFE33
     /tmp/cc22aJg9.s:838    .text:0000000000000284 .LBB56
     /tmp/cc22aJg9.s:855    .text:0000000000000290 .LBE56
     /tmp/cc22aJg9.s:3010   .debug_loc:0000000000000000 .LLST33
     /tmp/cc22aJg9.s:3584   .debug_str:0000000000000608 .LASF93
     /tmp/cc22aJg9.s:3452   .debug_str:00000000000002b9 .LASF94
     /tmp/cc22aJg9.s:3614   .debug_str:0000000000000778 .LASF96
     /tmp/cc22aJg9.s:764    .text:0000000000000248 .LFB32
     /tmp/cc22aJg9.s:813    .text:0000000000000274 .LFE32
     /tmp/cc22aJg9.s:3019   .debug_loc:0000000000000025 .LLST31
     /tmp/cc22aJg9.s:775    .text:0000000000000254 .LBB54
     /tmp/cc22aJg9.s:792    .text:0000000000000260 .LBE54
     /tmp/cc22aJg9.s:3026   .debug_loc:0000000000000048 .LLST32
     /tmp/cc22aJg9.s:3538   .debug_str:0000000000000502 .LASF95
     /tmp/cc22aJg9.s:3378   .debug_str:000000000000007c .LASF97
     /tmp/cc22aJg9.s:701    .text:0000000000000218 .LFB31
     /tmp/cc22aJg9.s:758    .text:0000000000000248 .LFE31
     /tmp/cc22aJg9.s:3512   .debug_str:000000000000044f .LASF98
     /tmp/cc22aJg9.s:3035   .debug_loc:000000000000006d .LLST28
     /tmp/cc22aJg9.s:3049   .debug_loc:00000000000000a6 .LLST29
     /tmp/cc22aJg9.s:720    .text:0000000000000228 .LBB52
     /tmp/cc22aJg9.s:737    .text:0000000000000234 .LBE52
     /tmp/cc22aJg9.s:3056   .debug_loc:00000000000000c9 .LLST30
     /tmp/cc22aJg9.s:3444   .debug_str:0000000000000292 .LASF99
     /tmp/cc22aJg9.s:3376   .debug_str:0000000000000068 .LASF100
     /tmp/cc22aJg9.s:638    .text:00000000000001e8 .LFB30
     /tmp/cc22aJg9.s:695    .text:0000000000000218 .LFE30
GAS LISTING /tmp/cc22aJg9.s 			page 28


     /tmp/cc22aJg9.s:3065   .debug_loc:00000000000000ee .LLST25
     /tmp/cc22aJg9.s:3079   .debug_loc:0000000000000127 .LLST26
     /tmp/cc22aJg9.s:657    .text:00000000000001f8 .LBB50
     /tmp/cc22aJg9.s:674    .text:0000000000000204 .LBE50
     /tmp/cc22aJg9.s:3086   .debug_loc:000000000000014a .LLST27
     /tmp/cc22aJg9.s:3554   .debug_str:000000000000055f .LASF101
     /tmp/cc22aJg9.s:3414   .debug_str:00000000000001be .LASF102
     /tmp/cc22aJg9.s:575    .text:00000000000001b8 .LFB29
     /tmp/cc22aJg9.s:632    .text:00000000000001e8 .LFE29
     /tmp/cc22aJg9.s:3095   .debug_loc:000000000000016f .LLST22
     /tmp/cc22aJg9.s:3109   .debug_loc:00000000000001a8 .LLST23
     /tmp/cc22aJg9.s:594    .text:00000000000001c8 .LBB48
     /tmp/cc22aJg9.s:611    .text:00000000000001d4 .LBE48
     /tmp/cc22aJg9.s:3116   .debug_loc:00000000000001cb .LLST24
     /tmp/cc22aJg9.s:3528   .debug_str:00000000000004ae .LASF103
     /tmp/cc22aJg9.s:3432   .debug_str:0000000000000227 .LASF104
     /tmp/cc22aJg9.s:512    .text:0000000000000188 .LFB28
     /tmp/cc22aJg9.s:569    .text:00000000000001b8 .LFE28
     /tmp/cc22aJg9.s:3626   .debug_str:00000000000007d2 .LASF105
     /tmp/cc22aJg9.s:3125   .debug_loc:00000000000001f0 .LLST19
     /tmp/cc22aJg9.s:3139   .debug_loc:0000000000000229 .LLST20
     /tmp/cc22aJg9.s:531    .text:0000000000000198 .LBB46
     /tmp/cc22aJg9.s:548    .text:00000000000001a4 .LBE46
     /tmp/cc22aJg9.s:3146   .debug_loc:000000000000024c .LLST21
     /tmp/cc22aJg9.s:3536   .debug_str:00000000000004f9 .LASF106
     /tmp/cc22aJg9.s:3456   .debug_str:00000000000002cf .LASF107
     /tmp/cc22aJg9.s:444    .text:0000000000000154 .LFB27
     /tmp/cc22aJg9.s:506    .text:0000000000000188 .LFE27
     /tmp/cc22aJg9.s:3155   .debug_loc:0000000000000271 .LLST16
     /tmp/cc22aJg9.s:3524   .debug_str:000000000000049e .LASF108
     /tmp/cc22aJg9.s:3169   .debug_loc:00000000000002aa .LLST17
     /tmp/cc22aJg9.s:468    .text:0000000000000168 .LBB44
     /tmp/cc22aJg9.s:485    .text:0000000000000174 .LBE44
     /tmp/cc22aJg9.s:3176   .debug_loc:00000000000002cd .LLST18
     /tmp/cc22aJg9.s:3532   .debug_str:00000000000004e4 .LASF109
     /tmp/cc22aJg9.s:3622   .debug_str:000000000000079b .LASF110
     /tmp/cc22aJg9.s:401    .text:0000000000000130 .LFB26
     /tmp/cc22aJg9.s:438    .text:0000000000000154 .LFE26
     /tmp/cc22aJg9.s:412    .text:000000000000013c .LBB42
     /tmp/cc22aJg9.s:429    .text:0000000000000148 .LBE42
     /tmp/cc22aJg9.s:3185   .debug_loc:00000000000002f2 .LLST15
     /tmp/cc22aJg9.s:3482   .debug_str:00000000000003a9 .LASF111
     /tmp/cc22aJg9.s:3454   .debug_str:00000000000002be .LASF112
     /tmp/cc22aJg9.s:346    .text:0000000000000104 .LFB25
     /tmp/cc22aJg9.s:395    .text:0000000000000130 .LFE25
     /tmp/cc22aJg9.s:3193   .debug_loc:0000000000000316 .LLST13
     /tmp/cc22aJg9.s:357    .text:0000000000000110 .LBB40
     /tmp/cc22aJg9.s:374    .text:000000000000011c .LBE40
     /tmp/cc22aJg9.s:3200   .debug_loc:0000000000000339 .LLST14
     /tmp/cc22aJg9.s:3594   .debug_str:00000000000006f2 .LASF113
     /tmp/cc22aJg9.s:3436   .debug_str:0000000000000249 .LASF114
     /tmp/cc22aJg9.s:273    .text:00000000000000cc .LFB24
     /tmp/cc22aJg9.s:340    .text:0000000000000104 .LFE24
     /tmp/cc22aJg9.s:3208   .debug_loc:000000000000035d .LLST10
     /tmp/cc22aJg9.s:3470   .debug_str:0000000000000357 .LASF115
     /tmp/cc22aJg9.s:3222   .debug_loc:0000000000000396 .LLST11
     /tmp/cc22aJg9.s:302    .text:00000000000000e4 .LBB38
GAS LISTING /tmp/cc22aJg9.s 			page 29


     /tmp/cc22aJg9.s:319    .text:00000000000000f0 .LBE38
     /tmp/cc22aJg9.s:3229   .debug_loc:00000000000003b9 .LLST12
     /tmp/cc22aJg9.s:3466   .debug_str:0000000000000333 .LASF116
     /tmp/cc22aJg9.s:3406   .debug_str:000000000000016e .LASF117
     /tmp/cc22aJg9.s:220    .text:00000000000000a4 .LFB23
     /tmp/cc22aJg9.s:267    .text:00000000000000cc .LFE23
     /tmp/cc22aJg9.s:231    .text:00000000000000b0 .LBB36
     /tmp/cc22aJg9.s:248    .text:00000000000000bc .LBE36
     /tmp/cc22aJg9.s:3237   .debug_loc:00000000000003dd .LLST9
     /tmp/cc22aJg9.s:3550   .debug_str:0000000000000541 .LASF118
     /tmp/cc22aJg9.s:3386   .debug_str:00000000000000c3 .LASF119
     /tmp/cc22aJg9.s:167    .text:000000000000007c .LFB22
     /tmp/cc22aJg9.s:214    .text:00000000000000a4 .LFE22
     /tmp/cc22aJg9.s:178    .text:0000000000000088 .LBB34
     /tmp/cc22aJg9.s:195    .text:0000000000000094 .LBE34
     /tmp/cc22aJg9.s:3245   .debug_loc:0000000000000401 .LLST8
     /tmp/cc22aJg9.s:3446   .debug_str:000000000000029d .LASF120
     /tmp/cc22aJg9.s:3636   .debug_str:000000000000080c .LASF121
     /tmp/cc22aJg9.s:90     .text:0000000000000040 .LFB21
     /tmp/cc22aJg9.s:161    .text:000000000000007c .LFE21
     /tmp/cc22aJg9.s:3253   .debug_loc:0000000000000425 .LLST4
     /tmp/cc22aJg9.s:3278   .debug_loc:0000000000000487 .LLST5
     /tmp/cc22aJg9.s:3292   .debug_loc:00000000000004c0 .LLST6
     /tmp/cc22aJg9.s:113    .text:0000000000000054 .LBB32
     /tmp/cc22aJg9.s:130    .text:0000000000000060 .LBE32
     /tmp/cc22aJg9.s:3299   .debug_loc:00000000000004e3 .LLST7
     /tmp/cc22aJg9.s:3488   .debug_str:00000000000003cc .LASF122
     /tmp/cc22aJg9.s:3442   .debug_str:0000000000000284 .LASF123
     /tmp/cc22aJg9.s:10     .text:0000000000000000 .LFB20
     /tmp/cc22aJg9.s:84     .text:0000000000000040 .LFE20
     /tmp/cc22aJg9.s:3307   .debug_loc:0000000000000507 .LLST0
     /tmp/cc22aJg9.s:3598   .debug_str:000000000000070a .LASF124
     /tmp/cc22aJg9.s:3321   .debug_loc:0000000000000540 .LLST1
     /tmp/cc22aJg9.s:3492   .debug_str:00000000000003e7 .LASF125
     /tmp/cc22aJg9.s:3328   .debug_loc:0000000000000563 .LLST2
     /tmp/cc22aJg9.s:47     .text:0000000000000024 .LBB30
     /tmp/cc22aJg9.s:65     .text:0000000000000030 .LBE30
     /tmp/cc22aJg9.s:3335   .debug_loc:0000000000000586 .LLST3
     /tmp/cc22aJg9.s:3424   .debug_str:0000000000000203 .LASF127
     /tmp/cc22aJg9.s:3526   .debug_str:00000000000004a3 .LASF129
     /tmp/cc22aJg9.s:3644   .debug_str:000000000000083c .LASF144
     /tmp/cc22aJg9.s:836    .text:0000000000000284 .LVL64
     /tmp/cc22aJg9.s:852    .text:0000000000000290 .LVL65
     /tmp/cc22aJg9.s:800    .text:0000000000000264 .LVL61
     /tmp/cc22aJg9.s:805    .text:0000000000000268 .LVL62
     /tmp/cc22aJg9.s:774    .text:0000000000000254 .LVL59
     /tmp/cc22aJg9.s:789    .text:0000000000000260 .LVL60
     /tmp/cc22aJg9.s:704    .text:0000000000000218 .LVL54
     /tmp/cc22aJg9.s:745    .text:0000000000000238 .LVL57
     /tmp/cc22aJg9.s:750    .text:000000000000023c .LVL58
     /tmp/cc22aJg9.s:718    .text:0000000000000228 .LVL55
     /tmp/cc22aJg9.s:734    .text:0000000000000234 .LVL56
     /tmp/cc22aJg9.s:641    .text:00000000000001e8 .LVL49
     /tmp/cc22aJg9.s:682    .text:0000000000000208 .LVL52
     /tmp/cc22aJg9.s:687    .text:000000000000020c .LVL53
     /tmp/cc22aJg9.s:655    .text:00000000000001f8 .LVL50
     /tmp/cc22aJg9.s:671    .text:0000000000000204 .LVL51
GAS LISTING /tmp/cc22aJg9.s 			page 30


     /tmp/cc22aJg9.s:578    .text:00000000000001b8 .LVL44
     /tmp/cc22aJg9.s:619    .text:00000000000001d8 .LVL47
     /tmp/cc22aJg9.s:624    .text:00000000000001dc .LVL48
     /tmp/cc22aJg9.s:592    .text:00000000000001c8 .LVL45
     /tmp/cc22aJg9.s:608    .text:00000000000001d4 .LVL46
     /tmp/cc22aJg9.s:515    .text:0000000000000188 .LVL39
     /tmp/cc22aJg9.s:556    .text:00000000000001a8 .LVL42
     /tmp/cc22aJg9.s:561    .text:00000000000001ac .LVL43
     /tmp/cc22aJg9.s:529    .text:0000000000000198 .LVL40
     /tmp/cc22aJg9.s:545    .text:00000000000001a4 .LVL41
     /tmp/cc22aJg9.s:447    .text:0000000000000154 .LVL34
     /tmp/cc22aJg9.s:493    .text:0000000000000178 .LVL37
     /tmp/cc22aJg9.s:498    .text:000000000000017c .LVL38
     /tmp/cc22aJg9.s:466    .text:0000000000000168 .LVL35
     /tmp/cc22aJg9.s:482    .text:0000000000000174 .LVL36
     /tmp/cc22aJg9.s:411    .text:000000000000013c .LVL32
     /tmp/cc22aJg9.s:426    .text:0000000000000148 .LVL33
     /tmp/cc22aJg9.s:382    .text:0000000000000120 .LVL30
     /tmp/cc22aJg9.s:387    .text:0000000000000124 .LVL31
     /tmp/cc22aJg9.s:356    .text:0000000000000110 .LVL28
     /tmp/cc22aJg9.s:371    .text:000000000000011c .LVL29
     /tmp/cc22aJg9.s:276    .text:00000000000000cc .LVL23
     /tmp/cc22aJg9.s:327    .text:00000000000000f4 .LVL26
     /tmp/cc22aJg9.s:332    .text:00000000000000f8 .LVL27
     /tmp/cc22aJg9.s:300    .text:00000000000000e4 .LVL24
     /tmp/cc22aJg9.s:316    .text:00000000000000f0 .LVL25
     /tmp/cc22aJg9.s:230    .text:00000000000000b0 .LVL20
     /tmp/cc22aJg9.s:245    .text:00000000000000bc .LVL21
     /tmp/cc22aJg9.s:177    .text:0000000000000088 .LVL17
     /tmp/cc22aJg9.s:192    .text:0000000000000094 .LVL18
     /tmp/cc22aJg9.s:93     .text:0000000000000040 .LVL9
     /tmp/cc22aJg9.s:138    .text:0000000000000064 .LVL13
     /tmp/cc22aJg9.s:153    .text:0000000000000074 .LVL15
     /tmp/cc22aJg9.s:158    .text:0000000000000078 .LVL16
     /tmp/cc22aJg9.s:103    .text:0000000000000050 .LVL10
     /tmp/cc22aJg9.s:143    .text:0000000000000068 .LVL14
     /tmp/cc22aJg9.s:111    .text:0000000000000054 .LVL11
     /tmp/cc22aJg9.s:127    .text:0000000000000060 .LVL12
     /tmp/cc22aJg9.s:14     .text:0000000000000000 .LVL0
     /tmp/cc22aJg9.s:34     .text:000000000000001c .LVL3
     /tmp/cc22aJg9.s:24     .text:0000000000000010 .LVL1
     /tmp/cc22aJg9.s:52     .text:0000000000000028 .LVL6
     /tmp/cc22aJg9.s:37     .text:0000000000000020 .LVL4
     /tmp/cc22aJg9.s:73     .text:0000000000000034 .LVL8
     /tmp/cc22aJg9.s:45     .text:0000000000000024 .LVL5
     /tmp/cc22aJg9.s:62     .text:0000000000000030 .LVL7
     /tmp/cc22aJg9.s:873    .debug_info:0000000000000000 .Ldebug_info0

NO UNDEFINED SYMBOLS
