GAS LISTING /tmp/ccWCz7vD.s 			page 1


   1              		.file	"syscall_c.cpp"
   2              		.option pic
   3              		.option norelax
   4              		.text
   5              	.Ltext0:
   6              		.align	2
   7              		.globl	_Z9mem_allocm
   9              	_Z9mem_allocm:
  10              	.LFB0:
  11              		.file 1 "src/syscall_c.cpp"
   1:src/syscall_c.cpp **** //
   2:src/syscall_c.cpp **** // Created by os on 9/8/25.
   3:src/syscall_c.cpp **** //
   4:src/syscall_c.cpp **** #include "../h/syscall_c.hpp"
   5:src/syscall_c.cpp **** 
   6:src/syscall_c.cpp **** void* mem_alloc(size_t size) {
  12              		.loc 1 6 30
  13              		.cfi_startproc
  14              	.LVL0:
  15 0000 130101FF 		addi	sp,sp,-16
  16              		.cfi_def_cfa_offset 16
  17 0004 23348100 		sd	s0,8(sp)
  18              		.cfi_offset 8, -8
  19 0008 13040101 		addi	s0,sp,16
  20              		.cfi_def_cfa 8, 0
   7:src/syscall_c.cpp ****     size_t offset = size % MEM_BLOCK_SIZE;
  21              		.loc 1 7 5
  22              		.loc 1 7 12 is_stmt 0
  23 000c 9377F503 		andi	a5,a0,63
  24              	.LVL1:
   8:src/syscall_c.cpp ****     if (offset!=0)
  25              		.loc 1 8 5 is_stmt 1
  26 0010 63840700 		beqz	a5,.L2
   9:src/syscall_c.cpp ****         offset=1;
  27              		.loc 1 9 15 is_stmt 0
  28 0014 93071000 		li	a5,1
  29              	.LVL2:
  30              	.L2:
  10:src/syscall_c.cpp ****     size_t blocks=size/MEM_BLOCK_SIZE +offset;
  31              		.loc 1 10 5 is_stmt 1
  32              		.loc 1 10 23 is_stmt 0
  33 0018 13556500 		srli	a0,a0,6
  34              	.LVL3:
  35              		.loc 1 10 12
  36 001c 3305F500 		add	a0,a0,a5
  37              	.LVL4:
  11:src/syscall_c.cpp ****     uint64 opcode=MEM_ALLOC;
  38              		.loc 1 11 5 is_stmt 1
  12:src/syscall_c.cpp ****     __asm__ volatile ("mv a1, %[x]" :: [x] "r" (blocks));
  39              		.loc 1 12 5
  40              		.loc 1 12 57 is_stmt 0
  41              	#APP
  42              	# 12 "src/syscall_c.cpp" 1
  13              	    __asm__ volatile ("mv a0, %[x]" :: [x] "r" (opcode));
  43              		mv a1, a0
  44              	# 0 "" 2
  45              		.loc 1 13 5 is_stmt 1
GAS LISTING /tmp/ccWCz7vD.s 			page 2


  46              		.loc 1 13 57 is_stmt 0
  47              	#NO_APP
  48 0024 93071000 		li	a5,1
  49              	.LVL5:
  50              	#APP
  51              	# 13 "src/syscall_c.cpp" 1
  14              	    __asm__ volatile ("ecall");
  52              		mv a0, a5
  53              	# 0 "" 2
  54              		.loc 1 14 5 is_stmt 1
  55              		.loc 1 14 31 is_stmt 0
  56              	# 14 "src/syscall_c.cpp" 1
  15              	
  16:src/syscall_c.cpp ****     uint64 ret;
  57              		ecall
  58              	# 0 "" 2
  59              		.loc 1 16 5 is_stmt 1
  17:src/syscall_c.cpp ****     __asm__ volatile ("mv %[x], a0" : [x] "=r" (ret));
  60              		.loc 1 17 5
  61              		.loc 1 17 54 is_stmt 0
  62              	# 17 "src/syscall_c.cpp" 1
  18              	    return (void*)ret;
  63              		mv a0, a0
  64              	# 0 "" 2
  65              	.LVL6:
  66              		.loc 1 18 5 is_stmt 1
  19:src/syscall_c.cpp **** }
  67              		.loc 1 19 1 is_stmt 0
  68              	#NO_APP
  69 0034 03348100 		ld	s0,8(sp)
  70              		.cfi_restore 8
  71              		.cfi_def_cfa 2, 16
  72 0038 13010101 		addi	sp,sp,16
  73              		.cfi_def_cfa_offset 0
  74 003c 67800000 		jr	ra
  75              		.cfi_endproc
  76              	.LFE0:
  78              		.align	2
  79              		.globl	_Z8mem_freePv
  81              	_Z8mem_freePv:
  82              	.LFB1:
  20:src/syscall_c.cpp **** 
  21:src/syscall_c.cpp **** int mem_free(void* ptr) {
  83              		.loc 1 21 25 is_stmt 1
  84              		.cfi_startproc
  85              	.LVL7:
  86 0040 130101FF 		addi	sp,sp,-16
  87              		.cfi_def_cfa_offset 16
  88 0044 23348100 		sd	s0,8(sp)
  89              		.cfi_offset 8, -8
  90 0048 13040101 		addi	s0,sp,16
  91              		.cfi_def_cfa 8, 0
  22:src/syscall_c.cpp ****     if (ptr==nullptr) {
  92              		.loc 1 22 5
  93 004c 63040502 		beqz	a0,.L7
  23:src/syscall_c.cpp ****         return 0;
  24:src/syscall_c.cpp ****     }
GAS LISTING /tmp/ccWCz7vD.s 			page 3


  25:src/syscall_c.cpp ****     uint64 opcode=MEM_FREE;
  94              		.loc 1 25 5
  95              	.LVL8:
  26:src/syscall_c.cpp ****     __asm__ volatile ("mv a1, %[x]" :: [x] "r" (ptr));
  96              		.loc 1 26 5
  97              		.loc 1 26 54 is_stmt 0
  98              	#APP
  99              	# 26 "src/syscall_c.cpp" 1
  27              	    __asm__ volatile ("mv a0, %[x]" :: [x] "r" (opcode));
 100              		mv a1, a0
 101              	# 0 "" 2
 102              		.loc 1 27 5 is_stmt 1
 103              		.loc 1 27 57 is_stmt 0
 104              	#NO_APP
 105 0054 93072000 		li	a5,2
 106              	#APP
 107              	# 27 "src/syscall_c.cpp" 1
  28              	    __asm__ volatile ("ecall");
 108              		mv a0, a5
 109              	# 0 "" 2
 110              		.loc 1 28 5 is_stmt 1
 111              		.loc 1 28 31 is_stmt 0
 112              	# 28 "src/syscall_c.cpp" 1
  29              	    uint64 ret;
 113              		ecall
 114              	# 0 "" 2
 115              		.loc 1 29 5 is_stmt 1
  30:src/syscall_c.cpp ****     __asm__ volatile ("mv %[x], a0" : [x] "=r" (ret));
 116              		.loc 1 30 5
 117              		.loc 1 30 54 is_stmt 0
 118              	# 30 "src/syscall_c.cpp" 1
  31              	    return (int)ret;
 119              		mv a0, a0
 120              	# 0 "" 2
 121              	.LVL9:
 122              		.loc 1 31 5 is_stmt 1
 123              		.loc 1 31 17 is_stmt 0
 124              	#NO_APP
 125 0064 1B050500 		sext.w	a0,a0
 126              	.LVL10:
 127              	.L6:
  32:src/syscall_c.cpp **** }...
 128              		.loc 1 32 1
 129 0068 03348100 		ld	s0,8(sp)
 130              		.cfi_remember_state
 131              		.cfi_restore 8
 132              		.cfi_def_cfa 2, 16
 133 006c 13010101 		addi	sp,sp,16
 134              		.cfi_def_cfa_offset 0
 135 0070 67800000 		jr	ra
 136              	.LVL11:
 137              	.L7:
 138              		.cfi_restore_state
  23:src/syscall_c.cpp ****         return 0;
 139              		.loc 1 23 16
 140 0074 13050000 		li	a0,0
 141              	.LVL12:
GAS LISTING /tmp/ccWCz7vD.s 			page 4


 142 0078 6FF01FFF 		j	.L6
 143              		.cfi_endproc
 144              	.LFE1:
 146              	.Letext0:
 147              		.file 2 "src/../h/../lib/hw.h"
 148              		.file 3 "src/../h/syscall_c.hpp"
GAS LISTING /tmp/ccWCz7vD.s 			page 5


DEFINED SYMBOLS
                            *ABS*:0000000000000000 syscall_c.cpp
     /tmp/ccWCz7vD.s:9      .text:0000000000000000 _Z9mem_allocm
     /tmp/ccWCz7vD.s:13     .text:0000000000000000 .L0 
     /tmp/ccWCz7vD.s:15     .text:0000000000000000 .L0 
     /tmp/ccWCz7vD.s:16     .text:0000000000000004 .L0 
     /tmp/ccWCz7vD.s:18     .text:0000000000000008 .L0 
     /tmp/ccWCz7vD.s:20     .text:000000000000000c .L0 
     /tmp/ccWCz7vD.s:22     .text:000000000000000c .L0 
     /tmp/ccWCz7vD.s:23     .text:000000000000000c .L0 
     /tmp/ccWCz7vD.s:26     .text:0000000000000010 .L0 
     /tmp/ccWCz7vD.s:28     .text:0000000000000014 .L0 
     /tmp/ccWCz7vD.s:32     .text:0000000000000018 .L0 
     /tmp/ccWCz7vD.s:33     .text:0000000000000018 .L0 
     /tmp/ccWCz7vD.s:36     .text:000000000000001c .L0 
     /tmp/ccWCz7vD.s:39     .text:0000000000000020 .L0 
     /tmp/ccWCz7vD.s:40     .text:0000000000000020 .L0 
   src/syscall_c.cpp:12     .text:0000000000000020 .L0 
     /tmp/ccWCz7vD.s:46     .text:0000000000000024 .L0 
     /tmp/ccWCz7vD.s:48     .text:0000000000000024 .L0 
     /tmp/ccWCz7vD.s:55     .text:000000000000002c .L0 
   src/syscall_c.cpp:14     .text:000000000000002c .L0 
     /tmp/ccWCz7vD.s:60     .text:0000000000000030 .L0 
     /tmp/ccWCz7vD.s:61     .text:0000000000000030 .L0 
   src/syscall_c.cpp:17     .text:0000000000000030 .L0 
     /tmp/ccWCz7vD.s:67     .text:0000000000000034 .L0 
     /tmp/ccWCz7vD.s:69     .text:0000000000000034 .L0 
     /tmp/ccWCz7vD.s:70     .text:0000000000000038 .L0 
     /tmp/ccWCz7vD.s:71     .text:0000000000000038 .L0 
     /tmp/ccWCz7vD.s:73     .text:000000000000003c .L0 
     /tmp/ccWCz7vD.s:75     .text:0000000000000040 .L0 
     /tmp/ccWCz7vD.s:81     .text:0000000000000040 _Z8mem_freePv
     /tmp/ccWCz7vD.s:84     .text:0000000000000040 .L0 
     /tmp/ccWCz7vD.s:86     .text:0000000000000040 .L0 
     /tmp/ccWCz7vD.s:87     .text:0000000000000044 .L0 
     /tmp/ccWCz7vD.s:89     .text:0000000000000048 .L0 
     /tmp/ccWCz7vD.s:91     .text:000000000000004c .L0 
     /tmp/ccWCz7vD.s:93     .text:000000000000004c .L0 
     /tmp/ccWCz7vD.s:96     .text:0000000000000050 .L0 
     /tmp/ccWCz7vD.s:97     .text:0000000000000050 .L0 
   src/syscall_c.cpp:26     .text:0000000000000050 .L0 
     /tmp/ccWCz7vD.s:103    .text:0000000000000054 .L0 
     /tmp/ccWCz7vD.s:105    .text:0000000000000054 .L0 
     /tmp/ccWCz7vD.s:111    .text:000000000000005c .L0 
   src/syscall_c.cpp:28     .text:000000000000005c .L0 
     /tmp/ccWCz7vD.s:116    .text:0000000000000060 .L0 
     /tmp/ccWCz7vD.s:117    .text:0000000000000060 .L0 
   src/syscall_c.cpp:30     .text:0000000000000060 .L0 
     /tmp/ccWCz7vD.s:123    .text:0000000000000064 .L0 
     /tmp/ccWCz7vD.s:125    .text:0000000000000064 .L0 
     /tmp/ccWCz7vD.s:129    .text:0000000000000068 .L0 
     /tmp/ccWCz7vD.s:130    .text:000000000000006c .L0 
     /tmp/ccWCz7vD.s:131    .text:000000000000006c .L0 
     /tmp/ccWCz7vD.s:132    .text:000000000000006c .L0 
     /tmp/ccWCz7vD.s:134    .text:0000000000000070 .L0 
     /tmp/ccWCz7vD.s:138    .text:0000000000000074 .L0 
     /tmp/ccWCz7vD.s:140    .text:0000000000000074 .L0 
GAS LISTING /tmp/ccWCz7vD.s 			page 6


     /tmp/ccWCz7vD.s:143    .text:000000000000007c .L0 
     /tmp/ccWCz7vD.s:149    .text:000000000000007c .L0 
     /tmp/ccWCz7vD.s:30     .text:0000000000000018 .L2
     /tmp/ccWCz7vD.s:137    .text:0000000000000074 .L7
     /tmp/ccWCz7vD.s:127    .text:0000000000000068 .L6
     /tmp/ccWCz7vD.s:377    .debug_abbrev:0000000000000000 .Ldebug_abbrev0
     /tmp/ccWCz7vD.s:822    .debug_str:0000000000000171 .LASF23
     /tmp/ccWCz7vD.s:810    .debug_str:0000000000000108 .LASF24
     /tmp/ccWCz7vD.s:786    .debug_str:0000000000000061 .LASF25
     /tmp/ccWCz7vD.s:5      .text:0000000000000000 .Ltext0
     /tmp/ccWCz7vD.s:146    .text:000000000000007c .Letext0
     /tmp/ccWCz7vD.s:770    .debug_line:0000000000000000 .Ldebug_line0
     /tmp/ccWCz7vD.s:772    .debug_str:0000000000000000 .LASF0
     /tmp/ccWCz7vD.s:820    .debug_str:000000000000015e .LASF1
     /tmp/ccWCz7vD.s:802    .debug_str:00000000000000d4 .LASF2
     /tmp/ccWCz7vD.s:790    .debug_str:00000000000000a0 .LASF4
     /tmp/ccWCz7vD.s:784    .debug_str:000000000000004f .LASF3
     /tmp/ccWCz7vD.s:778    .debug_str:000000000000002a .LASF5
     /tmp/ccWCz7vD.s:788    .debug_str:000000000000008d .LASF6
     /tmp/ccWCz7vD.s:818    .debug_str:000000000000014b .LASF7
     /tmp/ccWCz7vD.s:828    .debug_str:0000000000000249 .LASF8
     /tmp/ccWCz7vD.s:774    .debug_str:000000000000000d .LASF9
     /tmp/ccWCz7vD.s:776    .debug_str:000000000000001b .LASF10
     /tmp/ccWCz7vD.s:824    .debug_str:0000000000000235 .LASF11
     /tmp/ccWCz7vD.s:780    .debug_str:0000000000000031 .LASF12
     /tmp/ccWCz7vD.s:832    .debug_str:0000000000000263 .LASF13
     /tmp/ccWCz7vD.s:800    .debug_str:00000000000000c8 .LASF14
     /tmp/ccWCz7vD.s:814    .debug_str:0000000000000128 .LASF15
     /tmp/ccWCz7vD.s:808    .debug_str:00000000000000f2 .LASF16
     /tmp/ccWCz7vD.s:816    .debug_str:000000000000013e .LASF26
     /tmp/ccWCz7vD.s:794    .debug_str:00000000000000ae .LASF17
     /tmp/ccWCz7vD.s:804    .debug_str:00000000000000e2 .LASF18
     /tmp/ccWCz7vD.s:798    .debug_str:00000000000000bf .LASF27
     /tmp/ccWCz7vD.s:812    .debug_str:000000000000011a .LASF28
     /tmp/ccWCz7vD.s:82     .text:0000000000000040 .LFB1
     /tmp/ccWCz7vD.s:144    .text:000000000000007c .LFE1
     /tmp/ccWCz7vD.s:689    .debug_loc:0000000000000000 .LLST3
     /tmp/ccWCz7vD.s:806    .debug_str:00000000000000eb .LASF19
     /tmp/ccWCz7vD.s:714    .debug_loc:0000000000000062 .LLST4
     /tmp/ccWCz7vD.s:722    .debug_loc:0000000000000086 .LLST5
     /tmp/ccWCz7vD.s:830    .debug_str:0000000000000259 .LASF29
     /tmp/ccWCz7vD.s:782    .debug_str:0000000000000041 .LASF30
     /tmp/ccWCz7vD.s:10     .text:0000000000000000 .LFB0
     /tmp/ccWCz7vD.s:76     .text:0000000000000040 .LFE0
     /tmp/ccWCz7vD.s:826    .debug_str:0000000000000244 .LASF20
     /tmp/ccWCz7vD.s:729    .debug_loc:00000000000000a9 .LLST0
     /tmp/ccWCz7vD.s:792    .debug_str:00000000000000a7 .LASF21
     /tmp/ccWCz7vD.s:743    .debug_loc:00000000000000e2 .LLST1
     /tmp/ccWCz7vD.s:796    .debug_str:00000000000000b8 .LASF22
     /tmp/ccWCz7vD.s:750    .debug_loc:0000000000000105 .LLST2
     /tmp/ccWCz7vD.s:85     .text:0000000000000040 .LVL7
     /tmp/ccWCz7vD.s:121    .text:0000000000000064 .LVL9
     /tmp/ccWCz7vD.s:136    .text:0000000000000074 .LVL11
     /tmp/ccWCz7vD.s:141    .text:0000000000000078 .LVL12
     /tmp/ccWCz7vD.s:95     .text:0000000000000050 .LVL8
     /tmp/ccWCz7vD.s:126    .text:0000000000000068 .LVL10
     /tmp/ccWCz7vD.s:14     .text:0000000000000000 .LVL0
GAS LISTING /tmp/ccWCz7vD.s 			page 7


     /tmp/ccWCz7vD.s:34     .text:000000000000001c .LVL3
     /tmp/ccWCz7vD.s:24     .text:0000000000000010 .LVL1
     /tmp/ccWCz7vD.s:49     .text:0000000000000028 .LVL5
     /tmp/ccWCz7vD.s:37     .text:0000000000000020 .LVL4
     /tmp/ccWCz7vD.s:65     .text:0000000000000034 .LVL6
     /tmp/ccWCz7vD.s:150    .debug_info:0000000000000000 .Ldebug_info0

NO UNDEFINED SYMBOLS
