GAS LISTING /tmp/ccnbgogl.s 			page 1


   1              		.file	"syscall_cpp.cpp"
   2              		.option pic
   3              		.option norelax
   4              		.text
   5              	.Ltext0:
   6              		.section	.text._ZN6Thread3runEv,"axG",@progbits,_ZN6Thread3runEv,comdat
   7              		.align	2
   8              		.weak	_ZN6Thread3runEv
  10              	_ZN6Thread3runEv:
  11              	.LFB19:
  12              		.file 1 "src/../h/syscall_cpp.hpp"
   1:src/../h/syscall_cpp.hpp **** //
   2:src/../h/syscall_cpp.hpp **** // Created by os on 9/8/25.
   3:src/../h/syscall_cpp.hpp **** //
   4:src/../h/syscall_cpp.hpp **** 
   5:src/../h/syscall_cpp.hpp **** #ifndef PROJECT_BASE_V1_1_COPY_SYSCALL_CPP_HPP
   6:src/../h/syscall_cpp.hpp **** #define PROJECT_BASE_V1_1_COPY_SYSCALL_CPP_HPP
   7:src/../h/syscall_cpp.hpp **** #include "../lib/hw.h"
   8:src/../h/syscall_cpp.hpp **** #include "TCB.hpp"
   9:src/../h/syscall_cpp.hpp **** #include "SEM.hpp"
  10:src/../h/syscall_cpp.hpp **** 
  11:src/../h/syscall_cpp.hpp **** typedef TCB* thread_t;
  12:src/../h/syscall_cpp.hpp **** typedef SEM* sem_t;
  13:src/../h/syscall_cpp.hpp **** 
  14:src/../h/syscall_cpp.hpp **** 
  15:src/../h/syscall_cpp.hpp **** void* operator new (size_t);
  16:src/../h/syscall_cpp.hpp **** void operator delete (void*);
  17:src/../h/syscall_cpp.hpp **** 
  18:src/../h/syscall_cpp.hpp **** 
  19:src/../h/syscall_cpp.hpp **** class Thread {
  20:src/../h/syscall_cpp.hpp **** public:
  21:src/../h/syscall_cpp.hpp ****     Thread (void (*body)(void*), void* arg);
  22:src/../h/syscall_cpp.hpp ****     virtual ~Thread ();
  23:src/../h/syscall_cpp.hpp ****     int start ();
  24:src/../h/syscall_cpp.hpp ****     static void dispatch ();
  25:src/../h/syscall_cpp.hpp ****     //static int sleep (time_t);
  26:src/../h/syscall_cpp.hpp **** protected:
  27:src/../h/syscall_cpp.hpp ****     Thread ();
  28:src/../h/syscall_cpp.hpp ****     virtual void run () {}
  13              		.loc 1 28 18
  14              		.cfi_startproc
  15              	.LVL0:
  16 0000 130101FF 		addi	sp,sp,-16
  17              		.cfi_def_cfa_offset 16
  18 0004 23348100 		sd	s0,8(sp)
  19              		.cfi_offset 8, -8
  20 0008 13040101 		addi	s0,sp,16
  21              		.cfi_def_cfa 8, 0
  22              		.loc 1 28 26 is_stmt 0
  23 000c 03348100 		ld	s0,8(sp)
  24              		.cfi_restore 8
  25              		.cfi_def_cfa 2, 16
  26 0010 13010101 		addi	sp,sp,16
  27              		.cfi_def_cfa_offset 0
  28 0014 67800000 		jr	ra
  29              		.cfi_endproc
  30              	.LFE19:
GAS LISTING /tmp/ccnbgogl.s 			page 2


  32              		.text
  33              		.align	2
  34              		.globl	_ZN6Thread7wrapperEPv
  36              	_ZN6Thread7wrapperEPv:
  37              	.LFB34:
  38              		.file 2 "src/syscall_cpp.cpp"
   1:src/syscall_cpp.cpp **** //
   2:src/syscall_cpp.cpp **** // Created by os on 9/8/25.
   3:src/syscall_cpp.cpp **** //
   4:src/syscall_cpp.cpp **** #include "../h/syscall_cpp.hpp"
   5:src/syscall_cpp.cpp **** #include "../h/syscall_c.hpp"
   6:src/syscall_cpp.cpp **** 
   7:src/syscall_cpp.cpp **** void* operator new(size_t size)
   8:src/syscall_cpp.cpp **** {
   9:src/syscall_cpp.cpp ****     return mem_alloc(size);
  10:src/syscall_cpp.cpp **** }
  11:src/syscall_cpp.cpp **** 
  12:src/syscall_cpp.cpp **** void operator delete(void* ptr)
  13:src/syscall_cpp.cpp **** {
  14:src/syscall_cpp.cpp ****     mem_free(ptr);
  15:src/syscall_cpp.cpp **** }
  16:src/syscall_cpp.cpp **** 
  17:src/syscall_cpp.cpp **** Thread::Thread(void (*body)(void *), void *arg) {
  18:src/syscall_cpp.cpp ****     myHandle= nullptr;
  19:src/syscall_cpp.cpp ****     this->body=body;
  20:src/syscall_cpp.cpp ****     this->arg=arg;
  21:src/syscall_cpp.cpp **** }
  22:src/syscall_cpp.cpp **** void Thread::dispatch() {
  23:src/syscall_cpp.cpp ****     thread_dispatch();
  24:src/syscall_cpp.cpp **** }
  25:src/syscall_cpp.cpp **** Thread::Thread() {
  26:src/syscall_cpp.cpp ****     myHandle=nullptr;
  27:src/syscall_cpp.cpp ****     body=nullptr;
  28:src/syscall_cpp.cpp ****     arg=nullptr;
  29:src/syscall_cpp.cpp **** }
  30:src/syscall_cpp.cpp **** Thread::~Thread() {
  31:src/syscall_cpp.cpp ****     delete myHandle;
  32:src/syscall_cpp.cpp **** }
  33:src/syscall_cpp.cpp **** 
  34:src/syscall_cpp.cpp **** int Thread::start() {
  35:src/syscall_cpp.cpp ****     int ret=0;
  36:src/syscall_cpp.cpp ****     if(body!=nullptr)
  37:src/syscall_cpp.cpp ****     {
  38:src/syscall_cpp.cpp ****         ret = thread_create(&myHandle, body, arg);
  39:src/syscall_cpp.cpp ****     }
  40:src/syscall_cpp.cpp ****     else if(body== nullptr)
  41:src/syscall_cpp.cpp ****     {
  42:src/syscall_cpp.cpp ****         ret = thread_create(&myHandle, wrapper, (void*)this);
  43:src/syscall_cpp.cpp ****     }
  44:src/syscall_cpp.cpp ****     return ret;
  45:src/syscall_cpp.cpp **** }
  46:src/syscall_cpp.cpp **** void Thread::wrapper(void* ptr)
  47:src/syscall_cpp.cpp **** {
  39              		.loc 2 47 1 is_stmt 1
  40              		.cfi_startproc
  41              	.LVL1:
  42 0000 130101FF 		addi	sp,sp,-16
GAS LISTING /tmp/ccnbgogl.s 			page 3


  43              		.cfi_def_cfa_offset 16
  44 0004 23341100 		sd	ra,8(sp)
  45 0008 23308100 		sd	s0,0(sp)
  46              		.cfi_offset 1, -8
  47              		.cfi_offset 8, -16
  48 000c 13040101 		addi	s0,sp,16
  49              		.cfi_def_cfa 8, 0
  48:src/syscall_cpp.cpp ****     ((Thread*)ptr)->run();
  50              		.loc 2 48 5
  51              		.loc 2 48 25 is_stmt 0
  52 0010 83370500 		ld	a5,0(a0)
  53 0014 83B70701 		ld	a5,16(a5)
  54              		.loc 2 48 24
  55 0018 E7800700 		jalr	a5
  56              	.LVL2:
  49:src/syscall_cpp.cpp **** }
  57              		.loc 2 49 1
  58 001c 83308100 		ld	ra,8(sp)
  59              		.cfi_restore 1
  60 0020 03340100 		ld	s0,0(sp)
  61              		.cfi_restore 8
  62              		.cfi_def_cfa 2, 16
  63 0024 13010101 		addi	sp,sp,16
  64              		.cfi_def_cfa_offset 0
  65 0028 67800000 		jr	ra
  66              		.cfi_endproc
  67              	.LFE34:
  69              		.align	2
  70              		.globl	_ZN9SemaphoreD2Ev
  72              	_ZN9SemaphoreD2Ev:
  73              	.LFB39:
  50:src/syscall_cpp.cpp **** 
  51:src/syscall_cpp.cpp **** Semaphore::Semaphore(unsigned init) {
  52:src/syscall_cpp.cpp **** 
  53:src/syscall_cpp.cpp ****     sem_open(&myHandle, init);
  54:src/syscall_cpp.cpp **** }
  55:src/syscall_cpp.cpp **** 
  56:src/syscall_cpp.cpp **** Semaphore::~Semaphore() {
  74              		.loc 2 56 1 is_stmt 1
  75              		.cfi_startproc
  76              		.cfi_personality 0x9b,DW.ref.__gxx_personality_v0
  77              		.cfi_lsda 0x1b,.LLSDA39
  78              	.LVL3:
  79 002c 130101FF 		addi	sp,sp,-16
  80              		.cfi_def_cfa_offset 16
  81 0030 23341100 		sd	ra,8(sp)
  82 0034 23308100 		sd	s0,0(sp)
  83              		.cfi_offset 1, -8
  84              		.cfi_offset 8, -16
  85 0038 13040101 		addi	s0,sp,16
  86              		.cfi_def_cfa 8, 0
  87              	.LBB8:
  88              		.loc 2 56 23 is_stmt 0
  89 003c 97070000 		lla	a5,_ZTV9Semaphore+16
  89      93870700 
  90 0044 2330F500 		sd	a5,0(a0)
  57:src/syscall_cpp.cpp ****     sem_close(myHandle);
GAS LISTING /tmp/ccnbgogl.s 			page 4


  91              		.loc 2 57 5 is_stmt 1
  92              		.loc 2 57 14 is_stmt 0
  93 0048 03358500 		ld	a0,8(a0)
  94              	.LVL4:
  95 004c 97000000 		call	_Z9sem_closeP3SEM@plt
  95      E7800000 
  96              	.LVL5:
  97              	.LBE8:
  58:src/syscall_cpp.cpp **** }
  98              		.loc 2 58 1
  99 0054 83308100 		ld	ra,8(sp)
 100              		.cfi_restore 1
 101 0058 03340100 		ld	s0,0(sp)
 102              		.cfi_restore 8
 103              		.cfi_def_cfa 2, 16
 104 005c 13010101 		addi	sp,sp,16
 105              		.cfi_def_cfa_offset 0
 106 0060 67800000 		jr	ra
 107              		.cfi_endproc
 108              	.LFE39:
 109              		.globl	__gxx_personality_v0
 110              		.section	.gcc_except_table,"a",@progbits
 111              	.LLSDA39:
 112 0000 FF       		.byte	0xff
 113 0001 FF       		.byte	0xff
 114 0002 03       		.byte	0x3
 115 0003 00       		.byte	0
 116              		.text
 118              		.globl	_ZN9SemaphoreD1Ev
 119              		.set	_ZN9SemaphoreD1Ev,_ZN9SemaphoreD2Ev
 120              		.align	2
 121              		.globl	_Znwm
 123              	_Znwm:
 124              	.LFB20:
   8:src/syscall_cpp.cpp ****     return mem_alloc(size);
 125              		.loc 2 8 1 is_stmt 1
 126              		.cfi_startproc
 127              	.LVL6:
 128 0064 130101FF 		addi	sp,sp,-16
 129              		.cfi_def_cfa_offset 16
 130 0068 23341100 		sd	ra,8(sp)
 131 006c 23308100 		sd	s0,0(sp)
 132              		.cfi_offset 1, -8
 133              		.cfi_offset 8, -16
 134 0070 13040101 		addi	s0,sp,16
 135              		.cfi_def_cfa 8, 0
   9:src/syscall_cpp.cpp **** }
 136              		.loc 2 9 5
   9:src/syscall_cpp.cpp **** }
 137              		.loc 2 9 21 is_stmt 0
 138 0074 97000000 		call	_Z9mem_allocm@plt
 138      E7800000 
 139              	.LVL7:
  10:src/syscall_cpp.cpp **** 
 140              		.loc 2 10 1
 141 007c 83308100 		ld	ra,8(sp)
 142              		.cfi_restore 1
GAS LISTING /tmp/ccnbgogl.s 			page 5


 143 0080 03340100 		ld	s0,0(sp)
 144              		.cfi_restore 8
 145              		.cfi_def_cfa 2, 16
 146 0084 13010101 		addi	sp,sp,16
 147              		.cfi_def_cfa_offset 0
 148 0088 67800000 		jr	ra
 149              		.cfi_endproc
 150              	.LFE20:
 152              		.align	2
 153              		.globl	_ZdlPv
 155              	_ZdlPv:
 156              	.LFB21:
  13:src/syscall_cpp.cpp ****     mem_free(ptr);
 157              		.loc 2 13 1 is_stmt 1
 158              		.cfi_startproc
 159              	.LVL8:
 160 008c 130101FF 		addi	sp,sp,-16
 161              		.cfi_def_cfa_offset 16
 162 0090 23341100 		sd	ra,8(sp)
 163 0094 23308100 		sd	s0,0(sp)
 164              		.cfi_offset 1, -8
 165              		.cfi_offset 8, -16
 166 0098 13040101 		addi	s0,sp,16
 167              		.cfi_def_cfa 8, 0
  14:src/syscall_cpp.cpp **** }
 168              		.loc 2 14 5
  14:src/syscall_cpp.cpp **** }
 169              		.loc 2 14 13 is_stmt 0
 170 009c 97000000 		call	_Z8mem_freePv@plt
 170      E7800000 
 171              	.LVL9:
  15:src/syscall_cpp.cpp **** 
 172              		.loc 2 15 1
 173 00a4 83308100 		ld	ra,8(sp)
 174              		.cfi_restore 1
 175 00a8 03340100 		ld	s0,0(sp)
 176              		.cfi_restore 8
 177              		.cfi_def_cfa 2, 16
 178 00ac 13010101 		addi	sp,sp,16
 179              		.cfi_def_cfa_offset 0
 180 00b0 67800000 		jr	ra
 181              		.cfi_endproc
 182              	.LFE21:
 184              		.align	2
 185              		.globl	_ZN6ThreadD2Ev
 187              	_ZN6ThreadD2Ev:
 188              	.LFB30:
  30:src/syscall_cpp.cpp ****     delete myHandle;
 189              		.loc 2 30 1 is_stmt 1
 190              		.cfi_startproc
 191              		.cfi_personality 0x9b,DW.ref.__gxx_personality_v0
 192              		.cfi_lsda 0x1b,.LLSDA30
 193              	.LVL10:
 194 00b4 130101FE 		addi	sp,sp,-32
 195              		.cfi_def_cfa_offset 32
 196 00b8 233C1100 		sd	ra,24(sp)
 197 00bc 23388100 		sd	s0,16(sp)
GAS LISTING /tmp/ccnbgogl.s 			page 6


 198 00c0 23349100 		sd	s1,8(sp)
 199              		.cfi_offset 1, -8
 200              		.cfi_offset 8, -16
 201              		.cfi_offset 9, -24
 202 00c4 13040102 		addi	s0,sp,32
 203              		.cfi_def_cfa 8, 0
 204              	.LBB9:
  30:src/syscall_cpp.cpp ****     delete myHandle;
 205              		.loc 2 30 17 is_stmt 0
 206 00c8 97070000 		lla	a5,_ZTV6Thread+16
 206      93870700 
 207 00d0 2330F500 		sd	a5,0(a0)
  31:src/syscall_cpp.cpp **** }
 208              		.loc 2 31 5 is_stmt 1
  31:src/syscall_cpp.cpp **** }
 209              		.loc 2 31 12 is_stmt 0
 210 00d4 83348500 		ld	s1,8(a0)
  31:src/syscall_cpp.cpp **** }
 211              		.loc 2 31 20
 212 00d8 63840402 		beqz	s1,.L11
 213              	.LVL11:
 214              	.LBB10:
 215              	.LBB11:
 216              		.file 3 "src/../h/TCB.hpp"
   1:src/../h/TCB.hpp **** //
   2:src/../h/TCB.hpp **** // Created by os on 9/23/25.
   3:src/../h/TCB.hpp **** //
   4:src/../h/TCB.hpp **** 
   5:src/../h/TCB.hpp **** #ifndef PROJECT_BASE_V1_1_COPY_TCB_HPP
   6:src/../h/TCB.hpp **** #define PROJECT_BASE_V1_1_COPY_TCB_HPP
   7:src/../h/TCB.hpp **** #include "../lib/hw.h"
   8:src/../h/TCB.hpp **** #include "../h/Scheduler.hpp"
   9:src/../h/TCB.hpp **** #include "../h/MemoryAllocator.hpp"
  10:src/../h/TCB.hpp **** 
  11:src/../h/TCB.hpp **** class TCB
  12:src/../h/TCB.hpp **** {
  13:src/../h/TCB.hpp **** public:
  14:src/../h/TCB.hpp ****     void* operator new(size_t size)
  15:src/../h/TCB.hpp **** {
  16:src/../h/TCB.hpp ****     return MemoryAllocator::Instance()->mem_alloc(size);
  17:src/../h/TCB.hpp **** }
  18:src/../h/TCB.hpp **** 
  19:src/../h/TCB.hpp ****     void operator delete(void* ptr)
  20:src/../h/TCB.hpp ****     {
  21:src/../h/TCB.hpp ****         return MemoryAllocator::Instance()->mem_free(ptr);
  22:src/../h/TCB.hpp ****     }
  23:src/../h/TCB.hpp **** 
  24:src/../h/TCB.hpp **** 
  25:src/../h/TCB.hpp ****     using Body=void(*)(void*);
  26:src/../h/TCB.hpp **** 
  27:src/../h/TCB.hpp ****     ~TCB()
  28:src/../h/TCB.hpp ****     {
  29:src/../h/TCB.hpp ****         delete stack;
 217              		.loc 3 29 9 is_stmt 1
 218              		.loc 3 29 16 is_stmt 0
 219 00dc 03B58400 		ld	a0,8(s1)
 220              	.LVL12:
GAS LISTING /tmp/ccnbgogl.s 			page 7


 221              		.loc 3 29 21
 222 00e0 63060500 		beqz	a0,.L13
 223              		.loc 3 29 16
 224 00e4 97000000 		call	_ZdlPv
 224      E7800000 
 225              	.LVL13:
 226              	.L13:
 227              	.LBE11:
 228              	.LBE10:
 229              	.LBB12:
 230              	.LBB13:
  21:src/../h/TCB.hpp ****     }
 231              		.loc 3 21 9 is_stmt 1
  21:src/../h/TCB.hpp ****     }
 232              		.loc 3 21 53 is_stmt 0
 233 00ec 97000000 		call	_ZN15MemoryAllocator8InstanceEv@plt
 233      E7800000 
 234              	.LVL14:
 235 00f4 93850400 		mv	a1,s1
 236 00f8 97000000 		call	_ZN15MemoryAllocator8mem_freeEPv@plt
 236      E7800000 
 237              	.LVL15:
 238              	.L11:
 239              	.LBE13:
 240              	.LBE12:
 241              	.LBE9:
  32:src/syscall_cpp.cpp **** 
 242              		.loc 2 32 1
 243 0100 83308101 		ld	ra,24(sp)
 244              		.cfi_restore 1
 245 0104 03340101 		ld	s0,16(sp)
 246              		.cfi_restore 8
 247              		.cfi_def_cfa 2, 32
 248 0108 83348100 		ld	s1,8(sp)
 249              		.cfi_restore 9
 250 010c 13010102 		addi	sp,sp,32
 251              		.cfi_def_cfa_offset 0
 252 0110 67800000 		jr	ra
 253              		.cfi_endproc
 254              	.LFE30:
 255              		.section	.gcc_except_table
 256              	.LLSDA30:
 257 0004 FF       		.byte	0xff
 258 0005 FF       		.byte	0xff
 259 0006 03       		.byte	0x3
 260 0007 00       		.byte	0
 261              		.text
 263              		.globl	_ZN6ThreadD1Ev
 264              		.set	_ZN6ThreadD1Ev,_ZN6ThreadD2Ev
 265              		.align	2
 266              		.globl	_ZN6ThreadD0Ev
 268              	_ZN6ThreadD0Ev:
 269              	.LFB32:
  30:src/syscall_cpp.cpp ****     delete myHandle;
 270              		.loc 2 30 1 is_stmt 1
 271              		.cfi_startproc
 272              	.LVL16:
GAS LISTING /tmp/ccnbgogl.s 			page 8


 273 0114 130101FE 		addi	sp,sp,-32
 274              		.cfi_def_cfa_offset 32
 275 0118 233C1100 		sd	ra,24(sp)
 276 011c 23388100 		sd	s0,16(sp)
 277 0120 23349100 		sd	s1,8(sp)
 278              		.cfi_offset 1, -8
 279              		.cfi_offset 8, -16
 280              		.cfi_offset 9, -24
 281 0124 13040102 		addi	s0,sp,32
 282              		.cfi_def_cfa 8, 0
 283 0128 93040500 		mv	s1,a0
  32:src/syscall_cpp.cpp **** 
 284              		.loc 2 32 1 is_stmt 0
 285 012c 97000000 		call	_ZN6ThreadD1Ev
 285      E7800000 
 286              	.LVL17:
 287 0134 13850400 		mv	a0,s1
 288 0138 97000000 		call	_ZdlPv
 288      E7800000 
 289              	.LVL18:
 290 0140 83308101 		ld	ra,24(sp)
 291              		.cfi_restore 1
 292 0144 03340101 		ld	s0,16(sp)
 293              		.cfi_restore 8
 294              		.cfi_def_cfa 2, 32
 295 0148 83348100 		ld	s1,8(sp)
 296              		.cfi_restore 9
 297              	.LVL19:
 298 014c 13010102 		addi	sp,sp,32
 299              		.cfi_def_cfa_offset 0
 300 0150 67800000 		jr	ra
 301              		.cfi_endproc
 302              	.LFE32:
 304              		.align	2
 305              		.globl	_ZN9SemaphoreD0Ev
 307              	_ZN9SemaphoreD0Ev:
 308              	.LFB41:
  56:src/syscall_cpp.cpp ****     sem_close(myHandle);
 309              		.loc 2 56 1 is_stmt 1
 310              		.cfi_startproc
 311              	.LVL20:
 312 0154 130101FE 		addi	sp,sp,-32
 313              		.cfi_def_cfa_offset 32
 314 0158 233C1100 		sd	ra,24(sp)
 315 015c 23388100 		sd	s0,16(sp)
 316 0160 23349100 		sd	s1,8(sp)
 317              		.cfi_offset 1, -8
 318              		.cfi_offset 8, -16
 319              		.cfi_offset 9, -24
 320 0164 13040102 		addi	s0,sp,32
 321              		.cfi_def_cfa 8, 0
 322 0168 93040500 		mv	s1,a0
 323              		.loc 2 58 1 is_stmt 0
 324 016c 97000000 		call	_ZN9SemaphoreD1Ev
 324      E7800000 
 325              	.LVL21:
 326 0174 13850400 		mv	a0,s1
GAS LISTING /tmp/ccnbgogl.s 			page 9


 327 0178 97000000 		call	_ZdlPv
 327      E7800000 
 328              	.LVL22:
 329 0180 83308101 		ld	ra,24(sp)
 330              		.cfi_restore 1
 331 0184 03340101 		ld	s0,16(sp)
 332              		.cfi_restore 8
 333              		.cfi_def_cfa 2, 32
 334 0188 83348100 		ld	s1,8(sp)
 335              		.cfi_restore 9
 336              	.LVL23:
 337 018c 13010102 		addi	sp,sp,32
 338              		.cfi_def_cfa_offset 0
 339 0190 67800000 		jr	ra
 340              		.cfi_endproc
 341              	.LFE41:
 343              		.align	2
 344              		.globl	_ZN6ThreadC2EPFvPvES0_
 346              	_ZN6ThreadC2EPFvPvES0_:
 347              	.LFB23:
  17:src/syscall_cpp.cpp ****     myHandle= nullptr;
 348              		.loc 2 17 1 is_stmt 1
 349              		.cfi_startproc
 350              	.LVL24:
 351 0194 130101FF 		addi	sp,sp,-16
 352              		.cfi_def_cfa_offset 16
 353 0198 23348100 		sd	s0,8(sp)
 354              		.cfi_offset 8, -8
 355 019c 13040101 		addi	s0,sp,16
 356              		.cfi_def_cfa 8, 0
 357              	.LBB14:
  17:src/syscall_cpp.cpp ****     myHandle= nullptr;
 358              		.loc 2 17 47 is_stmt 0
 359 01a0 97070000 		lla	a5,_ZTV6Thread+16
 359      93870700 
 360 01a8 2330F500 		sd	a5,0(a0)
  18:src/syscall_cpp.cpp ****     this->body=body;
 361              		.loc 2 18 5 is_stmt 1
  18:src/syscall_cpp.cpp ****     this->body=body;
 362              		.loc 2 18 13 is_stmt 0
 363 01ac 23340500 		sd	zero,8(a0)
  19:src/syscall_cpp.cpp ****     this->arg=arg;
 364              		.loc 2 19 5 is_stmt 1
  19:src/syscall_cpp.cpp ****     this->arg=arg;
 365              		.loc 2 19 15 is_stmt 0
 366 01b0 2338B500 		sd	a1,16(a0)
  20:src/syscall_cpp.cpp **** }
 367              		.loc 2 20 5 is_stmt 1
  20:src/syscall_cpp.cpp **** }
 368              		.loc 2 20 14 is_stmt 0
 369 01b4 233CC500 		sd	a2,24(a0)
 370              	.LBE14:
  21:src/syscall_cpp.cpp **** void Thread::dispatch() {
 371              		.loc 2 21 1
 372 01b8 03348100 		ld	s0,8(sp)
 373              		.cfi_restore 8
 374              		.cfi_def_cfa 2, 16
GAS LISTING /tmp/ccnbgogl.s 			page 10


 375 01bc 13010101 		addi	sp,sp,16
 376              		.cfi_def_cfa_offset 0
 377 01c0 67800000 		jr	ra
 378              		.cfi_endproc
 379              	.LFE23:
 381              		.globl	_ZN6ThreadC1EPFvPvES0_
 382              		.set	_ZN6ThreadC1EPFvPvES0_,_ZN6ThreadC2EPFvPvES0_
 383              		.align	2
 384              		.globl	_ZN6Thread8dispatchEv
 386              	_ZN6Thread8dispatchEv:
 387              	.LFB25:
  22:src/syscall_cpp.cpp ****     thread_dispatch();
 388              		.loc 2 22 25 is_stmt 1
 389              		.cfi_startproc
 390 01c4 130101FF 		addi	sp,sp,-16
 391              		.cfi_def_cfa_offset 16
 392 01c8 23341100 		sd	ra,8(sp)
 393 01cc 23308100 		sd	s0,0(sp)
 394              		.cfi_offset 1, -8
 395              		.cfi_offset 8, -16
 396 01d0 13040101 		addi	s0,sp,16
 397              		.cfi_def_cfa 8, 0
  23:src/syscall_cpp.cpp **** }
 398              		.loc 2 23 5
  23:src/syscall_cpp.cpp **** }
 399              		.loc 2 23 20 is_stmt 0
 400 01d4 97000000 		call	_Z15thread_dispatchv@plt
 400      E7800000 
 401              	.LVL25:
  24:src/syscall_cpp.cpp **** Thread::Thread() {
 402              		.loc 2 24 1
 403 01dc 83308100 		ld	ra,8(sp)
 404              		.cfi_restore 1
 405 01e0 03340100 		ld	s0,0(sp)
 406              		.cfi_restore 8
 407              		.cfi_def_cfa 2, 16
 408 01e4 13010101 		addi	sp,sp,16
 409              		.cfi_def_cfa_offset 0
 410 01e8 67800000 		jr	ra
 411              		.cfi_endproc
 412              	.LFE25:
 414              		.align	2
 415              		.globl	_ZN6ThreadC2Ev
 417              	_ZN6ThreadC2Ev:
 418              	.LFB27:
  25:src/syscall_cpp.cpp ****     myHandle=nullptr;
 419              		.loc 2 25 1 is_stmt 1
 420              		.cfi_startproc
 421              	.LVL26:
 422 01ec 130101FF 		addi	sp,sp,-16
 423              		.cfi_def_cfa_offset 16
 424 01f0 23348100 		sd	s0,8(sp)
 425              		.cfi_offset 8, -8
 426 01f4 13040101 		addi	s0,sp,16
 427              		.cfi_def_cfa 8, 0
 428              	.LBB15:
  25:src/syscall_cpp.cpp ****     myHandle=nullptr;
GAS LISTING /tmp/ccnbgogl.s 			page 11


 429              		.loc 2 25 16 is_stmt 0
 430 01f8 97070000 		lla	a5,_ZTV6Thread+16
 430      93870700 
 431 0200 2330F500 		sd	a5,0(a0)
  26:src/syscall_cpp.cpp ****     body=nullptr;
 432              		.loc 2 26 5 is_stmt 1
  26:src/syscall_cpp.cpp ****     body=nullptr;
 433              		.loc 2 26 13 is_stmt 0
 434 0204 23340500 		sd	zero,8(a0)
  27:src/syscall_cpp.cpp ****     arg=nullptr;
 435              		.loc 2 27 5 is_stmt 1
  27:src/syscall_cpp.cpp ****     arg=nullptr;
 436              		.loc 2 27 9 is_stmt 0
 437 0208 23380500 		sd	zero,16(a0)
  28:src/syscall_cpp.cpp **** }
 438              		.loc 2 28 5 is_stmt 1
  28:src/syscall_cpp.cpp **** }
 439              		.loc 2 28 8 is_stmt 0
 440 020c 233C0500 		sd	zero,24(a0)
 441              	.LBE15:
  29:src/syscall_cpp.cpp **** Thread::~Thread() {
 442              		.loc 2 29 1
 443 0210 03348100 		ld	s0,8(sp)
 444              		.cfi_restore 8
 445              		.cfi_def_cfa 2, 16
 446 0214 13010101 		addi	sp,sp,16
 447              		.cfi_def_cfa_offset 0
 448 0218 67800000 		jr	ra
 449              		.cfi_endproc
 450              	.LFE27:
 452              		.globl	_ZN6ThreadC1Ev
 453              		.set	_ZN6ThreadC1Ev,_ZN6ThreadC2Ev
 454              		.align	2
 455              		.globl	_ZN6Thread5startEv
 457              	_ZN6Thread5startEv:
 458              	.LFB33:
  34:src/syscall_cpp.cpp ****     int ret=0;
 459              		.loc 2 34 21 is_stmt 1
 460              		.cfi_startproc
 461              	.LVL27:
 462 021c 130101FF 		addi	sp,sp,-16
 463              		.cfi_def_cfa_offset 16
 464 0220 23341100 		sd	ra,8(sp)
 465 0224 23308100 		sd	s0,0(sp)
 466              		.cfi_offset 1, -8
 467              		.cfi_offset 8, -16
 468 0228 13040101 		addi	s0,sp,16
 469              		.cfi_def_cfa 8, 0
  35:src/syscall_cpp.cpp ****     if(body!=nullptr)
 470              		.loc 2 35 5
 471              	.LVL28:
  36:src/syscall_cpp.cpp ****     {
 472              		.loc 2 36 5
  36:src/syscall_cpp.cpp ****     {
 473              		.loc 2 36 8 is_stmt 0
 474 022c 83350501 		ld	a1,16(a0)
  36:src/syscall_cpp.cpp ****     {
GAS LISTING /tmp/ccnbgogl.s 			page 12


 475              		.loc 2 36 5
 476 0230 63820502 		beqz	a1,.L26
  38:src/syscall_cpp.cpp ****     }
 477              		.loc 2 38 9 is_stmt 1
  38:src/syscall_cpp.cpp ****     }
 478              		.loc 2 38 28 is_stmt 0
 479 0234 03368501 		ld	a2,24(a0)
 480 0238 13058500 		addi	a0,a0,8
 481              	.LVL29:
 482 023c 97000000 		call	_Z13thread_createPP3TCBPFvPvES2_@plt
 482      E7800000 
 483              	.LVL30:
 484              	.L27:
  44:src/syscall_cpp.cpp **** }
 485              		.loc 2 44 5 is_stmt 1
  45:src/syscall_cpp.cpp **** void Thread::wrapper(void* ptr)
 486              		.loc 2 45 1 is_stmt 0
 487 0244 83308100 		ld	ra,8(sp)
 488              		.cfi_remember_state
 489              		.cfi_restore 1
 490 0248 03340100 		ld	s0,0(sp)
 491              		.cfi_restore 8
 492              		.cfi_def_cfa 2, 16
 493 024c 13010101 		addi	sp,sp,16
 494              		.cfi_def_cfa_offset 0
 495 0250 67800000 		jr	ra
 496              	.LVL31:
 497              	.L26:
 498              		.cfi_restore_state
  40:src/syscall_cpp.cpp ****     {
 499              		.loc 2 40 10 is_stmt 1
  42:src/syscall_cpp.cpp ****     }
 500              		.loc 2 42 9
  42:src/syscall_cpp.cpp ****     }
 501              		.loc 2 42 28 is_stmt 0
 502 0254 13060500 		mv	a2,a0
 503 0258 97050000 		lla	a1,_ZN6Thread7wrapperEPv
 503      93850500 
 504 0260 13058500 		addi	a0,a0,8
 505              	.LVL32:
 506 0264 97000000 		call	_Z13thread_createPP3TCBPFvPvES2_@plt
 506      E7800000 
 507              	.LVL33:
 508 026c 6FF09FFD 		j	.L27
 509              		.cfi_endproc
 510              	.LFE33:
 512              		.align	2
 513              		.globl	_ZN9SemaphoreC2Ej
 515              	_ZN9SemaphoreC2Ej:
 516              	.LFB36:
  51:src/syscall_cpp.cpp **** 
 517              		.loc 2 51 1 is_stmt 1
 518              		.cfi_startproc
 519              	.LVL34:
 520 0270 130101FF 		addi	sp,sp,-16
 521              		.cfi_def_cfa_offset 16
 522 0274 23341100 		sd	ra,8(sp)
GAS LISTING /tmp/ccnbgogl.s 			page 13


 523 0278 23308100 		sd	s0,0(sp)
 524              		.cfi_offset 1, -8
 525              		.cfi_offset 8, -16
 526 027c 13040101 		addi	s0,sp,16
 527              		.cfi_def_cfa 8, 0
 528              	.LBB16:
  51:src/syscall_cpp.cpp **** 
 529              		.loc 2 51 35 is_stmt 0
 530 0280 97070000 		lla	a5,_ZTV9Semaphore+16
 530      93870700 
 531 0288 2330F500 		sd	a5,0(a0)
  53:src/syscall_cpp.cpp **** }
 532              		.loc 2 53 5 is_stmt 1
  53:src/syscall_cpp.cpp **** }
 533              		.loc 2 53 13 is_stmt 0
 534 028c 13058500 		addi	a0,a0,8
 535              	.LVL35:
 536 0290 97000000 		call	_Z8sem_openPP3SEMj@plt
 536      E7800000 
 537              	.LVL36:
 538              	.LBE16:
  54:src/syscall_cpp.cpp **** 
 539              		.loc 2 54 1
 540 0298 83308100 		ld	ra,8(sp)
 541              		.cfi_restore 1
 542 029c 03340100 		ld	s0,0(sp)
 543              		.cfi_restore 8
 544              		.cfi_def_cfa 2, 16
 545 02a0 13010101 		addi	sp,sp,16
 546              		.cfi_def_cfa_offset 0
 547 02a4 67800000 		jr	ra
 548              		.cfi_endproc
 549              	.LFE36:
 551              		.globl	_ZN9SemaphoreC1Ej
 552              		.set	_ZN9SemaphoreC1Ej,_ZN9SemaphoreC2Ej
 553              		.align	2
 554              		.globl	_ZN9Semaphore4waitEv
 556              	_ZN9Semaphore4waitEv:
 557              	.LFB42:
  59:src/syscall_cpp.cpp **** int Semaphore::wait() {
 558              		.loc 2 59 23 is_stmt 1
 559              		.cfi_startproc
 560              	.LVL37:
 561 02a8 130101FF 		addi	sp,sp,-16
 562              		.cfi_def_cfa_offset 16
 563 02ac 23341100 		sd	ra,8(sp)
 564 02b0 23308100 		sd	s0,0(sp)
 565              		.cfi_offset 1, -8
 566              		.cfi_offset 8, -16
 567 02b4 13040101 		addi	s0,sp,16
 568              		.cfi_def_cfa 8, 0
  60:src/syscall_cpp.cpp ****     return sem_wait(myHandle);
 569              		.loc 2 60 5
 570              		.loc 2 60 20 is_stmt 0
 571 02b8 03358500 		ld	a0,8(a0)
 572              	.LVL38:
 573 02bc 97000000 		call	_Z8sem_waitP3SEM@plt
GAS LISTING /tmp/ccnbgogl.s 			page 14


 573      E7800000 
 574              	.LVL39:
  61:src/syscall_cpp.cpp **** }
 575              		.loc 2 61 1
 576 02c4 83308100 		ld	ra,8(sp)
 577              		.cfi_restore 1
 578 02c8 03340100 		ld	s0,0(sp)
 579              		.cfi_restore 8
 580              		.cfi_def_cfa 2, 16
 581 02cc 13010101 		addi	sp,sp,16
 582              		.cfi_def_cfa_offset 0
 583 02d0 67800000 		jr	ra
 584              		.cfi_endproc
 585              	.LFE42:
 587              		.align	2
 588              		.globl	_ZN9Semaphore6signalEv
 590              	_ZN9Semaphore6signalEv:
 591              	.LFB43:
  62:src/syscall_cpp.cpp **** 
  63:src/syscall_cpp.cpp **** int Semaphore::signal() {
 592              		.loc 2 63 25 is_stmt 1
 593              		.cfi_startproc
 594              	.LVL40:
 595 02d4 130101FF 		addi	sp,sp,-16
 596              		.cfi_def_cfa_offset 16
 597 02d8 23341100 		sd	ra,8(sp)
 598 02dc 23308100 		sd	s0,0(sp)
 599              		.cfi_offset 1, -8
 600              		.cfi_offset 8, -16
 601 02e0 13040101 		addi	s0,sp,16
 602              		.cfi_def_cfa 8, 0
  64:src/syscall_cpp.cpp ****     return sem_signal(myHandle);
 603              		.loc 2 64 5
 604              		.loc 2 64 22 is_stmt 0
 605 02e4 03358500 		ld	a0,8(a0)
 606              	.LVL41:
 607 02e8 97000000 		call	_Z10sem_signalP3SEM@plt
 607      E7800000 
 608              	.LVL42:
  65:src/syscall_cpp.cpp **** }...
 609              		.loc 2 65 1
 610 02f0 83308100 		ld	ra,8(sp)
 611              		.cfi_restore 1
 612 02f4 03340100 		ld	s0,0(sp)
 613              		.cfi_restore 8
 614              		.cfi_def_cfa 2, 16
 615 02f8 13010101 		addi	sp,sp,16
 616              		.cfi_def_cfa_offset 0
 617 02fc 67800000 		jr	ra
 618              		.cfi_endproc
 619              	.LFE43:
 621              		.weak	_ZTV6Thread
 622              		.section	.data.rel.ro.local._ZTV6Thread,"awG",@progbits,_ZTV6Thread,comdat
 623              		.align	3
 626              	_ZTV6Thread:
 627 0000 00000000 		.dword	0
 627      00000000 
GAS LISTING /tmp/ccnbgogl.s 			page 15


 628 0008 00000000 		.dword	0
 628      00000000 
 629 0010 00000000 		.dword	_ZN6ThreadD1Ev
 629      00000000 
 630 0018 00000000 		.dword	_ZN6ThreadD0Ev
 630      00000000 
 631 0020 00000000 		.dword	_ZN6Thread3runEv
 631      00000000 
 632              		.weak	_ZTV9Semaphore
 633              		.section	.data.rel.ro.local._ZTV9Semaphore,"awG",@progbits,_ZTV9Semaphore,comdat
 634              		.align	3
 637              	_ZTV9Semaphore:
 638 0000 00000000 		.dword	0
 638      00000000 
 639 0008 00000000 		.dword	0
 639      00000000 
 640 0010 00000000 		.dword	_ZN9SemaphoreD1Ev
 640      00000000 
 641 0018 00000000 		.dword	_ZN9SemaphoreD0Ev
 641      00000000 
 642              		.text
 643              	.Letext0:
 644              		.file 4 "src/../h/../lib/hw.h"
 645              		.file 5 "src/../h/../h/List.hpp"
 646              		.file 6 "src/../h/../h/MemoryAllocator.hpp"
 647              		.file 7 "src/../h/SEM.hpp"
 648              		.file 8 "src/../h/syscall_c.hpp"
 3847              		.align	3
 3850              	DW.ref.__gxx_personality_v0:
 3851 0000 00000000 		.dword	__gxx_personality_v0
 3851      00000000 
 3852              		.ident	"GCC: (Ubuntu 9.4.0-1ubuntu1~20.04) 9.4.0"
 3853              		.section	.note.GNU-stack,"",@progbits
GAS LISTING /tmp/ccnbgogl.s 			page 16


DEFINED SYMBOLS
                            *ABS*:0000000000000000 syscall_cpp.cpp
     /tmp/ccnbgogl.s:10     .text._ZN6Thread3runEv:0000000000000000 _ZN6Thread3runEv
     /tmp/ccnbgogl.s:14     .text._ZN6Thread3runEv:0000000000000000 .L0 
     /tmp/ccnbgogl.s:16     .text._ZN6Thread3runEv:0000000000000000 .L0 
     /tmp/ccnbgogl.s:17     .text._ZN6Thread3runEv:0000000000000004 .L0 
     /tmp/ccnbgogl.s:19     .text._ZN6Thread3runEv:0000000000000008 .L0 
     /tmp/ccnbgogl.s:21     .text._ZN6Thread3runEv:000000000000000c .L0 
     /tmp/ccnbgogl.s:23     .text._ZN6Thread3runEv:000000000000000c .L0 
     /tmp/ccnbgogl.s:24     .text._ZN6Thread3runEv:0000000000000010 .L0 
     /tmp/ccnbgogl.s:25     .text._ZN6Thread3runEv:0000000000000010 .L0 
     /tmp/ccnbgogl.s:27     .text._ZN6Thread3runEv:0000000000000014 .L0 
     /tmp/ccnbgogl.s:29     .text._ZN6Thread3runEv:0000000000000018 .L0 
     /tmp/ccnbgogl.s:36     .text:0000000000000000 _ZN6Thread7wrapperEPv
     /tmp/ccnbgogl.s:40     .text:0000000000000000 .L0 
     /tmp/ccnbgogl.s:42     .text:0000000000000000 .L0 
     /tmp/ccnbgogl.s:43     .text:0000000000000004 .L0 
     /tmp/ccnbgogl.s:46     .text:000000000000000c .L0 
     /tmp/ccnbgogl.s:47     .text:000000000000000c .L0 
     /tmp/ccnbgogl.s:49     .text:0000000000000010 .L0 
     /tmp/ccnbgogl.s:51     .text:0000000000000010 .L0 
     /tmp/ccnbgogl.s:52     .text:0000000000000010 .L0 
     /tmp/ccnbgogl.s:55     .text:0000000000000018 .L0 
     /tmp/ccnbgogl.s:58     .text:000000000000001c .L0 
     /tmp/ccnbgogl.s:59     .text:0000000000000020 .L0 
     /tmp/ccnbgogl.s:61     .text:0000000000000024 .L0 
     /tmp/ccnbgogl.s:62     .text:0000000000000024 .L0 
     /tmp/ccnbgogl.s:64     .text:0000000000000028 .L0 
     /tmp/ccnbgogl.s:66     .text:000000000000002c .L0 
     /tmp/ccnbgogl.s:72     .text:000000000000002c _ZN9SemaphoreD2Ev
     /tmp/ccnbgogl.s:75     .text:000000000000002c .L0 
     /tmp/ccnbgogl.s:3850   .data.rel.local.DW.ref.__gxx_personality_v0:0000000000000000 DW.ref.__gxx_personality_v0
     /tmp/ccnbgogl.s:79     .text:000000000000002c .L0 
     /tmp/ccnbgogl.s:80     .text:0000000000000030 .L0 
     /tmp/ccnbgogl.s:83     .text:0000000000000038 .L0 
     /tmp/ccnbgogl.s:84     .text:0000000000000038 .L0 
     /tmp/ccnbgogl.s:86     .text:000000000000003c .L0 
     /tmp/ccnbgogl.s:637    .data.rel.ro.local._ZTV9Semaphore:0000000000000000 _ZTV9Semaphore
     /tmp/ccnbgogl.s:89     .text:000000000000003c .L0 
     /tmp/ccnbgogl.s:92     .text:0000000000000048 .L0 
     /tmp/ccnbgogl.s:93     .text:0000000000000048 .L0 
     /tmp/ccnbgogl.s:99     .text:0000000000000054 .L0 
     /tmp/ccnbgogl.s:100    .text:0000000000000058 .L0 
     /tmp/ccnbgogl.s:102    .text:000000000000005c .L0 
     /tmp/ccnbgogl.s:103    .text:000000000000005c .L0 
     /tmp/ccnbgogl.s:105    .text:0000000000000060 .L0 
     /tmp/ccnbgogl.s:107    .text:0000000000000064 .L0 
     /tmp/ccnbgogl.s:72     .text:000000000000002c _ZN9SemaphoreD1Ev
     /tmp/ccnbgogl.s:123    .text:0000000000000064 _Znwm
     /tmp/ccnbgogl.s:126    .text:0000000000000064 .L0 
     /tmp/ccnbgogl.s:128    .text:0000000000000064 .L0 
     /tmp/ccnbgogl.s:129    .text:0000000000000068 .L0 
     /tmp/ccnbgogl.s:132    .text:0000000000000070 .L0 
     /tmp/ccnbgogl.s:133    .text:0000000000000070 .L0 
     /tmp/ccnbgogl.s:135    .text:0000000000000074 .L0 
     /tmp/ccnbgogl.s:137    .text:0000000000000074 .L0 
     /tmp/ccnbgogl.s:138    .text:0000000000000074 .L0 
GAS LISTING /tmp/ccnbgogl.s 			page 17


     /tmp/ccnbgogl.s:141    .text:000000000000007c .L0 
     /tmp/ccnbgogl.s:142    .text:0000000000000080 .L0 
     /tmp/ccnbgogl.s:144    .text:0000000000000084 .L0 
     /tmp/ccnbgogl.s:145    .text:0000000000000084 .L0 
     /tmp/ccnbgogl.s:147    .text:0000000000000088 .L0 
     /tmp/ccnbgogl.s:149    .text:000000000000008c .L0 
     /tmp/ccnbgogl.s:155    .text:000000000000008c _ZdlPv
     /tmp/ccnbgogl.s:158    .text:000000000000008c .L0 
     /tmp/ccnbgogl.s:160    .text:000000000000008c .L0 
     /tmp/ccnbgogl.s:161    .text:0000000000000090 .L0 
     /tmp/ccnbgogl.s:164    .text:0000000000000098 .L0 
     /tmp/ccnbgogl.s:165    .text:0000000000000098 .L0 
     /tmp/ccnbgogl.s:167    .text:000000000000009c .L0 
     /tmp/ccnbgogl.s:169    .text:000000000000009c .L0 
     /tmp/ccnbgogl.s:170    .text:000000000000009c .L0 
     /tmp/ccnbgogl.s:173    .text:00000000000000a4 .L0 
     /tmp/ccnbgogl.s:174    .text:00000000000000a8 .L0 
     /tmp/ccnbgogl.s:176    .text:00000000000000ac .L0 
     /tmp/ccnbgogl.s:177    .text:00000000000000ac .L0 
     /tmp/ccnbgogl.s:179    .text:00000000000000b0 .L0 
     /tmp/ccnbgogl.s:181    .text:00000000000000b4 .L0 
     /tmp/ccnbgogl.s:187    .text:00000000000000b4 _ZN6ThreadD2Ev
     /tmp/ccnbgogl.s:190    .text:00000000000000b4 .L0 
     /tmp/ccnbgogl.s:194    .text:00000000000000b4 .L0 
     /tmp/ccnbgogl.s:195    .text:00000000000000b8 .L0 
     /tmp/ccnbgogl.s:199    .text:00000000000000c4 .L0 
     /tmp/ccnbgogl.s:200    .text:00000000000000c4 .L0 
     /tmp/ccnbgogl.s:201    .text:00000000000000c4 .L0 
     /tmp/ccnbgogl.s:203    .text:00000000000000c8 .L0 
     /tmp/ccnbgogl.s:626    .data.rel.ro.local._ZTV6Thread:0000000000000000 _ZTV6Thread
     /tmp/ccnbgogl.s:206    .text:00000000000000c8 .L0 
     /tmp/ccnbgogl.s:209    .text:00000000000000d4 .L0 
     /tmp/ccnbgogl.s:210    .text:00000000000000d4 .L0 
     /tmp/ccnbgogl.s:212    .text:00000000000000d8 .L0 
     /tmp/ccnbgogl.s:218    .text:00000000000000dc .L0 
     /tmp/ccnbgogl.s:219    .text:00000000000000dc .L0 
     /tmp/ccnbgogl.s:222    .text:00000000000000e0 .L0 
     /tmp/ccnbgogl.s:224    .text:00000000000000e4 .L0 
     /tmp/ccnbgogl.s:232    .text:00000000000000ec .L0 
     /tmp/ccnbgogl.s:233    .text:00000000000000ec .L0 
     /tmp/ccnbgogl.s:243    .text:0000000000000100 .L0 
     /tmp/ccnbgogl.s:244    .text:0000000000000104 .L0 
     /tmp/ccnbgogl.s:246    .text:0000000000000108 .L0 
     /tmp/ccnbgogl.s:247    .text:0000000000000108 .L0 
     /tmp/ccnbgogl.s:249    .text:000000000000010c .L0 
     /tmp/ccnbgogl.s:251    .text:0000000000000110 .L0 
     /tmp/ccnbgogl.s:253    .text:0000000000000114 .L0 
     /tmp/ccnbgogl.s:187    .text:00000000000000b4 _ZN6ThreadD1Ev
     /tmp/ccnbgogl.s:268    .text:0000000000000114 _ZN6ThreadD0Ev
     /tmp/ccnbgogl.s:271    .text:0000000000000114 .L0 
     /tmp/ccnbgogl.s:273    .text:0000000000000114 .L0 
     /tmp/ccnbgogl.s:274    .text:0000000000000118 .L0 
     /tmp/ccnbgogl.s:278    .text:0000000000000124 .L0 
     /tmp/ccnbgogl.s:279    .text:0000000000000124 .L0 
     /tmp/ccnbgogl.s:280    .text:0000000000000124 .L0 
     /tmp/ccnbgogl.s:282    .text:0000000000000128 .L0 
     /tmp/ccnbgogl.s:285    .text:000000000000012c .L0 
GAS LISTING /tmp/ccnbgogl.s 			page 18


     /tmp/ccnbgogl.s:291    .text:0000000000000144 .L0 
     /tmp/ccnbgogl.s:293    .text:0000000000000148 .L0 
     /tmp/ccnbgogl.s:294    .text:0000000000000148 .L0 
     /tmp/ccnbgogl.s:296    .text:000000000000014c .L0 
     /tmp/ccnbgogl.s:299    .text:0000000000000150 .L0 
     /tmp/ccnbgogl.s:301    .text:0000000000000154 .L0 
     /tmp/ccnbgogl.s:307    .text:0000000000000154 _ZN9SemaphoreD0Ev
     /tmp/ccnbgogl.s:310    .text:0000000000000154 .L0 
     /tmp/ccnbgogl.s:312    .text:0000000000000154 .L0 
     /tmp/ccnbgogl.s:313    .text:0000000000000158 .L0 
     /tmp/ccnbgogl.s:317    .text:0000000000000164 .L0 
     /tmp/ccnbgogl.s:318    .text:0000000000000164 .L0 
     /tmp/ccnbgogl.s:319    .text:0000000000000164 .L0 
     /tmp/ccnbgogl.s:321    .text:0000000000000168 .L0 
     /tmp/ccnbgogl.s:324    .text:000000000000016c .L0 
     /tmp/ccnbgogl.s:330    .text:0000000000000184 .L0 
     /tmp/ccnbgogl.s:332    .text:0000000000000188 .L0 
     /tmp/ccnbgogl.s:333    .text:0000000000000188 .L0 
     /tmp/ccnbgogl.s:335    .text:000000000000018c .L0 
     /tmp/ccnbgogl.s:338    .text:0000000000000190 .L0 
     /tmp/ccnbgogl.s:340    .text:0000000000000194 .L0 
     /tmp/ccnbgogl.s:346    .text:0000000000000194 _ZN6ThreadC2EPFvPvES0_
     /tmp/ccnbgogl.s:349    .text:0000000000000194 .L0 
     /tmp/ccnbgogl.s:351    .text:0000000000000194 .L0 
     /tmp/ccnbgogl.s:352    .text:0000000000000198 .L0 
     /tmp/ccnbgogl.s:354    .text:000000000000019c .L0 
     /tmp/ccnbgogl.s:356    .text:00000000000001a0 .L0 
     /tmp/ccnbgogl.s:359    .text:00000000000001a0 .L0 
     /tmp/ccnbgogl.s:362    .text:00000000000001ac .L0 
     /tmp/ccnbgogl.s:363    .text:00000000000001ac .L0 
     /tmp/ccnbgogl.s:365    .text:00000000000001b0 .L0 
     /tmp/ccnbgogl.s:366    .text:00000000000001b0 .L0 
     /tmp/ccnbgogl.s:368    .text:00000000000001b4 .L0 
     /tmp/ccnbgogl.s:369    .text:00000000000001b4 .L0 
     /tmp/ccnbgogl.s:372    .text:00000000000001b8 .L0 
     /tmp/ccnbgogl.s:373    .text:00000000000001bc .L0 
     /tmp/ccnbgogl.s:374    .text:00000000000001bc .L0 
     /tmp/ccnbgogl.s:376    .text:00000000000001c0 .L0 
     /tmp/ccnbgogl.s:378    .text:00000000000001c4 .L0 
     /tmp/ccnbgogl.s:346    .text:0000000000000194 _ZN6ThreadC1EPFvPvES0_
     /tmp/ccnbgogl.s:386    .text:00000000000001c4 _ZN6Thread8dispatchEv
     /tmp/ccnbgogl.s:389    .text:00000000000001c4 .L0 
     /tmp/ccnbgogl.s:390    .text:00000000000001c4 .L0 
     /tmp/ccnbgogl.s:391    .text:00000000000001c8 .L0 
     /tmp/ccnbgogl.s:394    .text:00000000000001d0 .L0 
     /tmp/ccnbgogl.s:395    .text:00000000000001d0 .L0 
     /tmp/ccnbgogl.s:397    .text:00000000000001d4 .L0 
     /tmp/ccnbgogl.s:399    .text:00000000000001d4 .L0 
     /tmp/ccnbgogl.s:400    .text:00000000000001d4 .L0 
     /tmp/ccnbgogl.s:403    .text:00000000000001dc .L0 
     /tmp/ccnbgogl.s:404    .text:00000000000001e0 .L0 
     /tmp/ccnbgogl.s:406    .text:00000000000001e4 .L0 
     /tmp/ccnbgogl.s:407    .text:00000000000001e4 .L0 
     /tmp/ccnbgogl.s:409    .text:00000000000001e8 .L0 
     /tmp/ccnbgogl.s:411    .text:00000000000001ec .L0 
     /tmp/ccnbgogl.s:417    .text:00000000000001ec _ZN6ThreadC2Ev
     /tmp/ccnbgogl.s:420    .text:00000000000001ec .L0 
GAS LISTING /tmp/ccnbgogl.s 			page 19


     /tmp/ccnbgogl.s:422    .text:00000000000001ec .L0 
     /tmp/ccnbgogl.s:423    .text:00000000000001f0 .L0 
     /tmp/ccnbgogl.s:425    .text:00000000000001f4 .L0 
     /tmp/ccnbgogl.s:427    .text:00000000000001f8 .L0 
     /tmp/ccnbgogl.s:430    .text:00000000000001f8 .L0 
     /tmp/ccnbgogl.s:433    .text:0000000000000204 .L0 
     /tmp/ccnbgogl.s:434    .text:0000000000000204 .L0 
     /tmp/ccnbgogl.s:436    .text:0000000000000208 .L0 
     /tmp/ccnbgogl.s:437    .text:0000000000000208 .L0 
     /tmp/ccnbgogl.s:439    .text:000000000000020c .L0 
     /tmp/ccnbgogl.s:440    .text:000000000000020c .L0 
     /tmp/ccnbgogl.s:443    .text:0000000000000210 .L0 
     /tmp/ccnbgogl.s:444    .text:0000000000000214 .L0 
     /tmp/ccnbgogl.s:445    .text:0000000000000214 .L0 
     /tmp/ccnbgogl.s:447    .text:0000000000000218 .L0 
     /tmp/ccnbgogl.s:449    .text:000000000000021c .L0 
     /tmp/ccnbgogl.s:417    .text:00000000000001ec _ZN6ThreadC1Ev
     /tmp/ccnbgogl.s:457    .text:000000000000021c _ZN6Thread5startEv
     /tmp/ccnbgogl.s:460    .text:000000000000021c .L0 
     /tmp/ccnbgogl.s:462    .text:000000000000021c .L0 
     /tmp/ccnbgogl.s:463    .text:0000000000000220 .L0 
     /tmp/ccnbgogl.s:466    .text:0000000000000228 .L0 
     /tmp/ccnbgogl.s:467    .text:0000000000000228 .L0 
     /tmp/ccnbgogl.s:469    .text:000000000000022c .L0 
     /tmp/ccnbgogl.s:472    .text:000000000000022c .L0 
     /tmp/ccnbgogl.s:473    .text:000000000000022c .L0 
     /tmp/ccnbgogl.s:474    .text:000000000000022c .L0 
     /tmp/ccnbgogl.s:476    .text:0000000000000230 .L0 
     /tmp/ccnbgogl.s:478    .text:0000000000000234 .L0 
     /tmp/ccnbgogl.s:479    .text:0000000000000234 .L0 
     /tmp/ccnbgogl.s:486    .text:0000000000000244 .L0 
     /tmp/ccnbgogl.s:487    .text:0000000000000244 .L0 
     /tmp/ccnbgogl.s:488    .text:0000000000000248 .L0 
     /tmp/ccnbgogl.s:489    .text:0000000000000248 .L0 
     /tmp/ccnbgogl.s:491    .text:000000000000024c .L0 
     /tmp/ccnbgogl.s:492    .text:000000000000024c .L0 
     /tmp/ccnbgogl.s:494    .text:0000000000000250 .L0 
     /tmp/ccnbgogl.s:498    .text:0000000000000254 .L0 
     /tmp/ccnbgogl.s:500    .text:0000000000000254 .L0 
     /tmp/ccnbgogl.s:501    .text:0000000000000254 .L0 
     /tmp/ccnbgogl.s:502    .text:0000000000000254 .L0 
     /tmp/ccnbgogl.s:509    .text:0000000000000270 .L0 
     /tmp/ccnbgogl.s:515    .text:0000000000000270 _ZN9SemaphoreC2Ej
     /tmp/ccnbgogl.s:518    .text:0000000000000270 .L0 
     /tmp/ccnbgogl.s:520    .text:0000000000000270 .L0 
     /tmp/ccnbgogl.s:521    .text:0000000000000274 .L0 
     /tmp/ccnbgogl.s:524    .text:000000000000027c .L0 
     /tmp/ccnbgogl.s:525    .text:000000000000027c .L0 
     /tmp/ccnbgogl.s:527    .text:0000000000000280 .L0 
     /tmp/ccnbgogl.s:530    .text:0000000000000280 .L0 
     /tmp/ccnbgogl.s:533    .text:000000000000028c .L0 
     /tmp/ccnbgogl.s:534    .text:000000000000028c .L0 
     /tmp/ccnbgogl.s:540    .text:0000000000000298 .L0 
     /tmp/ccnbgogl.s:541    .text:000000000000029c .L0 
     /tmp/ccnbgogl.s:543    .text:00000000000002a0 .L0 
     /tmp/ccnbgogl.s:544    .text:00000000000002a0 .L0 
     /tmp/ccnbgogl.s:546    .text:00000000000002a4 .L0 
GAS LISTING /tmp/ccnbgogl.s 			page 20


     /tmp/ccnbgogl.s:548    .text:00000000000002a8 .L0 
     /tmp/ccnbgogl.s:515    .text:0000000000000270 _ZN9SemaphoreC1Ej
     /tmp/ccnbgogl.s:556    .text:00000000000002a8 _ZN9Semaphore4waitEv
     /tmp/ccnbgogl.s:559    .text:00000000000002a8 .L0 
     /tmp/ccnbgogl.s:561    .text:00000000000002a8 .L0 
     /tmp/ccnbgogl.s:562    .text:00000000000002ac .L0 
     /tmp/ccnbgogl.s:565    .text:00000000000002b4 .L0 
     /tmp/ccnbgogl.s:566    .text:00000000000002b4 .L0 
     /tmp/ccnbgogl.s:568    .text:00000000000002b8 .L0 
     /tmp/ccnbgogl.s:570    .text:00000000000002b8 .L0 
     /tmp/ccnbgogl.s:571    .text:00000000000002b8 .L0 
     /tmp/ccnbgogl.s:576    .text:00000000000002c4 .L0 
     /tmp/ccnbgogl.s:577    .text:00000000000002c8 .L0 
     /tmp/ccnbgogl.s:579    .text:00000000000002cc .L0 
     /tmp/ccnbgogl.s:580    .text:00000000000002cc .L0 
     /tmp/ccnbgogl.s:582    .text:00000000000002d0 .L0 
     /tmp/ccnbgogl.s:584    .text:00000000000002d4 .L0 
     /tmp/ccnbgogl.s:590    .text:00000000000002d4 _ZN9Semaphore6signalEv
     /tmp/ccnbgogl.s:593    .text:00000000000002d4 .L0 
     /tmp/ccnbgogl.s:595    .text:00000000000002d4 .L0 
     /tmp/ccnbgogl.s:596    .text:00000000000002d8 .L0 
     /tmp/ccnbgogl.s:599    .text:00000000000002e0 .L0 
     /tmp/ccnbgogl.s:600    .text:00000000000002e0 .L0 
     /tmp/ccnbgogl.s:602    .text:00000000000002e4 .L0 
     /tmp/ccnbgogl.s:604    .text:00000000000002e4 .L0 
     /tmp/ccnbgogl.s:605    .text:00000000000002e4 .L0 
     /tmp/ccnbgogl.s:610    .text:00000000000002f0 .L0 
     /tmp/ccnbgogl.s:611    .text:00000000000002f4 .L0 
     /tmp/ccnbgogl.s:613    .text:00000000000002f8 .L0 
     /tmp/ccnbgogl.s:614    .text:00000000000002f8 .L0 
     /tmp/ccnbgogl.s:616    .text:00000000000002fc .L0 
     /tmp/ccnbgogl.s:618    .text:0000000000000300 .L0 
     /tmp/ccnbgogl.s:32     .text._ZN6Thread3runEv:0000000000000018 .L0 
     /tmp/ccnbgogl.s:649    .text:0000000000000300 .L0 
     /tmp/ccnbgogl.s:89     .text:000000000000003c .L0 
     /tmp/ccnbgogl.s:206    .text:00000000000000c8 .L0 
     /tmp/ccnbgogl.s:359    .text:00000000000001a0 .L0 
     /tmp/ccnbgogl.s:430    .text:00000000000001f8 .L0 
     /tmp/ccnbgogl.s:503    .text:0000000000000258 .L0 
     /tmp/ccnbgogl.s:530    .text:0000000000000280 .L0 
     /tmp/ccnbgogl.s:238    .text:0000000000000100 .L11
     /tmp/ccnbgogl.s:226    .text:00000000000000ec .L13
     /tmp/ccnbgogl.s:497    .text:0000000000000254 .L26
     /tmp/ccnbgogl.s:484    .text:0000000000000244 .L27
     /tmp/ccnbgogl.s:2220   .debug_abbrev:0000000000000000 .Ldebug_abbrev0
     /tmp/ccnbgogl.s:3796   .debug_str:000000000000071a .LASF140
     /tmp/ccnbgogl.s:3770   .debug_str:0000000000000635 .LASF141
     /tmp/ccnbgogl.s:3700   .debug_str:0000000000000445 .LASF142
     /tmp/ccnbgogl.s:3536   .debug_ranges:0000000000000000 .Ldebug_ranges0
     /tmp/ccnbgogl.s:3544   .debug_line:0000000000000000 .Ldebug_line0
     /tmp/ccnbgogl.s:3714   .debug_str:00000000000004cc .LASF0
     /tmp/ccnbgogl.s:3732   .debug_str:0000000000000532 .LASF1
     /tmp/ccnbgogl.s:3698   .debug_str:0000000000000437 .LASF2
     /tmp/ccnbgogl.s:3664   .debug_str:0000000000000351 .LASF4
     /tmp/ccnbgogl.s:3776   .debug_str:0000000000000665 .LASF3
     /tmp/ccnbgogl.s:3574   .debug_str:00000000000000c0 .LASF5
     /tmp/ccnbgogl.s:3612   .debug_str:00000000000001c4 .LASF6
GAS LISTING /tmp/ccnbgogl.s 			page 21


     /tmp/ccnbgogl.s:3738   .debug_str:0000000000000578 .LASF7
     /tmp/ccnbgogl.s:3712   .debug_str:00000000000004b9 .LASF8
     /tmp/ccnbgogl.s:3810   .debug_str:000000000000083e .LASF9
     /tmp/ccnbgogl.s:3648   .debug_str:00000000000002e7 .LASF10
     /tmp/ccnbgogl.s:3746   .debug_str:00000000000005ab .LASF11
     /tmp/ccnbgogl.s:3802   .debug_str:00000000000007f4 .LASF12
     /tmp/ccnbgogl.s:3580   .debug_str:00000000000000e5 .LASF13
     /tmp/ccnbgogl.s:3554   .debug_str:0000000000000030 .LASF14
     /tmp/ccnbgogl.s:3594   .debug_str:000000000000014d .LASF15
     /tmp/ccnbgogl.s:3772   .debug_str:0000000000000649 .LASF16
     /tmp/ccnbgogl.s:3602   .debug_str:0000000000000180 .LASF17
     /tmp/ccnbgogl.s:3560   .debug_str:0000000000000059 .LASF53
     /tmp/ccnbgogl.s:3818   .debug_str:0000000000000875 .LASF18
     /tmp/ccnbgogl.s:3790   .debug_str:00000000000006f9 .LASF20
     /tmp/ccnbgogl.s:3780   .debug_str:0000000000000681 .LASF36
     /tmp/ccnbgogl.s:3764   .debug_str:0000000000000610 .LASF112
     /tmp/ccnbgogl.s:3622   .debug_str:000000000000023d .LASF19
     /tmp/ccnbgogl.s:3758   .debug_str:00000000000005fa .LASF21
     /tmp/ccnbgogl.s:3676   .debug_str:000000000000039e .LASF22
     /tmp/ccnbgogl.s:3826   .debug_str:00000000000008a7 .LASF23
     /tmp/ccnbgogl.s:3760   .debug_str:0000000000000606 .LASF73
     /tmp/ccnbgogl.s:3716   .debug_str:00000000000004d9 .LASF107
     /tmp/ccnbgogl.s:3632   .debug_str:0000000000000268 .LASF108
     /tmp/ccnbgogl.s:3684   .debug_str:00000000000003e3 .LASF58
     /tmp/ccnbgogl.s:3588   .debug_str:000000000000011b .LASF60
     /tmp/ccnbgogl.s:3740   .debug_str:000000000000058b .LASF28
     /tmp/ccnbgogl.s:3646   .debug_str:00000000000002d0 .LASF30
     /tmp/ccnbgogl.s:3672   .debug_str:0000000000000387 .LASF24
     /tmp/ccnbgogl.s:3642   .debug_str:00000000000002ad .LASF25
     /tmp/ccnbgogl.s:3576   .debug_str:00000000000000c7 .LASF26
     /tmp/ccnbgogl.s:3650   .debug_str:00000000000002f5 .LASF27
     /tmp/ccnbgogl.s:3558   .debug_str:000000000000004f .LASF29
     /tmp/ccnbgogl.s:3680   .debug_str:00000000000003be .LASF31
     /tmp/ccnbgogl.s:3690   .debug_str:00000000000003fa .LASF32
     /tmp/ccnbgogl.s:3572   .debug_str:00000000000000a7 .LASF33
     /tmp/ccnbgogl.s:3628   .debug_str:0000000000000257 .LASF34
     /tmp/ccnbgogl.s:3656   .debug_str:000000000000031f .LASF35
     /tmp/ccnbgogl.s:3828   .debug_str:00000000000008c9 .LASF84
     /tmp/ccnbgogl.s:3668   .debug_str:0000000000000379 .LASF37
     /tmp/ccnbgogl.s:3718   .debug_str:00000000000004e2 .LASF38
     /tmp/ccnbgogl.s:3548   .debug_str:0000000000000009 .LASF39
     /tmp/ccnbgogl.s:3724   .debug_str:00000000000004f9 .LASF40
     /tmp/ccnbgogl.s:3722   .debug_str:00000000000004f1 .LASF41
     /tmp/ccnbgogl.s:3670   .debug_str:0000000000000382 .LASF42
     /tmp/ccnbgogl.s:3694   .debug_str:000000000000040c .LASF143
     /tmp/ccnbgogl.s:3806   .debug_str:0000000000000815 .LASF144
     /tmp/ccnbgogl.s:3636   .debug_str:0000000000000280 .LASF43
     /tmp/ccnbgogl.s:3686   .debug_str:00000000000003e8 .LASF145
     /tmp/ccnbgogl.s:3608   .debug_str:00000000000001b0 .LASF44
     /tmp/ccnbgogl.s:3692   .debug_str:0000000000000407 .LASF45
     /tmp/ccnbgogl.s:3662   .debug_str:000000000000034c .LASF46
     /tmp/ccnbgogl.s:3808   .debug_str:000000000000082b .LASF47
     /tmp/ccnbgogl.s:3794   .debug_str:0000000000000711 .LASF48
     /tmp/ccnbgogl.s:3620   .debug_str:0000000000000220 .LASF49
     /tmp/ccnbgogl.s:3702   .debug_str:0000000000000471 .LASF50
     /tmp/ccnbgogl.s:3568   .debug_str:0000000000000085 .LASF51
     /tmp/ccnbgogl.s:3762   .debug_str:000000000000060b .LASF55
GAS LISTING /tmp/ccnbgogl.s 			page 22


     /tmp/ccnbgogl.s:3708   .debug_str:00000000000004a0 .LASF52
     /tmp/ccnbgogl.s:3596   .debug_str:0000000000000159 .LASF54
     /tmp/ccnbgogl.s:3838   .debug_str:000000000000093e .LASF56
     /tmp/ccnbgogl.s:3824   .debug_str:00000000000008a2 .LASF57
     /tmp/ccnbgogl.s:3720   .debug_str:00000000000004e8 .LASF59
     /tmp/ccnbgogl.s:3696   .debug_str:0000000000000417 .LASF61
     /tmp/ccnbgogl.s:3778   .debug_str:0000000000000677 .LASF62
     /tmp/ccnbgogl.s:3786   .debug_str:00000000000006ce .LASF63
     /tmp/ccnbgogl.s:3752   .debug_str:00000000000005e7 .LASF64
     /tmp/ccnbgogl.s:3666   .debug_str:0000000000000358 .LASF65
     /tmp/ccnbgogl.s:3552   .debug_str:0000000000000021 .LASF66
     /tmp/ccnbgogl.s:3616   .debug_str:00000000000001e0 .LASF67
     /tmp/ccnbgogl.s:3820   .debug_str:0000000000000882 .LASF68
     /tmp/ccnbgogl.s:3832   .debug_str:00000000000008f4 .LASF69
     /tmp/ccnbgogl.s:3618   .debug_str:0000000000000207 .LASF70
     /tmp/ccnbgogl.s:3792   .debug_str:0000000000000705 .LASF71
     /tmp/ccnbgogl.s:3784   .debug_str:0000000000000698 .LASF72
     /tmp/ccnbgogl.s:3564   .debug_str:0000000000000071 .LASF74
     /tmp/ccnbgogl.s:3634   .debug_str:000000000000027b .LASF75
     /tmp/ccnbgogl.s:3582   .debug_str:00000000000000f5 .LASF76
     /tmp/ccnbgogl.s:3814   .debug_str:0000000000000860 .LASF77
     /tmp/ccnbgogl.s:3742   .debug_str:0000000000000596 .LASF78
     /tmp/ccnbgogl.s:3640   .debug_str:000000000000029c .LASF79
     /tmp/ccnbgogl.s:3570   .debug_str:00000000000000a2 .LASF80
     /tmp/ccnbgogl.s:3798   .debug_str:00000000000007de .LASF81
     /tmp/ccnbgogl.s:3816   .debug_str:000000000000086f .LASF82
     /tmp/ccnbgogl.s:3562   .debug_str:0000000000000061 .LASF83
     /tmp/ccnbgogl.s:3600   .debug_str:0000000000000174 .LASF85
     /tmp/ccnbgogl.s:3782   .debug_str:0000000000000691 .LASF86
     /tmp/ccnbgogl.s:3766   .debug_str:000000000000061d .LASF87
     /tmp/ccnbgogl.s:3546   .debug_str:0000000000000000 .LASF88
     /tmp/ccnbgogl.s:3626   .debug_str:0000000000000251 .LASF89
     /tmp/ccnbgogl.s:3654   .debug_str:0000000000000315 .LASF90
     /tmp/ccnbgogl.s:3830   .debug_str:00000000000008df .LASF96
     /tmp/ccnbgogl.s:3704   .debug_str:000000000000047c .LASF98
     /tmp/ccnbgogl.s:3804   .debug_str:0000000000000803 .LASF91
     /tmp/ccnbgogl.s:3768   .debug_str:000000000000062a .LASF101
     /tmp/ccnbgogl.s:3592   .debug_str:000000000000013b .LASF103
     /tmp/ccnbgogl.s:3834   .debug_str:0000000000000920 .LASF92
     /tmp/ccnbgogl.s:3728   .debug_str:0000000000000515 .LASF93
     /tmp/ccnbgogl.s:3836   .debug_str:0000000000000935 .LASF94
     /tmp/ccnbgogl.s:3550   .debug_str:0000000000000011 .LASF146
     /tmp/ccnbgogl.s:3800   .debug_str:00000000000007ed .LASF95
     /tmp/ccnbgogl.s:3734   .debug_str:0000000000000545 .LASF97
     /tmp/ccnbgogl.s:3688   .debug_str:00000000000003ed .LASF99
     /tmp/ccnbgogl.s:3750   .debug_str:00000000000005d0 .LASF100
     /tmp/ccnbgogl.s:3566   .debug_str:000000000000007d .LASF102
     /tmp/ccnbgogl.s:3586   .debug_str:000000000000010c .LASF104
     /tmp/ccnbgogl.s:3730   .debug_str:000000000000052c .LASF105
     /tmp/ccnbgogl.s:3644   .debug_str:00000000000002bd .LASF106
     /tmp/ccnbgogl.s:3578   .debug_str:00000000000000cf .LASF109
     /tmp/ccnbgogl.s:3624   .debug_str:0000000000000242 .LASF110
     /tmp/ccnbgogl.s:3590   .debug_str:000000000000012a .LASF147
     /tmp/ccnbgogl.s:3840   .debug_str:0000000000000943 .LASF111
     /tmp/ccnbgogl.s:3748   .debug_str:00000000000005ba .LASF113
     /tmp/ccnbgogl.s:591    .text:00000000000002d4 .LFB43
     /tmp/ccnbgogl.s:619    .text:0000000000000300 .LFE43
GAS LISTING /tmp/ccnbgogl.s 			page 23


     /tmp/ccnbgogl.s:3754   .debug_str:00000000000005f0 .LASF114
     /tmp/ccnbgogl.s:3283   .debug_loc:0000000000000000 .LLST14
     /tmp/ccnbgogl.s:608    .text:00000000000002f0 .LVL42
     /tmp/ccnbgogl.s:557    .text:00000000000002a8 .LFB42
     /tmp/ccnbgogl.s:585    .text:00000000000002d4 .LFE42
     /tmp/ccnbgogl.s:3297   .debug_loc:0000000000000039 .LLST13
     /tmp/ccnbgogl.s:574    .text:00000000000002c4 .LVL39
     /tmp/ccnbgogl.s:3660   .debug_str:0000000000000342 .LASF115
     /tmp/ccnbgogl.s:3638   .debug_str:000000000000028a .LASF116
     /tmp/ccnbgogl.s:308    .text:0000000000000154 .LFB41
     /tmp/ccnbgogl.s:341    .text:0000000000000194 .LFE41
     /tmp/ccnbgogl.s:3311   .debug_loc:0000000000000072 .LLST8
     /tmp/ccnbgogl.s:325    .text:0000000000000174 .LVL21
     /tmp/ccnbgogl.s:328    .text:0000000000000180 .LVL22
     /tmp/ccnbgogl.s:3584   .debug_str:00000000000000fa .LASF117
     /tmp/ccnbgogl.s:73     .text:000000000000002c .LFB39
     /tmp/ccnbgogl.s:108    .text:0000000000000064 .LFE39
     /tmp/ccnbgogl.s:3329   .debug_loc:00000000000000be .LLST1
     /tmp/ccnbgogl.s:96     .text:0000000000000054 .LVL5
     /tmp/ccnbgogl.s:3756   .debug_str:00000000000005f5 .LASF122
     /tmp/ccnbgogl.s:3812   .debug_str:000000000000084e .LASF118
     /tmp/ccnbgogl.s:516    .text:0000000000000270 .LFB36
     /tmp/ccnbgogl.s:549    .text:00000000000002a8 .LFE36
     /tmp/ccnbgogl.s:3343   .debug_loc:00000000000000f7 .LLST11
     /tmp/ccnbgogl.s:3363   .debug_loc:0000000000000145 .LLST12
     /tmp/ccnbgogl.s:537    .text:0000000000000298 .LVL36
     /tmp/ccnbgogl.s:37     .text:0000000000000000 .LFB34
     /tmp/ccnbgogl.s:67     .text:000000000000002c .LFE34
     /tmp/ccnbgogl.s:3377   .debug_loc:000000000000017e .LLST0
     /tmp/ccnbgogl.s:56     .text:000000000000001c .LVL2
     /tmp/ccnbgogl.s:458    .text:000000000000021c .LFB33
     /tmp/ccnbgogl.s:510    .text:0000000000000270 .LFE33
     /tmp/ccnbgogl.s:3391   .debug_loc:00000000000001b7 .LLST9
     /tmp/ccnbgogl.s:3426   .debug_loc:0000000000000241 .LLST10
     /tmp/ccnbgogl.s:483    .text:0000000000000244 .LVL30
     /tmp/ccnbgogl.s:507    .text:000000000000026c .LVL33
     /tmp/ccnbgogl.s:3604   .debug_str:0000000000000196 .LASF119
     /tmp/ccnbgogl.s:269    .text:0000000000000114 .LFB32
     /tmp/ccnbgogl.s:302    .text:0000000000000154 .LFE32
     /tmp/ccnbgogl.s:3447   .debug_loc:000000000000029f .LLST7
     /tmp/ccnbgogl.s:286    .text:0000000000000134 .LVL17
     /tmp/ccnbgogl.s:289    .text:0000000000000140 .LVL18
     /tmp/ccnbgogl.s:3556   .debug_str:0000000000000040 .LASF120
     /tmp/ccnbgogl.s:188    .text:00000000000000b4 .LFB30
     /tmp/ccnbgogl.s:254    .text:0000000000000114 .LFE30
     /tmp/ccnbgogl.s:3465   .debug_loc:00000000000002eb .LLST4
     /tmp/ccnbgogl.s:214    .text:00000000000000dc .LBB10
     /tmp/ccnbgogl.s:228    .text:00000000000000ec .LBE10
     /tmp/ccnbgogl.s:3479   .debug_loc:0000000000000324 .LLST5
     /tmp/ccnbgogl.s:225    .text:00000000000000ec .LVL13
     /tmp/ccnbgogl.s:229    .text:00000000000000ec .LBB12
     /tmp/ccnbgogl.s:240    .text:0000000000000100 .LBE12
     /tmp/ccnbgogl.s:3486   .debug_loc:0000000000000347 .LLST6
     /tmp/ccnbgogl.s:234    .text:00000000000000f4 .LVL14
     /tmp/ccnbgogl.s:237    .text:0000000000000100 .LVL15
     /tmp/ccnbgogl.s:3610   .debug_str:00000000000001b5 .LASF121
     /tmp/ccnbgogl.s:418    .text:00000000000001ec .LFB27
GAS LISTING /tmp/ccnbgogl.s 			page 24


     /tmp/ccnbgogl.s:450    .text:000000000000021c .LFE27
     /tmp/ccnbgogl.s:387    .text:00000000000001c4 .LFB25
     /tmp/ccnbgogl.s:412    .text:00000000000001ec .LFE25
     /tmp/ccnbgogl.s:401    .text:00000000000001dc .LVL25
     /tmp/ccnbgogl.s:3658   .debug_str:000000000000032b .LASF123
     /tmp/ccnbgogl.s:347    .text:0000000000000194 .LFB23
     /tmp/ccnbgogl.s:379    .text:00000000000001c4 .LFE23
     /tmp/ccnbgogl.s:3842   .debug_str:000000000000094b .LASF124
     /tmp/ccnbgogl.s:156    .text:000000000000008c .LFB21
     /tmp/ccnbgogl.s:182    .text:00000000000000b4 .LFE21
     /tmp/ccnbgogl.s:3493   .debug_loc:000000000000036a .LLST3
     /tmp/ccnbgogl.s:171    .text:00000000000000a4 .LVL9
     /tmp/ccnbgogl.s:3774   .debug_str:000000000000065f .LASF125
     /tmp/ccnbgogl.s:124    .text:0000000000000064 .LFB20
     /tmp/ccnbgogl.s:150    .text:000000000000008c .LFE20
     /tmp/ccnbgogl.s:3507   .debug_loc:00000000000003a3 .LLST2
     /tmp/ccnbgogl.s:139    .text:000000000000007c .LVL7
     /tmp/ccnbgogl.s:11     .text._ZN6Thread3runEv:0000000000000000 .LFB19
     /tmp/ccnbgogl.s:30     .text._ZN6Thread3runEv:0000000000000018 .LFE19
     /tmp/ccnbgogl.s:3822   .debug_str:0000000000000896 .LASF148
     /tmp/ccnbgogl.s:3706   .debug_str:000000000000048c .LASF126
     /tmp/ccnbgogl.s:3606   .debug_str:00000000000001a5 .LASF128
     /tmp/ccnbgogl.s:3674   .debug_str:000000000000038d .LASF127
     /tmp/ccnbgogl.s:3710   .debug_str:00000000000004b0 .LASF129
     /tmp/ccnbgogl.s:3726   .debug_str:0000000000000503 .LASF130
     /tmp/ccnbgogl.s:3788   .debug_str:00000000000006ef .LASF131
     /tmp/ccnbgogl.s:3678   .debug_str:00000000000003ab .LASF132
     /tmp/ccnbgogl.s:3630   .debug_str:000000000000025f .LASF133
     /tmp/ccnbgogl.s:3736   .debug_str:0000000000000557 .LASF134
     /tmp/ccnbgogl.s:3652   .debug_str:0000000000000307 .LASF135
     /tmp/ccnbgogl.s:3614   .debug_str:00000000000001cb .LASF136
     /tmp/ccnbgogl.s:3682   .debug_str:00000000000003d3 .LASF137
     /tmp/ccnbgogl.s:3744   .debug_str:000000000000059d .LASF138
     /tmp/ccnbgogl.s:3598   .debug_str:0000000000000166 .LASF139
     /tmp/ccnbgogl.s:594    .text:00000000000002d4 .LVL40
     /tmp/ccnbgogl.s:606    .text:00000000000002e8 .LVL41
     /tmp/ccnbgogl.s:560    .text:00000000000002a8 .LVL37
     /tmp/ccnbgogl.s:572    .text:00000000000002bc .LVL38
     /tmp/ccnbgogl.s:311    .text:0000000000000154 .LVL20
     /tmp/ccnbgogl.s:336    .text:000000000000018c .LVL23
     /tmp/ccnbgogl.s:78     .text:000000000000002c .LVL3
     /tmp/ccnbgogl.s:94     .text:000000000000004c .LVL4
     /tmp/ccnbgogl.s:519    .text:0000000000000270 .LVL34
     /tmp/ccnbgogl.s:535    .text:0000000000000290 .LVL35
     /tmp/ccnbgogl.s:41     .text:0000000000000000 .LVL1
     /tmp/ccnbgogl.s:461    .text:000000000000021c .LVL27
     /tmp/ccnbgogl.s:481    .text:000000000000023c .LVL29
     /tmp/ccnbgogl.s:496    .text:0000000000000254 .LVL31
     /tmp/ccnbgogl.s:505    .text:0000000000000264 .LVL32
     /tmp/ccnbgogl.s:471    .text:000000000000022c .LVL28
     /tmp/ccnbgogl.s:272    .text:0000000000000114 .LVL16
     /tmp/ccnbgogl.s:297    .text:000000000000014c .LVL19
     /tmp/ccnbgogl.s:193    .text:00000000000000b4 .LVL10
     /tmp/ccnbgogl.s:220    .text:00000000000000e0 .LVL12
     /tmp/ccnbgogl.s:213    .text:00000000000000dc .LVL11
     /tmp/ccnbgogl.s:159    .text:000000000000008c .LVL8
     /tmp/ccnbgogl.s:127    .text:0000000000000064 .LVL6
GAS LISTING /tmp/ccnbgogl.s 			page 25


     /tmp/ccnbgogl.s:650    .debug_info:0000000000000000 .Ldebug_info0
     /tmp/ccnbgogl.s:5      .text:0000000000000000 .Ltext0
     /tmp/ccnbgogl.s:643    .text:0000000000000300 .Letext0
     /tmp/ccnbgogl.s:111    .gcc_except_table:0000000000000000 .LLSDA39
     /tmp/ccnbgogl.s:256    .gcc_except_table:0000000000000004 .LLSDA30

UNDEFINED SYMBOLS
_Z9sem_closeP3SEM
__gxx_personality_v0
_Z9mem_allocm
_Z8mem_freePv
_ZN15MemoryAllocator8InstanceEv
_ZN15MemoryAllocator8mem_freeEPv
_Z15thread_dispatchv
_Z13thread_createPP3TCBPFvPvES2_
_Z8sem_openPP3SEMj
_Z8sem_waitP3SEM
_Z10sem_signalP3SEM
