GAS LISTING /tmp/ccXrZxgX.s 			page 1


   1              		.file	"syscall_cpp.cpp"
   2              		.option pic
   3              		.option norelax
   4              		.text
   5              	.Ltext0:
   6              		.section	.text._ZN6Thread3runEv,"axG",@progbits,_ZN6Thread3runEv,comdat
   7              		.align	2
   8              		.weak	_ZN6Thread3runEv
  10              	_ZN6Thread3runEv:
  11              	.LFB27:
  12              		.file 1 "src/../h/syscall_cpp.hpp"
   1:src/../h/syscall_cpp.hpp **** //
   2:src/../h/syscall_cpp.hpp **** // Created by os on 9/8/25.
   3:src/../h/syscall_cpp.hpp **** //
   4:src/../h/syscall_cpp.hpp **** 
   5:src/../h/syscall_cpp.hpp **** #ifndef PROJECT_BASE_V1_1_COPY_SYSCALL_CPP_HPP
   6:src/../h/syscall_cpp.hpp **** #define PROJECT_BASE_V1_1_COPY_SYSCALL_CPP_HPP
   7:src/../h/syscall_cpp.hpp **** #include "../lib/hw.h"
   8:src/../h/syscall_cpp.hpp **** #include "TCB.hpp"
   9:src/../h/syscall_cpp.hpp **** typedef TCB* thread_t;
  10:src/../h/syscall_cpp.hpp **** 
  11:src/../h/syscall_cpp.hpp **** 
  12:src/../h/syscall_cpp.hpp **** void* operator new (size_t);
  13:src/../h/syscall_cpp.hpp **** void operator delete (void*);
  14:src/../h/syscall_cpp.hpp **** 
  15:src/../h/syscall_cpp.hpp **** 
  16:src/../h/syscall_cpp.hpp **** class Thread {
  17:src/../h/syscall_cpp.hpp **** public:
  18:src/../h/syscall_cpp.hpp ****     Thread (void (*body)(void*), void* arg);
  19:src/../h/syscall_cpp.hpp ****     virtual ~Thread ();
  20:src/../h/syscall_cpp.hpp ****     int start ();
  21:src/../h/syscall_cpp.hpp ****     static void dispatch ();
  22:src/../h/syscall_cpp.hpp ****     //static int sleep (time_t);
  23:src/../h/syscall_cpp.hpp **** protected:
  24:src/../h/syscall_cpp.hpp ****     Thread ();
  25:src/../h/syscall_cpp.hpp ****     virtual void run () {}
  13              		.loc 1 25 18
  14              		.cfi_startproc
  15              	.LVL0:
  16 0000 130101FF 		addi	sp,sp,-16
  17              		.cfi_def_cfa_offset 16
  18 0004 23348100 		sd	s0,8(sp)
  19              		.cfi_offset 8, -8
  20 0008 13040101 		addi	s0,sp,16
  21              		.cfi_def_cfa 8, 0
  22              		.loc 1 25 26 is_stmt 0
  23 000c 03348100 		ld	s0,8(sp)
  24              		.cfi_restore 8
  25              		.cfi_def_cfa 2, 16
  26 0010 13010101 		addi	sp,sp,16
  27              		.cfi_def_cfa_offset 0
  28 0014 67800000 		jr	ra
  29              		.cfi_endproc
  30              	.LFE27:
  32              		.text
  33              		.align	2
  34              		.globl	_ZN6ThreadD2Ev
GAS LISTING /tmp/ccXrZxgX.s 			page 2


  36              	_ZN6ThreadD2Ev:
  37              	.LFB38:
  38              		.file 2 "src/syscall_cpp.cpp"
   1:src/syscall_cpp.cpp **** //
   2:src/syscall_cpp.cpp **** // Created by os on 9/8/25.
   3:src/syscall_cpp.cpp **** //
   4:src/syscall_cpp.cpp **** #include "../h/syscall_cpp.hpp"
   5:src/syscall_cpp.cpp **** #include "../h/syscall_c.hpp"
   6:src/syscall_cpp.cpp **** 
   7:src/syscall_cpp.cpp **** void* operator new(size_t size)
   8:src/syscall_cpp.cpp **** {
   9:src/syscall_cpp.cpp ****     return mem_alloc(size);
  10:src/syscall_cpp.cpp **** }
  11:src/syscall_cpp.cpp **** 
  12:src/syscall_cpp.cpp **** void operator delete(void* ptr)
  13:src/syscall_cpp.cpp **** {
  14:src/syscall_cpp.cpp ****     mem_free(ptr);
  15:src/syscall_cpp.cpp **** }
  16:src/syscall_cpp.cpp **** 
  17:src/syscall_cpp.cpp **** Thread::Thread(void (*body)(void *), void *arg) {
  18:src/syscall_cpp.cpp ****     myHandle= nullptr;
  19:src/syscall_cpp.cpp ****     this->body=body;
  20:src/syscall_cpp.cpp ****     this->arg=arg;
  21:src/syscall_cpp.cpp **** }
  22:src/syscall_cpp.cpp **** void Thread::dispatch() {
  23:src/syscall_cpp.cpp ****     thread_dispatch();
  24:src/syscall_cpp.cpp **** }
  25:src/syscall_cpp.cpp **** Thread::Thread() {
  26:src/syscall_cpp.cpp ****     myHandle=nullptr;
  27:src/syscall_cpp.cpp ****     body=nullptr;
  28:src/syscall_cpp.cpp ****     arg=nullptr;
  29:src/syscall_cpp.cpp **** }
  30:src/syscall_cpp.cpp **** Thread::~Thread() { }
  39              		.loc 2 30 1 is_stmt 1
  40              		.cfi_startproc
  41              	.LVL1:
  42 0000 130101FF 		addi	sp,sp,-16
  43              		.cfi_def_cfa_offset 16
  44 0004 23348100 		sd	s0,8(sp)
  45              		.cfi_offset 8, -8
  46 0008 13040101 		addi	s0,sp,16
  47              		.cfi_def_cfa 8, 0
  48              		.loc 2 30 21 is_stmt 0
  49 000c 03348100 		ld	s0,8(sp)
  50              		.cfi_restore 8
  51              		.cfi_def_cfa 2, 16
  52 0010 13010101 		addi	sp,sp,16
  53              		.cfi_def_cfa_offset 0
  54 0014 67800000 		jr	ra
  55              		.cfi_endproc
  56              	.LFE38:
  58              		.globl	_ZN6ThreadD1Ev
  59              		.set	_ZN6ThreadD1Ev,_ZN6ThreadD2Ev
  60              		.align	2
  61              		.globl	_ZN6Thread7wrapperEPv
  63              	_ZN6Thread7wrapperEPv:
  64              	.LFB42:
GAS LISTING /tmp/ccXrZxgX.s 			page 3


  31:src/syscall_cpp.cpp **** 
  32:src/syscall_cpp.cpp **** int Thread::start() {
  33:src/syscall_cpp.cpp ****     int ret=0;
  34:src/syscall_cpp.cpp ****     if(body!=nullptr)
  35:src/syscall_cpp.cpp ****     {
  36:src/syscall_cpp.cpp ****         ret = thread_create(&myHandle, body, arg);
  37:src/syscall_cpp.cpp ****     }
  38:src/syscall_cpp.cpp ****     else if(body== nullptr)
  39:src/syscall_cpp.cpp ****     {
  40:src/syscall_cpp.cpp ****         ret = thread_create(&myHandle, wrapper, (void*)this);
  41:src/syscall_cpp.cpp ****     }
  42:src/syscall_cpp.cpp ****     return ret;
  43:src/syscall_cpp.cpp **** }
  44:src/syscall_cpp.cpp **** void Thread::wrapper(void* ptr)
  45:src/syscall_cpp.cpp **** {
  65              		.loc 2 45 1 is_stmt 1
  66              		.cfi_startproc
  67              	.LVL2:
  68 0018 130101FF 		addi	sp,sp,-16
  69              		.cfi_def_cfa_offset 16
  70 001c 23341100 		sd	ra,8(sp)
  71 0020 23308100 		sd	s0,0(sp)
  72              		.cfi_offset 1, -8
  73              		.cfi_offset 8, -16
  74 0024 13040101 		addi	s0,sp,16
  75              		.cfi_def_cfa 8, 0
  46:src/syscall_cpp.cpp ****     ((Thread*)ptr)->run();
  76              		.loc 2 46 5
  77              		.loc 2 46 25 is_stmt 0
  78 0028 83370500 		ld	a5,0(a0)
  79 002c 83B70701 		ld	a5,16(a5)
  80              		.loc 2 46 24
  81 0030 E7800700 		jalr	a5
  82              	.LVL3:
  47:src/syscall_cpp.cpp **** }...
  83              		.loc 2 47 1
  84 0034 83308100 		ld	ra,8(sp)
  85              		.cfi_restore 1
  86 0038 03340100 		ld	s0,0(sp)
  87              		.cfi_restore 8
  88              		.cfi_def_cfa 2, 16
  89 003c 13010101 		addi	sp,sp,16
  90              		.cfi_def_cfa_offset 0
  91 0040 67800000 		jr	ra
  92              		.cfi_endproc
  93              	.LFE42:
  95              		.align	2
  96              		.globl	_Znwm
  98              	_Znwm:
  99              	.LFB28:
   8:src/syscall_cpp.cpp **** {
 100              		.loc 2 8 1 is_stmt 1
 101              		.cfi_startproc
 102              	.LVL4:
 103 0044 130101FF 		addi	sp,sp,-16
 104              		.cfi_def_cfa_offset 16
 105 0048 23341100 		sd	ra,8(sp)
GAS LISTING /tmp/ccXrZxgX.s 			page 4


 106 004c 23308100 		sd	s0,0(sp)
 107              		.cfi_offset 1, -8
 108              		.cfi_offset 8, -16
 109 0050 13040101 		addi	s0,sp,16
 110              		.cfi_def_cfa 8, 0
   9:src/syscall_cpp.cpp ****     return mem_alloc(size);
 111              		.loc 2 9 5
   9:src/syscall_cpp.cpp ****     return mem_alloc(size);
 112              		.loc 2 9 21 is_stmt 0
 113 0054 97000000 		call	_Z9mem_allocm@plt
 113      E7800000 
 114              	.LVL5:
  10:src/syscall_cpp.cpp **** }
 115              		.loc 2 10 1
 116 005c 83308100 		ld	ra,8(sp)
 117              		.cfi_restore 1
 118 0060 03340100 		ld	s0,0(sp)
 119              		.cfi_restore 8
 120              		.cfi_def_cfa 2, 16
 121 0064 13010101 		addi	sp,sp,16
 122              		.cfi_def_cfa_offset 0
 123 0068 67800000 		jr	ra
 124              		.cfi_endproc
 125              	.LFE28:
 127              		.align	2
 128              		.globl	_ZdlPv
 130              	_ZdlPv:
 131              	.LFB29:
  13:src/syscall_cpp.cpp **** {
 132              		.loc 2 13 1 is_stmt 1
 133              		.cfi_startproc
 134              	.LVL6:
 135 006c 130101FF 		addi	sp,sp,-16
 136              		.cfi_def_cfa_offset 16
 137 0070 23341100 		sd	ra,8(sp)
 138 0074 23308100 		sd	s0,0(sp)
 139              		.cfi_offset 1, -8
 140              		.cfi_offset 8, -16
 141 0078 13040101 		addi	s0,sp,16
 142              		.cfi_def_cfa 8, 0
  14:src/syscall_cpp.cpp ****     mem_free(ptr);
 143              		.loc 2 14 5
  14:src/syscall_cpp.cpp ****     mem_free(ptr);
 144              		.loc 2 14 13 is_stmt 0
 145 007c 97000000 		call	_Z8mem_freePv@plt
 145      E7800000 
 146              	.LVL7:
  15:src/syscall_cpp.cpp **** }
 147              		.loc 2 15 1
 148 0084 83308100 		ld	ra,8(sp)
 149              		.cfi_restore 1
 150 0088 03340100 		ld	s0,0(sp)
 151              		.cfi_restore 8
 152              		.cfi_def_cfa 2, 16
 153 008c 13010101 		addi	sp,sp,16
 154              		.cfi_def_cfa_offset 0
 155 0090 67800000 		jr	ra
GAS LISTING /tmp/ccXrZxgX.s 			page 5


 156              		.cfi_endproc
 157              	.LFE29:
 159              		.align	2
 160              		.globl	_ZN6ThreadD0Ev
 162              	_ZN6ThreadD0Ev:
 163              	.LFB40:
  30:src/syscall_cpp.cpp **** Thread::~Thread() { }
 164              		.loc 2 30 1 is_stmt 1
 165              		.cfi_startproc
 166              	.LVL8:
 167 0094 130101FF 		addi	sp,sp,-16
 168              		.cfi_def_cfa_offset 16
 169 0098 23341100 		sd	ra,8(sp)
 170 009c 23308100 		sd	s0,0(sp)
 171              		.cfi_offset 1, -8
 172              		.cfi_offset 8, -16
 173 00a0 13040101 		addi	s0,sp,16
 174              		.cfi_def_cfa 8, 0
  30:src/syscall_cpp.cpp **** Thread::~Thread() { }
 175              		.loc 2 30 21 is_stmt 0
 176 00a4 97000000 		call	_ZdlPv
 176      E7800000 
 177              	.LVL9:
 178 00ac 83308100 		ld	ra,8(sp)
 179              		.cfi_restore 1
 180 00b0 03340100 		ld	s0,0(sp)
 181              		.cfi_restore 8
 182              		.cfi_def_cfa 2, 16
 183 00b4 13010101 		addi	sp,sp,16
 184              		.cfi_def_cfa_offset 0
 185 00b8 67800000 		jr	ra
 186              		.cfi_endproc
 187              	.LFE40:
 189              		.align	2
 190              		.globl	_ZN6ThreadC2EPFvPvES0_
 192              	_ZN6ThreadC2EPFvPvES0_:
 193              	.LFB31:
  17:src/syscall_cpp.cpp **** Thread::Thread(void (*body)(void *), void *arg) {
 194              		.loc 2 17 1 is_stmt 1
 195              		.cfi_startproc
 196              	.LVL10:
 197 00bc 130101FF 		addi	sp,sp,-16
 198              		.cfi_def_cfa_offset 16
 199 00c0 23348100 		sd	s0,8(sp)
 200              		.cfi_offset 8, -8
 201 00c4 13040101 		addi	s0,sp,16
 202              		.cfi_def_cfa 8, 0
 203              	.LBB2:
  17:src/syscall_cpp.cpp **** Thread::Thread(void (*body)(void *), void *arg) {
 204              		.loc 2 17 47 is_stmt 0
 205 00c8 97070000 		lla	a5,_ZTV6Thread+16
 205      93870700 
 206 00d0 2330F500 		sd	a5,0(a0)
  18:src/syscall_cpp.cpp ****     myHandle= nullptr;
 207              		.loc 2 18 5 is_stmt 1
  18:src/syscall_cpp.cpp ****     myHandle= nullptr;
 208              		.loc 2 18 13 is_stmt 0
GAS LISTING /tmp/ccXrZxgX.s 			page 6


 209 00d4 23340500 		sd	zero,8(a0)
  19:src/syscall_cpp.cpp ****     this->body=body;
 210              		.loc 2 19 5 is_stmt 1
  19:src/syscall_cpp.cpp ****     this->body=body;
 211              		.loc 2 19 15 is_stmt 0
 212 00d8 2338B500 		sd	a1,16(a0)
  20:src/syscall_cpp.cpp ****     this->arg=arg;
 213              		.loc 2 20 5 is_stmt 1
  20:src/syscall_cpp.cpp ****     this->arg=arg;
 214              		.loc 2 20 14 is_stmt 0
 215 00dc 233CC500 		sd	a2,24(a0)
 216              	.LBE2:
  21:src/syscall_cpp.cpp **** }
 217              		.loc 2 21 1
 218 00e0 03348100 		ld	s0,8(sp)
 219              		.cfi_restore 8
 220              		.cfi_def_cfa 2, 16
 221 00e4 13010101 		addi	sp,sp,16
 222              		.cfi_def_cfa_offset 0
 223 00e8 67800000 		jr	ra
 224              		.cfi_endproc
 225              	.LFE31:
 227              		.globl	_ZN6ThreadC1EPFvPvES0_
 228              		.set	_ZN6ThreadC1EPFvPvES0_,_ZN6ThreadC2EPFvPvES0_
 229              		.align	2
 230              		.globl	_ZN6Thread8dispatchEv
 232              	_ZN6Thread8dispatchEv:
 233              	.LFB33:
  22:src/syscall_cpp.cpp **** void Thread::dispatch() {
 234              		.loc 2 22 25 is_stmt 1
 235              		.cfi_startproc
 236 00ec 130101FF 		addi	sp,sp,-16
 237              		.cfi_def_cfa_offset 16
 238 00f0 23341100 		sd	ra,8(sp)
 239 00f4 23308100 		sd	s0,0(sp)
 240              		.cfi_offset 1, -8
 241              		.cfi_offset 8, -16
 242 00f8 13040101 		addi	s0,sp,16
 243              		.cfi_def_cfa 8, 0
  23:src/syscall_cpp.cpp ****     thread_dispatch();
 244              		.loc 2 23 5
  23:src/syscall_cpp.cpp ****     thread_dispatch();
 245              		.loc 2 23 20 is_stmt 0
 246 00fc 97000000 		call	_Z15thread_dispatchv@plt
 246      E7800000 
 247              	.LVL11:
  24:src/syscall_cpp.cpp **** }
 248              		.loc 2 24 1
 249 0104 83308100 		ld	ra,8(sp)
 250              		.cfi_restore 1
 251 0108 03340100 		ld	s0,0(sp)
 252              		.cfi_restore 8
 253              		.cfi_def_cfa 2, 16
 254 010c 13010101 		addi	sp,sp,16
 255              		.cfi_def_cfa_offset 0
 256 0110 67800000 		jr	ra
 257              		.cfi_endproc
GAS LISTING /tmp/ccXrZxgX.s 			page 7


 258              	.LFE33:
 260              		.align	2
 261              		.globl	_ZN6ThreadC2Ev
 263              	_ZN6ThreadC2Ev:
 264              	.LFB35:
  25:src/syscall_cpp.cpp **** Thread::Thread() {
 265              		.loc 2 25 1 is_stmt 1
 266              		.cfi_startproc
 267              	.LVL12:
 268 0114 130101FF 		addi	sp,sp,-16
 269              		.cfi_def_cfa_offset 16
 270 0118 23348100 		sd	s0,8(sp)
 271              		.cfi_offset 8, -8
 272 011c 13040101 		addi	s0,sp,16
 273              		.cfi_def_cfa 8, 0
 274              	.LBB3:
  25:src/syscall_cpp.cpp **** Thread::Thread() {
 275              		.loc 2 25 16 is_stmt 0
 276 0120 97070000 		lla	a5,_ZTV6Thread+16
 276      93870700 
 277 0128 2330F500 		sd	a5,0(a0)
  26:src/syscall_cpp.cpp ****     myHandle=nullptr;
 278              		.loc 2 26 5 is_stmt 1
  26:src/syscall_cpp.cpp ****     myHandle=nullptr;
 279              		.loc 2 26 13 is_stmt 0
 280 012c 23340500 		sd	zero,8(a0)
  27:src/syscall_cpp.cpp ****     body=nullptr;
 281              		.loc 2 27 5 is_stmt 1
  27:src/syscall_cpp.cpp ****     body=nullptr;
 282              		.loc 2 27 9 is_stmt 0
 283 0130 23380500 		sd	zero,16(a0)
  28:src/syscall_cpp.cpp ****     arg=nullptr;
 284              		.loc 2 28 5 is_stmt 1
  28:src/syscall_cpp.cpp ****     arg=nullptr;
 285              		.loc 2 28 8 is_stmt 0
 286 0134 233C0500 		sd	zero,24(a0)
 287              	.LBE3:
  29:src/syscall_cpp.cpp **** }
 288              		.loc 2 29 1
 289 0138 03348100 		ld	s0,8(sp)
 290              		.cfi_restore 8
 291              		.cfi_def_cfa 2, 16
 292 013c 13010101 		addi	sp,sp,16
 293              		.cfi_def_cfa_offset 0
 294 0140 67800000 		jr	ra
 295              		.cfi_endproc
 296              	.LFE35:
 298              		.globl	_ZN6ThreadC1Ev
 299              		.set	_ZN6ThreadC1Ev,_ZN6ThreadC2Ev
 300              		.align	2
 301              		.globl	_ZN6Thread5startEv
 303              	_ZN6Thread5startEv:
 304              	.LFB41:
  32:src/syscall_cpp.cpp **** int Thread::start() {
 305              		.loc 2 32 21 is_stmt 1
 306              		.cfi_startproc
 307              	.LVL13:
GAS LISTING /tmp/ccXrZxgX.s 			page 8


 308 0144 130101FF 		addi	sp,sp,-16
 309              		.cfi_def_cfa_offset 16
 310 0148 23341100 		sd	ra,8(sp)
 311 014c 23308100 		sd	s0,0(sp)
 312              		.cfi_offset 1, -8
 313              		.cfi_offset 8, -16
 314 0150 13040101 		addi	s0,sp,16
 315              		.cfi_def_cfa 8, 0
  33:src/syscall_cpp.cpp ****     int ret=0;
 316              		.loc 2 33 5
 317              	.LVL14:
  34:src/syscall_cpp.cpp ****     if(body!=nullptr)
 318              		.loc 2 34 5
  34:src/syscall_cpp.cpp ****     if(body!=nullptr)
 319              		.loc 2 34 8 is_stmt 0
 320 0154 83350501 		ld	a1,16(a0)
  34:src/syscall_cpp.cpp ****     if(body!=nullptr)
 321              		.loc 2 34 5
 322 0158 63820502 		beqz	a1,.L20
  36:src/syscall_cpp.cpp ****         ret = thread_create(&myHandle, body, arg);
 323              		.loc 2 36 9 is_stmt 1
  36:src/syscall_cpp.cpp ****         ret = thread_create(&myHandle, body, arg);
 324              		.loc 2 36 28 is_stmt 0
 325 015c 03368501 		ld	a2,24(a0)
 326 0160 13058500 		addi	a0,a0,8
 327              	.LVL15:
 328 0164 97000000 		call	_Z13thread_createPP3TCBPFvPvES2_@plt
 328      E7800000 
 329              	.LVL16:
 330              	.L21:
  42:src/syscall_cpp.cpp ****     return ret;
 331              		.loc 2 42 5 is_stmt 1
  43:src/syscall_cpp.cpp **** }
 332              		.loc 2 43 1 is_stmt 0
 333 016c 83308100 		ld	ra,8(sp)
 334              		.cfi_remember_state
 335              		.cfi_restore 1
 336 0170 03340100 		ld	s0,0(sp)
 337              		.cfi_restore 8
 338              		.cfi_def_cfa 2, 16
 339 0174 13010101 		addi	sp,sp,16
 340              		.cfi_def_cfa_offset 0
 341 0178 67800000 		jr	ra
 342              	.LVL17:
 343              	.L20:
 344              		.cfi_restore_state
  38:src/syscall_cpp.cpp ****     else if(body== nullptr)
 345              		.loc 2 38 10 is_stmt 1
  40:src/syscall_cpp.cpp ****         ret = thread_create(&myHandle, wrapper, (void*)this);
 346              		.loc 2 40 9
  40:src/syscall_cpp.cpp ****         ret = thread_create(&myHandle, wrapper, (void*)this);
 347              		.loc 2 40 28 is_stmt 0
 348 017c 13060500 		mv	a2,a0
 349 0180 97050000 		lla	a1,_ZN6Thread7wrapperEPv
 349      93850500 
 350 0188 13058500 		addi	a0,a0,8
 351              	.LVL18:
GAS LISTING /tmp/ccXrZxgX.s 			page 9


 352 018c 97000000 		call	_Z13thread_createPP3TCBPFvPvES2_@plt
 352      E7800000 
 353              	.LVL19:
 354 0194 6FF09FFD 		j	.L21
 355              		.cfi_endproc
 356              	.LFE41:
 358              		.weak	_ZTV6Thread
 359              		.section	.data.rel.ro.local._ZTV6Thread,"awG",@progbits,_ZTV6Thread,comdat
 360              		.align	3
 363              	_ZTV6Thread:
 364 0000 00000000 		.dword	0
 364      00000000 
 365 0008 00000000 		.dword	0
 365      00000000 
 366 0010 00000000 		.dword	_ZN6ThreadD1Ev
 366      00000000 
 367 0018 00000000 		.dword	_ZN6ThreadD0Ev
 367      00000000 
 368 0020 00000000 		.dword	_ZN6Thread3runEv
 368      00000000 
 369              		.text
 370              	.Letext0:
 371              		.file 3 "src/../h/../lib/hw.h"
 372              		.file 4 "src/../h/TCB.hpp"
 373              		.file 5 "src/../h/syscall_c.hpp"
GAS LISTING /tmp/ccXrZxgX.s 			page 10


DEFINED SYMBOLS
                            *ABS*:0000000000000000 syscall_cpp.cpp
     /tmp/ccXrZxgX.s:10     .text._ZN6Thread3runEv:0000000000000000 _ZN6Thread3runEv
     /tmp/ccXrZxgX.s:14     .text._ZN6Thread3runEv:0000000000000000 .L0 
     /tmp/ccXrZxgX.s:16     .text._ZN6Thread3runEv:0000000000000000 .L0 
     /tmp/ccXrZxgX.s:17     .text._ZN6Thread3runEv:0000000000000004 .L0 
     /tmp/ccXrZxgX.s:19     .text._ZN6Thread3runEv:0000000000000008 .L0 
     /tmp/ccXrZxgX.s:21     .text._ZN6Thread3runEv:000000000000000c .L0 
     /tmp/ccXrZxgX.s:23     .text._ZN6Thread3runEv:000000000000000c .L0 
     /tmp/ccXrZxgX.s:24     .text._ZN6Thread3runEv:0000000000000010 .L0 
     /tmp/ccXrZxgX.s:25     .text._ZN6Thread3runEv:0000000000000010 .L0 
     /tmp/ccXrZxgX.s:27     .text._ZN6Thread3runEv:0000000000000014 .L0 
     /tmp/ccXrZxgX.s:29     .text._ZN6Thread3runEv:0000000000000018 .L0 
     /tmp/ccXrZxgX.s:36     .text:0000000000000000 _ZN6ThreadD2Ev
     /tmp/ccXrZxgX.s:40     .text:0000000000000000 .L0 
     /tmp/ccXrZxgX.s:42     .text:0000000000000000 .L0 
     /tmp/ccXrZxgX.s:43     .text:0000000000000004 .L0 
     /tmp/ccXrZxgX.s:45     .text:0000000000000008 .L0 
     /tmp/ccXrZxgX.s:47     .text:000000000000000c .L0 
     /tmp/ccXrZxgX.s:49     .text:000000000000000c .L0 
     /tmp/ccXrZxgX.s:50     .text:0000000000000010 .L0 
     /tmp/ccXrZxgX.s:51     .text:0000000000000010 .L0 
     /tmp/ccXrZxgX.s:53     .text:0000000000000014 .L0 
     /tmp/ccXrZxgX.s:55     .text:0000000000000018 .L0 
     /tmp/ccXrZxgX.s:36     .text:0000000000000000 _ZN6ThreadD1Ev
     /tmp/ccXrZxgX.s:63     .text:0000000000000018 _ZN6Thread7wrapperEPv
     /tmp/ccXrZxgX.s:66     .text:0000000000000018 .L0 
     /tmp/ccXrZxgX.s:68     .text:0000000000000018 .L0 
     /tmp/ccXrZxgX.s:69     .text:000000000000001c .L0 
     /tmp/ccXrZxgX.s:72     .text:0000000000000024 .L0 
     /tmp/ccXrZxgX.s:73     .text:0000000000000024 .L0 
     /tmp/ccXrZxgX.s:75     .text:0000000000000028 .L0 
     /tmp/ccXrZxgX.s:77     .text:0000000000000028 .L0 
     /tmp/ccXrZxgX.s:78     .text:0000000000000028 .L0 
     /tmp/ccXrZxgX.s:81     .text:0000000000000030 .L0 
     /tmp/ccXrZxgX.s:84     .text:0000000000000034 .L0 
     /tmp/ccXrZxgX.s:85     .text:0000000000000038 .L0 
     /tmp/ccXrZxgX.s:87     .text:000000000000003c .L0 
     /tmp/ccXrZxgX.s:88     .text:000000000000003c .L0 
     /tmp/ccXrZxgX.s:90     .text:0000000000000040 .L0 
     /tmp/ccXrZxgX.s:92     .text:0000000000000044 .L0 
     /tmp/ccXrZxgX.s:98     .text:0000000000000044 _Znwm
     /tmp/ccXrZxgX.s:101    .text:0000000000000044 .L0 
     /tmp/ccXrZxgX.s:103    .text:0000000000000044 .L0 
     /tmp/ccXrZxgX.s:104    .text:0000000000000048 .L0 
     /tmp/ccXrZxgX.s:107    .text:0000000000000050 .L0 
     /tmp/ccXrZxgX.s:108    .text:0000000000000050 .L0 
     /tmp/ccXrZxgX.s:110    .text:0000000000000054 .L0 
     /tmp/ccXrZxgX.s:112    .text:0000000000000054 .L0 
     /tmp/ccXrZxgX.s:113    .text:0000000000000054 .L0 
     /tmp/ccXrZxgX.s:116    .text:000000000000005c .L0 
     /tmp/ccXrZxgX.s:117    .text:0000000000000060 .L0 
     /tmp/ccXrZxgX.s:119    .text:0000000000000064 .L0 
     /tmp/ccXrZxgX.s:120    .text:0000000000000064 .L0 
     /tmp/ccXrZxgX.s:122    .text:0000000000000068 .L0 
     /tmp/ccXrZxgX.s:124    .text:000000000000006c .L0 
     /tmp/ccXrZxgX.s:130    .text:000000000000006c _ZdlPv
GAS LISTING /tmp/ccXrZxgX.s 			page 11


     /tmp/ccXrZxgX.s:133    .text:000000000000006c .L0 
     /tmp/ccXrZxgX.s:135    .text:000000000000006c .L0 
     /tmp/ccXrZxgX.s:136    .text:0000000000000070 .L0 
     /tmp/ccXrZxgX.s:139    .text:0000000000000078 .L0 
     /tmp/ccXrZxgX.s:140    .text:0000000000000078 .L0 
     /tmp/ccXrZxgX.s:142    .text:000000000000007c .L0 
     /tmp/ccXrZxgX.s:144    .text:000000000000007c .L0 
     /tmp/ccXrZxgX.s:145    .text:000000000000007c .L0 
     /tmp/ccXrZxgX.s:148    .text:0000000000000084 .L0 
     /tmp/ccXrZxgX.s:149    .text:0000000000000088 .L0 
     /tmp/ccXrZxgX.s:151    .text:000000000000008c .L0 
     /tmp/ccXrZxgX.s:152    .text:000000000000008c .L0 
     /tmp/ccXrZxgX.s:154    .text:0000000000000090 .L0 
     /tmp/ccXrZxgX.s:156    .text:0000000000000094 .L0 
     /tmp/ccXrZxgX.s:162    .text:0000000000000094 _ZN6ThreadD0Ev
     /tmp/ccXrZxgX.s:165    .text:0000000000000094 .L0 
     /tmp/ccXrZxgX.s:167    .text:0000000000000094 .L0 
     /tmp/ccXrZxgX.s:168    .text:0000000000000098 .L0 
     /tmp/ccXrZxgX.s:171    .text:00000000000000a0 .L0 
     /tmp/ccXrZxgX.s:172    .text:00000000000000a0 .L0 
     /tmp/ccXrZxgX.s:174    .text:00000000000000a4 .L0 
     /tmp/ccXrZxgX.s:176    .text:00000000000000a4 .L0 
     /tmp/ccXrZxgX.s:179    .text:00000000000000b0 .L0 
     /tmp/ccXrZxgX.s:181    .text:00000000000000b4 .L0 
     /tmp/ccXrZxgX.s:182    .text:00000000000000b4 .L0 
     /tmp/ccXrZxgX.s:184    .text:00000000000000b8 .L0 
     /tmp/ccXrZxgX.s:186    .text:00000000000000bc .L0 
     /tmp/ccXrZxgX.s:192    .text:00000000000000bc _ZN6ThreadC2EPFvPvES0_
     /tmp/ccXrZxgX.s:195    .text:00000000000000bc .L0 
     /tmp/ccXrZxgX.s:197    .text:00000000000000bc .L0 
     /tmp/ccXrZxgX.s:198    .text:00000000000000c0 .L0 
     /tmp/ccXrZxgX.s:200    .text:00000000000000c4 .L0 
     /tmp/ccXrZxgX.s:202    .text:00000000000000c8 .L0 
     /tmp/ccXrZxgX.s:363    .data.rel.ro.local._ZTV6Thread:0000000000000000 _ZTV6Thread
     /tmp/ccXrZxgX.s:205    .text:00000000000000c8 .L0 
     /tmp/ccXrZxgX.s:208    .text:00000000000000d4 .L0 
     /tmp/ccXrZxgX.s:209    .text:00000000000000d4 .L0 
     /tmp/ccXrZxgX.s:211    .text:00000000000000d8 .L0 
     /tmp/ccXrZxgX.s:212    .text:00000000000000d8 .L0 
     /tmp/ccXrZxgX.s:214    .text:00000000000000dc .L0 
     /tmp/ccXrZxgX.s:215    .text:00000000000000dc .L0 
     /tmp/ccXrZxgX.s:218    .text:00000000000000e0 .L0 
     /tmp/ccXrZxgX.s:219    .text:00000000000000e4 .L0 
     /tmp/ccXrZxgX.s:220    .text:00000000000000e4 .L0 
     /tmp/ccXrZxgX.s:222    .text:00000000000000e8 .L0 
     /tmp/ccXrZxgX.s:224    .text:00000000000000ec .L0 
     /tmp/ccXrZxgX.s:192    .text:00000000000000bc _ZN6ThreadC1EPFvPvES0_
     /tmp/ccXrZxgX.s:232    .text:00000000000000ec _ZN6Thread8dispatchEv
     /tmp/ccXrZxgX.s:235    .text:00000000000000ec .L0 
     /tmp/ccXrZxgX.s:236    .text:00000000000000ec .L0 
     /tmp/ccXrZxgX.s:237    .text:00000000000000f0 .L0 
     /tmp/ccXrZxgX.s:240    .text:00000000000000f8 .L0 
     /tmp/ccXrZxgX.s:241    .text:00000000000000f8 .L0 
     /tmp/ccXrZxgX.s:243    .text:00000000000000fc .L0 
     /tmp/ccXrZxgX.s:245    .text:00000000000000fc .L0 
     /tmp/ccXrZxgX.s:246    .text:00000000000000fc .L0 
     /tmp/ccXrZxgX.s:249    .text:0000000000000104 .L0 
GAS LISTING /tmp/ccXrZxgX.s 			page 12


     /tmp/ccXrZxgX.s:250    .text:0000000000000108 .L0 
     /tmp/ccXrZxgX.s:252    .text:000000000000010c .L0 
     /tmp/ccXrZxgX.s:253    .text:000000000000010c .L0 
     /tmp/ccXrZxgX.s:255    .text:0000000000000110 .L0 
     /tmp/ccXrZxgX.s:257    .text:0000000000000114 .L0 
     /tmp/ccXrZxgX.s:263    .text:0000000000000114 _ZN6ThreadC2Ev
     /tmp/ccXrZxgX.s:266    .text:0000000000000114 .L0 
     /tmp/ccXrZxgX.s:268    .text:0000000000000114 .L0 
     /tmp/ccXrZxgX.s:269    .text:0000000000000118 .L0 
     /tmp/ccXrZxgX.s:271    .text:000000000000011c .L0 
     /tmp/ccXrZxgX.s:273    .text:0000000000000120 .L0 
     /tmp/ccXrZxgX.s:276    .text:0000000000000120 .L0 
     /tmp/ccXrZxgX.s:279    .text:000000000000012c .L0 
     /tmp/ccXrZxgX.s:280    .text:000000000000012c .L0 
     /tmp/ccXrZxgX.s:282    .text:0000000000000130 .L0 
     /tmp/ccXrZxgX.s:283    .text:0000000000000130 .L0 
     /tmp/ccXrZxgX.s:285    .text:0000000000000134 .L0 
     /tmp/ccXrZxgX.s:286    .text:0000000000000134 .L0 
     /tmp/ccXrZxgX.s:289    .text:0000000000000138 .L0 
     /tmp/ccXrZxgX.s:290    .text:000000000000013c .L0 
     /tmp/ccXrZxgX.s:291    .text:000000000000013c .L0 
     /tmp/ccXrZxgX.s:293    .text:0000000000000140 .L0 
     /tmp/ccXrZxgX.s:295    .text:0000000000000144 .L0 
     /tmp/ccXrZxgX.s:263    .text:0000000000000114 _ZN6ThreadC1Ev
     /tmp/ccXrZxgX.s:303    .text:0000000000000144 _ZN6Thread5startEv
     /tmp/ccXrZxgX.s:306    .text:0000000000000144 .L0 
     /tmp/ccXrZxgX.s:308    .text:0000000000000144 .L0 
     /tmp/ccXrZxgX.s:309    .text:0000000000000148 .L0 
     /tmp/ccXrZxgX.s:312    .text:0000000000000150 .L0 
     /tmp/ccXrZxgX.s:313    .text:0000000000000150 .L0 
     /tmp/ccXrZxgX.s:315    .text:0000000000000154 .L0 
     /tmp/ccXrZxgX.s:318    .text:0000000000000154 .L0 
     /tmp/ccXrZxgX.s:319    .text:0000000000000154 .L0 
     /tmp/ccXrZxgX.s:320    .text:0000000000000154 .L0 
     /tmp/ccXrZxgX.s:322    .text:0000000000000158 .L0 
     /tmp/ccXrZxgX.s:324    .text:000000000000015c .L0 
     /tmp/ccXrZxgX.s:325    .text:000000000000015c .L0 
     /tmp/ccXrZxgX.s:332    .text:000000000000016c .L0 
     /tmp/ccXrZxgX.s:333    .text:000000000000016c .L0 
     /tmp/ccXrZxgX.s:334    .text:0000000000000170 .L0 
     /tmp/ccXrZxgX.s:335    .text:0000000000000170 .L0 
     /tmp/ccXrZxgX.s:337    .text:0000000000000174 .L0 
     /tmp/ccXrZxgX.s:338    .text:0000000000000174 .L0 
     /tmp/ccXrZxgX.s:340    .text:0000000000000178 .L0 
     /tmp/ccXrZxgX.s:344    .text:000000000000017c .L0 
     /tmp/ccXrZxgX.s:346    .text:000000000000017c .L0 
     /tmp/ccXrZxgX.s:347    .text:000000000000017c .L0 
     /tmp/ccXrZxgX.s:348    .text:000000000000017c .L0 
     /tmp/ccXrZxgX.s:355    .text:0000000000000198 .L0 
     /tmp/ccXrZxgX.s:32     .text._ZN6Thread3runEv:0000000000000018 .L0 
     /tmp/ccXrZxgX.s:374    .text:0000000000000198 .L0 
     /tmp/ccXrZxgX.s:205    .text:00000000000000c8 .L0 
     /tmp/ccXrZxgX.s:276    .text:0000000000000120 .L0 
     /tmp/ccXrZxgX.s:349    .text:0000000000000180 .L0 
     /tmp/ccXrZxgX.s:343    .text:000000000000017c .L20
     /tmp/ccXrZxgX.s:330    .text:000000000000016c .L21
     /tmp/ccXrZxgX.s:1226   .debug_abbrev:0000000000000000 .Ldebug_abbrev0
GAS LISTING /tmp/ccXrZxgX.s 			page 13


     /tmp/ccXrZxgX.s:2438   .debug_str:00000000000003ee .LASF68
     /tmp/ccXrZxgX.s:2420   .debug_str:000000000000036f .LASF69
     /tmp/ccXrZxgX.s:2372   .debug_str:00000000000001f1 .LASF70
     /tmp/ccXrZxgX.s:2286   .debug_ranges:0000000000000000 .Ldebug_ranges0
     /tmp/ccXrZxgX.s:2294   .debug_line:0000000000000000 .Ldebug_line0
     /tmp/ccXrZxgX.s:2378   .debug_str:0000000000000248 .LASF0
     /tmp/ccXrZxgX.s:2390   .debug_str:0000000000000290 .LASF1
     /tmp/ccXrZxgX.s:2370   .debug_str:00000000000001e3 .LASF2
     /tmp/ccXrZxgX.s:2352   .debug_str:000000000000018b .LASF4
     /tmp/ccXrZxgX.s:2426   .debug_str:000000000000039f .LASF3
     /tmp/ccXrZxgX.s:2304   .debug_str:0000000000000029 .LASF5
     /tmp/ccXrZxgX.s:2396   .debug_str:00000000000002d6 .LASF6
     /tmp/ccXrZxgX.s:2376   .debug_str:0000000000000235 .LASF7
     /tmp/ccXrZxgX.s:2448   .debug_str:00000000000004f2 .LASF8
     /tmp/ccXrZxgX.s:2342   .debug_str:0000000000000148 .LASF9
     /tmp/ccXrZxgX.s:2402   .debug_str:0000000000000302 .LASF10
     /tmp/ccXrZxgX.s:2440   .debug_str:00000000000004b2 .LASF11
     /tmp/ccXrZxgX.s:2306   .debug_str:0000000000000030 .LASF12
     /tmp/ccXrZxgX.s:2298   .debug_str:0000000000000009 .LASF13
     /tmp/ccXrZxgX.s:2310   .debug_str:000000000000004f .LASF14
     /tmp/ccXrZxgX.s:2422   .debug_str:0000000000000383 .LASF15
     /tmp/ccXrZxgX.s:2316   .debug_str:0000000000000079 .LASF16
     /tmp/ccXrZxgX.s:2300   .debug_str:0000000000000019 .LASF71
     /tmp/ccXrZxgX.s:2454   .debug_str:0000000000000521 .LASF17
     /tmp/ccXrZxgX.s:2434   .debug_str:00000000000003d3 .LASF19
     /tmp/ccXrZxgX.s:2430   .debug_str:00000000000003bb .LASF29
     /tmp/ccXrZxgX.s:2418   .debug_str:0000000000000362 .LASF46
     /tmp/ccXrZxgX.s:2322   .debug_str:00000000000000ac .LASF18
     /tmp/ccXrZxgX.s:2412   .debug_str:000000000000034c .LASF20
     /tmp/ccXrZxgX.s:2360   .debug_str:00000000000001a8 .LASF21
     /tmp/ccXrZxgX.s:2456   .debug_str:000000000000052e .LASF22
     /tmp/ccXrZxgX.s:2414   .debug_str:0000000000000358 .LASF72
     /tmp/ccXrZxgX.s:2380   .debug_str:0000000000000255 .LASF41
     /tmp/ccXrZxgX.s:2328   .debug_str:00000000000000c3 .LASF42
     /tmp/ccXrZxgX.s:2362   .debug_str:00000000000001b5 .LASF73
     /tmp/ccXrZxgX.s:2308   .debug_str:0000000000000040 .LASF74
     /tmp/ccXrZxgX.s:2398   .debug_str:00000000000002e9 .LASF25
     /tmp/ccXrZxgX.s:2340   .debug_str:0000000000000131 .LASF27
     /tmp/ccXrZxgX.s:2344   .debug_str:0000000000000156 .LASF23
     /tmp/ccXrZxgX.s:2332   .debug_str:00000000000000db .LASF24
     /tmp/ccXrZxgX.s:2444   .debug_str:00000000000004d7 .LASF26
     /tmp/ccXrZxgX.s:2374   .debug_str:000000000000021d .LASF28
     /tmp/ccXrZxgX.s:2326   .debug_str:00000000000000bb .LASF75
     /tmp/ccXrZxgX.s:2386   .debug_str:0000000000000273 .LASF76
     /tmp/ccXrZxgX.s:2354   .debug_str:0000000000000192 .LASF30
     /tmp/ccXrZxgX.s:2382   .debug_str:000000000000025e .LASF31
     /tmp/ccXrZxgX.s:2324   .debug_str:00000000000000b1 .LASF32
     /tmp/ccXrZxgX.s:2358   .debug_str:00000000000001a0 .LASF33
     /tmp/ccXrZxgX.s:2356   .debug_str:000000000000019b .LASF34
     /tmp/ccXrZxgX.s:2368   .debug_str:00000000000001d8 .LASF77
     /tmp/ccXrZxgX.s:2442   .debug_str:00000000000004c1 .LASF78
     /tmp/ccXrZxgX.s:2330   .debug_str:00000000000000d6 .LASF35
     /tmp/ccXrZxgX.s:2296   .debug_str:0000000000000000 .LASF36
     /tmp/ccXrZxgX.s:2346   .debug_str:0000000000000163 .LASF37
     /tmp/ccXrZxgX.s:2392   .debug_str:00000000000002a3 .LASF79
     /tmp/ccXrZxgX.s:2366   .debug_str:00000000000001cb .LASF80
     /tmp/ccXrZxgX.s:2406   .debug_str:0000000000000327 .LASF38
GAS LISTING /tmp/ccXrZxgX.s 			page 14


     /tmp/ccXrZxgX.s:2302   .debug_str:0000000000000021 .LASF56
     /tmp/ccXrZxgX.s:2384   .debug_str:0000000000000264 .LASF57
     /tmp/ccXrZxgX.s:2388   .debug_str:000000000000028a .LASF39
     /tmp/ccXrZxgX.s:2338   .debug_str:000000000000011e .LASF40
     /tmp/ccXrZxgX.s:2336   .debug_str:0000000000000108 .LASF43
     /tmp/ccXrZxgX.s:2446   .debug_str:00000000000004e3 .LASF44
     /tmp/ccXrZxgX.s:2364   .debug_str:00000000000001ba .LASF81
     /tmp/ccXrZxgX.s:2432   .debug_str:00000000000003cb .LASF45
     /tmp/ccXrZxgX.s:2404   .debug_str:0000000000000311 .LASF47
     /tmp/ccXrZxgX.s:2458   .debug_str:0000000000000550 .LASF48
     /tmp/ccXrZxgX.s:2450   .debug_str:0000000000000502 .LASF82
     /tmp/ccXrZxgX.s:64     .text:0000000000000018 .LFB42
     /tmp/ccXrZxgX.s:93     .text:0000000000000044 .LFE42
     /tmp/ccXrZxgX.s:2159   .debug_loc:0000000000000000 .LLST0
     /tmp/ccXrZxgX.s:82     .text:0000000000000034 .LVL3
     /tmp/ccXrZxgX.s:304    .text:0000000000000144 .LFB41
     /tmp/ccXrZxgX.s:356    .text:0000000000000198 .LFE41
     /tmp/ccXrZxgX.s:2410   .debug_str:0000000000000347 .LASF49
     /tmp/ccXrZxgX.s:2173   .debug_loc:0000000000000039 .LLST4
     /tmp/ccXrZxgX.s:2208   .debug_loc:00000000000000c3 .LLST5
     /tmp/ccXrZxgX.s:329    .text:000000000000016c .LVL16
     /tmp/ccXrZxgX.s:353    .text:0000000000000194 .LVL19
     /tmp/ccXrZxgX.s:2350   .debug_str:0000000000000181 .LASF50
     /tmp/ccXrZxgX.s:2318   .debug_str:000000000000008f .LASF51
     /tmp/ccXrZxgX.s:163    .text:0000000000000094 .LFB40
     /tmp/ccXrZxgX.s:187    .text:00000000000000bc .LFE40
     /tmp/ccXrZxgX.s:2229   .debug_loc:0000000000000121 .LLST3
     /tmp/ccXrZxgX.s:177    .text:00000000000000ac .LVL9
     /tmp/ccXrZxgX.s:2436   .debug_str:00000000000003df .LASF52
     /tmp/ccXrZxgX.s:37     .text:0000000000000000 .LFB38
     /tmp/ccXrZxgX.s:56     .text:0000000000000018 .LFE38
     /tmp/ccXrZxgX.s:2452   .debug_str:0000000000000512 .LASF53
     /tmp/ccXrZxgX.s:264    .text:0000000000000114 .LFB35
     /tmp/ccXrZxgX.s:296    .text:0000000000000144 .LFE35
     /tmp/ccXrZxgX.s:233    .text:00000000000000ec .LFB33
     /tmp/ccXrZxgX.s:258    .text:0000000000000114 .LFE33
     /tmp/ccXrZxgX.s:247    .text:0000000000000104 .LVL11
     /tmp/ccXrZxgX.s:2348   .debug_str:000000000000016a .LASF54
     /tmp/ccXrZxgX.s:193    .text:00000000000000bc .LFB31
     /tmp/ccXrZxgX.s:225    .text:00000000000000ec .LFE31
     /tmp/ccXrZxgX.s:2460   .debug_str:0000000000000559 .LASF55
     /tmp/ccXrZxgX.s:131    .text:000000000000006c .LFB29
     /tmp/ccXrZxgX.s:157    .text:0000000000000094 .LFE29
     /tmp/ccXrZxgX.s:2243   .debug_loc:000000000000015a .LLST2
     /tmp/ccXrZxgX.s:146    .text:0000000000000084 .LVL7
     /tmp/ccXrZxgX.s:2424   .debug_str:0000000000000399 .LASF58
     /tmp/ccXrZxgX.s:99     .text:0000000000000044 .LFB28
     /tmp/ccXrZxgX.s:125    .text:000000000000006c .LFE28
     /tmp/ccXrZxgX.s:2416   .debug_str:000000000000035d .LASF59
     /tmp/ccXrZxgX.s:2257   .debug_loc:0000000000000193 .LLST1
     /tmp/ccXrZxgX.s:114    .text:000000000000005c .LVL5
     /tmp/ccXrZxgX.s:11     .text._ZN6Thread3runEv:0000000000000000 .LFB27
     /tmp/ccXrZxgX.s:30     .text._ZN6Thread3runEv:0000000000000018 .LFE27
     /tmp/ccXrZxgX.s:2394   .debug_str:00000000000002b5 .LASF60
     /tmp/ccXrZxgX.s:2320   .debug_str:000000000000009e .LASF62
     /tmp/ccXrZxgX.s:2334   .debug_str:00000000000000f3 .LASF61
     /tmp/ccXrZxgX.s:2312   .debug_str:000000000000005b .LASF63
GAS LISTING /tmp/ccXrZxgX.s 			page 15


     /tmp/ccXrZxgX.s:2400   .debug_str:00000000000002f4 .LASF64
     /tmp/ccXrZxgX.s:2408   .debug_str:000000000000033e .LASF65
     /tmp/ccXrZxgX.s:2314   .debug_str:000000000000006b .LASF66
     /tmp/ccXrZxgX.s:2428   .debug_str:00000000000003b1 .LASF67
     /tmp/ccXrZxgX.s:67     .text:0000000000000018 .LVL2
     /tmp/ccXrZxgX.s:307    .text:0000000000000144 .LVL13
     /tmp/ccXrZxgX.s:327    .text:0000000000000164 .LVL15
     /tmp/ccXrZxgX.s:342    .text:000000000000017c .LVL17
     /tmp/ccXrZxgX.s:351    .text:000000000000018c .LVL18
     /tmp/ccXrZxgX.s:317    .text:0000000000000154 .LVL14
     /tmp/ccXrZxgX.s:166    .text:0000000000000094 .LVL8
     /tmp/ccXrZxgX.s:134    .text:000000000000006c .LVL6
     /tmp/ccXrZxgX.s:102    .text:0000000000000044 .LVL4
     /tmp/ccXrZxgX.s:375    .debug_info:0000000000000000 .Ldebug_info0
     /tmp/ccXrZxgX.s:5      .text:0000000000000000 .Ltext0
     /tmp/ccXrZxgX.s:370    .text:0000000000000198 .Letext0

UNDEFINED SYMBOLS
_Z9mem_allocm
_Z8mem_freePv
_Z15thread_dispatchv
_Z13thread_createPP3TCBPFvPvES2_
