GAS LISTING /tmp/ccuMqeif.s 			page 1


   1              		.file	"TCB.cpp"
   2              		.option pic
   3              		.option norelax
   4              		.text
   5              	.Ltext0:
   6              		.align	2
   7              		.globl	_ZN3TCB12createThreadEPFvPvES0_Pm
   9              	_ZN3TCB12createThreadEPFvPvES0_Pm:
  10              	.LFB34:
  11              		.file 1 "src/TCB.cpp"
   1:src/TCB.cpp   **** #include "../h/TCB.hpp"
   2:src/TCB.cpp   **** #include "../h/Scheduler.hpp"
   3:src/TCB.cpp   **** #include  "../h/print.hpp"
   4:src/TCB.cpp   **** #include "../h/syscall_c.hpp"
   5:src/TCB.cpp   **** #include "../h/Riscv.hpp"
   6:src/TCB.cpp   **** #include "../h/SList.hpp"
   7:src/TCB.cpp   **** 
   8:src/TCB.cpp   **** extern "C" void context_switch(TCB::Context* oldContext, TCB::Context* newContext);
   9:src/TCB.cpp   **** 
  10:src/TCB.cpp   **** TCB* TCB::running=nullptr;
  11:src/TCB.cpp   **** time_t TCB::timeCounter=0;
  12:src/TCB.cpp   **** 
  13:src/TCB.cpp   **** TCB* TCB::createThread(Body body, void *arg, uint64 *stack) {
  12              		.loc 1 13 61
  13              		.cfi_startproc
  14              		.cfi_personality 0x9b,DW.ref.__gxx_personality_v0
  15              		.cfi_lsda 0x1b,.LLSDA34
  16              	.LVL0:
  17 0000 130101FD 		addi	sp,sp,-48
  18              		.cfi_def_cfa_offset 48
  19 0004 23341102 		sd	ra,40(sp)
  20 0008 23308102 		sd	s0,32(sp)
  21 000c 233C9100 		sd	s1,24(sp)
  22 0010 23382101 		sd	s2,16(sp)
  23 0014 23343101 		sd	s3,8(sp)
  24 0018 23304101 		sd	s4,0(sp)
  25              		.cfi_offset 1, -8
  26              		.cfi_offset 8, -16
  27              		.cfi_offset 9, -24
  28              		.cfi_offset 18, -32
  29              		.cfi_offset 19, -40
  30              		.cfi_offset 20, -48
  31 001c 13040103 		addi	s0,sp,48
  32              		.cfi_def_cfa 8, 0
  33 0020 93090500 		mv	s3,a0
  34 0024 138A0500 		mv	s4,a1
  35 0028 13090600 		mv	s2,a2
  14:src/TCB.cpp   ****     return new TCB(body, arg, stack);
  36              		.loc 1 14 5
  37              	.LVL1:
  38              	.LBB21:
  39              	.LBB22:
  40              		.file 2 "src/../h/TCB.hpp"
   1:src/../h/TCB.hpp **** //
   2:src/../h/TCB.hpp **** // Created by os on 9/23/25.
   3:src/../h/TCB.hpp **** //
   4:src/../h/TCB.hpp **** 
GAS LISTING /tmp/ccuMqeif.s 			page 2


   5:src/../h/TCB.hpp **** #ifndef PROJECT_BASE_V1_1_COPY_TCB_HPP
   6:src/../h/TCB.hpp **** #define PROJECT_BASE_V1_1_COPY_TCB_HPP
   7:src/../h/TCB.hpp **** #include "../lib/hw.h"
   8:src/../h/TCB.hpp **** #include "../h/Scheduler.hpp"
   9:src/../h/TCB.hpp **** #include "../h/MemoryAllocator.hpp"
  10:src/../h/TCB.hpp **** 
  11:src/../h/TCB.hpp **** class TCB
  12:src/../h/TCB.hpp **** {
  13:src/../h/TCB.hpp **** public:
  14:src/../h/TCB.hpp ****     void* operator new(size_t size)
  15:src/../h/TCB.hpp **** {
  16:src/../h/TCB.hpp ****     return MemoryAllocator::Instance()->mem_alloc(size);
  41              		.loc 2 16 5
  42              	.LEHB0:
  43              		.loc 2 16 50 is_stmt 0
  44 002c 97000000 		call	_ZN15MemoryAllocator8InstanceEv@plt
  44      E7800000 
  45              	.LVL2:
  46 0034 93050004 		li	a1,64
  47 0038 97000000 		call	_ZN15MemoryAllocator9mem_allocEm@plt
  47      E7800000 
  48              	.LVL3:
  49              	.LEHE0:
  50 0040 93040500 		mv	s1,a0
  51              	.LVL4:
  52              	.LBE22:
  53              	.LBE21:
  54              	.LBB23:
  55              	.LBB24:
  17:src/../h/TCB.hpp **** }
  18:src/../h/TCB.hpp **** 
  19:src/../h/TCB.hpp ****     void operator delete(void* ptr)
  20:src/../h/TCB.hpp ****     {
  21:src/../h/TCB.hpp ****         return MemoryAllocator::Instance()->mem_free(ptr);
  22:src/../h/TCB.hpp ****     }
  23:src/../h/TCB.hpp **** 
  24:src/../h/TCB.hpp **** 
  25:src/../h/TCB.hpp ****     using Body=void(*)(void*);
  26:src/../h/TCB.hpp **** 
  27:src/../h/TCB.hpp ****     ~TCB()
  28:src/../h/TCB.hpp ****     {
  29:src/../h/TCB.hpp ****         delete stack;
  30:src/../h/TCB.hpp ****     }
  31:src/../h/TCB.hpp **** 
  32:src/../h/TCB.hpp ****     static TCB* createThread(Body body, void* arg, uint64* stack);
  33:src/../h/TCB.hpp **** 
  34:src/../h/TCB.hpp ****     static void dispatch();
  35:src/../h/TCB.hpp ****     static int exit();
  36:src/../h/TCB.hpp **** 
  37:src/../h/TCB.hpp **** 
  38:src/../h/TCB.hpp ****     bool isFinished() const { return finished;}
  39:src/../h/TCB.hpp **** 
  40:src/../h/TCB.hpp ****     void block() { this->blocked = true; }
  41:src/../h/TCB.hpp ****     void unblock() { this->blocked = false; }
  42:src/../h/TCB.hpp ****     bool isBlocked() const { return blocked; }
  43:src/../h/TCB.hpp **** 
  44:src/../h/TCB.hpp ****     time_t getTimeSlice() const { return timeSlice; }
GAS LISTING /tmp/ccuMqeif.s 			page 3


  45:src/../h/TCB.hpp **** 
  46:src/../h/TCB.hpp **** 
  47:src/../h/TCB.hpp ****     static TCB* running;
  48:src/../h/TCB.hpp **** 
  49:src/../h/TCB.hpp ****     static time_t timeCounter;
  50:src/../h/TCB.hpp **** 
  51:src/../h/TCB.hpp ****     struct Context
  52:src/../h/TCB.hpp ****     {
  53:src/../h/TCB.hpp ****         uint64 ra;
  54:src/../h/TCB.hpp ****         uint64 sp;
  55:src/../h/TCB.hpp ****     };
  56:src/../h/TCB.hpp **** protected:
  57:src/../h/TCB.hpp ****     static int sleep(time_t time);
  58:src/../h/TCB.hpp **** 
  59:src/../h/TCB.hpp ****     friend class Riscv;
  60:src/../h/TCB.hpp **** 
  61:src/../h/TCB.hpp **** private:
  62:src/../h/TCB.hpp ****     TCB(Body body, void* arg, uint64* stackMem)
  63:src/../h/TCB.hpp ****         : finished(false),
  64:src/../h/TCB.hpp ****           stack(stackMem),
  65:src/../h/TCB.hpp ****           arg(arg),
  66:src/../h/TCB.hpp ****           context({
  67:src/../h/TCB.hpp ****               body != nullptr ? (uint64)&TCBWrapper : 0,
  68:src/../h/TCB.hpp ****               body != nullptr ? (uint64)((char*)stackMem + DEFAULT_STACK_SIZE) : 0
  69:src/../h/TCB.hpp ****           }),
  70:src/../h/TCB.hpp ****           body(body),
  71:src/../h/TCB.hpp ****             blocked(false),
  72:src/../h/TCB.hpp ****     timeSlice(DEFAULT_TIME_SLICE)
  56              		.loc 2 72 33
  57 0044 23000500 		sb	zero,0(a0)
  58 0048 23342501 		sd	s2,8(a0)
  59 004c 23384501 		sd	s4,16(a0)
  67:src/../h/TCB.hpp ****               body != nullptr ? (uint64)((char*)stackMem + DEFAULT_STACK_SIZE) : 0
  60              		.loc 2 67 31
  61 0050 63860904 		beqz	s3,.L7
  62 0054 97070000 		lla	a5,_ZN3TCB10TCBWrapperEv
  62      93870700 
  63              	.L2:
  64              		.loc 2 72 33
  65 005c 23BCF400 		sd	a5,24(s1)
  68:src/../h/TCB.hpp ****           }),
  66              		.loc 2 68 31
  67 0060 63820904 		beqz	s3,.L8
  68:src/../h/TCB.hpp ****           }),
  68              		.loc 2 68 58
  69 0064 37160000 		li	a2,4096
  70 0068 3309C900 		add	s2,s2,a2
  71              	.LVL5:
  72              	.L3:
  73              		.loc 2 72 33
  74 006c 23B02403 		sd	s2,32(s1)
  75 0070 23B43403 		sd	s3,40(s1)
  76 0074 23880402 		sb	zero,48(s1)
  77 0078 93072000 		li	a5,2
  78 007c 23BCF402 		sd	a5,56(s1)
  73:src/../h/TCB.hpp ****     {
  74:src/../h/TCB.hpp ****         timeSlice = DEFAULT_TIME_SLICE;
GAS LISTING /tmp/ccuMqeif.s 			page 4


  79              		.loc 2 74 9 is_stmt 1
  75:src/../h/TCB.hpp ****         if (running == nullptr) {
  80              		.loc 2 75 9
  81              		.loc 2 75 21 is_stmt 0
  82 0080 97070000 		ld	a5,.LANCHOR0
  82      83B70700 
  83              		.loc 2 75 9
  84 0088 63820702 		beqz	a5,.L11
  76:src/../h/TCB.hpp ****             running = this;
  77:src/../h/TCB.hpp ****         } else {
  78:src/../h/TCB.hpp ****             Scheduler::put(this);
  85              		.loc 2 78 13 is_stmt 1
  86              		.loc 2 78 27 is_stmt 0
  87 008c 13850400 		mv	a0,s1
  88              	.LEHB1:
  89 0090 97000000 		call	_ZN9Scheduler3putEP3TCB@plt
  89      E7800000 
  90              	.LVL6:
  91              	.LEHE1:
  92 0098 6F00C001 		j	.L1
  93              	.LVL7:
  94              	.L7:
  67:src/../h/TCB.hpp ****               body != nullptr ? (uint64)((char*)stackMem + DEFAULT_STACK_SIZE) : 0
  95              		.loc 2 67 31
  96 009c 93070000 		li	a5,0
  97 00a0 6FF0DFFB 		j	.L2
  98              	.L8:
  68:src/../h/TCB.hpp ****           }),
  99              		.loc 2 68 31
 100 00a4 13090000 		li	s2,0
 101              	.LVL8:
 102 00a8 6FF05FFC 		j	.L3
 103              	.L11:
  76:src/../h/TCB.hpp ****             running = this;
 104              		.loc 2 76 13 is_stmt 1
  76:src/../h/TCB.hpp ****             running = this;
 105              		.loc 2 76 21 is_stmt 0
 106 00ac 97070000 		sd	s1,.LANCHOR0,a5
 106      23B09700 
 107              	.LVL9:
 108              	.L1:
 109              	.LBE24:
 110              	.LBE23:
  15:src/TCB.cpp   **** }
 111              		.loc 1 15 1
 112 00b4 13850400 		mv	a0,s1
 113 00b8 83308102 		ld	ra,40(sp)
 114              		.cfi_remember_state
 115              		.cfi_restore 1
 116 00bc 03340102 		ld	s0,32(sp)
 117              		.cfi_restore 8
 118              		.cfi_def_cfa 2, 48
 119 00c0 83348101 		ld	s1,24(sp)
 120              		.cfi_restore 9
 121              	.LVL10:
 122 00c4 03390101 		ld	s2,16(sp)
 123              		.cfi_restore 18
GAS LISTING /tmp/ccuMqeif.s 			page 5


 124 00c8 83398100 		ld	s3,8(sp)
 125              		.cfi_restore 19
 126              	.LVL11:
 127 00cc 033A0100 		ld	s4,0(sp)
 128              		.cfi_restore 20
 129              	.LVL12:
 130 00d0 13010103 		addi	sp,sp,48
 131              		.cfi_def_cfa_offset 0
 132 00d4 67800000 		jr	ra
 133              	.LVL13:
 134              	.L9:
 135              		.cfi_restore_state
 136 00d8 13090500 		mv	s2,a0
 137              	.LVL14:
 138              	.LBB25:
 139              	.LBB26:
  21:src/../h/TCB.hpp ****     }
 140              		.loc 2 21 9 is_stmt 1
  21:src/../h/TCB.hpp ****     }
 141              		.loc 2 21 53 is_stmt 0
 142 00dc 97000000 		call	_ZN15MemoryAllocator8InstanceEv@plt
 142      E7800000 
 143              	.LVL15:
 144 00e4 93850400 		mv	a1,s1
 145 00e8 97000000 		call	_ZN15MemoryAllocator8mem_freeEPv@plt
 145      E7800000 
 146              	.LVL16:
 147 00f0 13050900 		mv	a0,s2
 148              	.LEHB2:
 149 00f4 97000000 		call	_Unwind_Resume@plt
 149      E7800000 
 150              	.LVL17:
 151              	.LEHE2:
 152              	.LBE26:
 153              	.LBE25:
 154              		.cfi_endproc
 155              	.LFE34:
 156              		.globl	__gxx_personality_v0
 157              		.section	.gcc_except_table,"a",@progbits
 158              	.LLSDA34:
 159 0000 FF       		.byte	0xff
 160 0001 FF       		.byte	0xff
 161 0002 03       		.byte	0x3
 162 0003 27       		.byte	0x27
 163 0004 00000000 		.4byte	.LEHB0-.LFB34
 164 0008 00000000 		.4byte	.LEHE0-.LEHB0
 165 000c 00000000 		.4byte	0
 166 0010 00       		.byte	0
 167 0011 00000000 		.4byte	.LEHB1-.LFB34
 168 0015 00000000 		.4byte	.LEHE1-.LEHB1
 169 0019 00000000 		.4byte	.L9-.LFB34
 170 001d 00       		.byte	0
 171 001e 00000000 		.4byte	.LEHB2-.LFB34
 172 0022 00000000 		.4byte	.LEHE2-.LEHB2
 173 0026 00000000 		.4byte	0
 174 002a 00       		.byte	0
 175              		.text
GAS LISTING /tmp/ccuMqeif.s 			page 6


 177              		.align	2
 178              		.globl	_ZN3TCB8dispatchEv
 180              	_ZN3TCB8dispatchEv:
 181              	.LFB35:
  16:src/TCB.cpp   **** 
  17:src/TCB.cpp   **** void TCB::dispatch() {
 182              		.loc 1 17 22 is_stmt 1
 183              		.cfi_startproc
 184 00fc 130101FE 		addi	sp,sp,-32
 185              		.cfi_def_cfa_offset 32
 186 0100 233C1100 		sd	ra,24(sp)
 187 0104 23388100 		sd	s0,16(sp)
 188 0108 23349100 		sd	s1,8(sp)
 189              		.cfi_offset 1, -8
 190              		.cfi_offset 8, -16
 191              		.cfi_offset 9, -24
 192 010c 13040102 		addi	s0,sp,32
 193              		.cfi_def_cfa 8, 0
  18:src/TCB.cpp   ****     //pprintString("TCB::dispatch()\n");
  19:src/TCB.cpp   ****     TCB *old=running;
 194              		.loc 1 19 5
 195              		.loc 1 19 10 is_stmt 0
 196 0110 97040000 		ld	s1,.LANCHOR0
 196      83B40400 
 197              	.LVL18:
  20:src/TCB.cpp   ****     if (!old->isFinished() && !old->isBlocked()) {
 198              		.loc 1 20 5 is_stmt 1
 199              	.LBB27:
 200              	.LBB28:
  38:src/../h/TCB.hpp **** 
 201              		.loc 2 38 31
  38:src/../h/TCB.hpp **** 
 202              		.loc 2 38 38 is_stmt 0
 203 0118 83C70400 		lbu	a5,0(s1)
 204              	.LVL19:
 205              	.LBE28:
 206              	.LBE27:
 207              		.loc 1 20 28
 208 011c 63960700 		bnez	a5,.L13
 209              	.LVL20:
 210              	.LBB29:
 211              	.LBB30:
  42:src/../h/TCB.hpp **** 
 212              		.loc 2 42 30 is_stmt 1
  42:src/../h/TCB.hpp **** 
 213              		.loc 2 42 37 is_stmt 0
 214 0120 83C70403 		lbu	a5,48(s1)
 215              	.LVL21:
 216              	.LBE30:
 217              	.LBE29:
 218              		.loc 1 20 28
 219 0124 63800704 		beqz	a5,.L15
 220              	.L13:
  21:src/TCB.cpp   ****         Scheduler::put(old);
  22:src/TCB.cpp   ****     }
  23:src/TCB.cpp   ****     running=Scheduler::get();
 221              		.loc 1 23 5 is_stmt 1
GAS LISTING /tmp/ccuMqeif.s 			page 7


 222              		.loc 1 23 27 is_stmt 0
 223 0128 97000000 		call	_ZN9Scheduler3getEv@plt
 223      E7800000 
 224              	.LVL22:
 225              		.loc 1 23 12
 226 0130 97070000 		lla	a5,.LANCHOR0
 226      93870700 
 227 0138 23B0A700 		sd	a0,0(a5)
  24:src/TCB.cpp   **** 
  25:src/TCB.cpp   **** 
  26:src/TCB.cpp   ****     timeCounter=0;
 228              		.loc 1 26 5 is_stmt 1
 229              		.loc 1 26 16 is_stmt 0
 230 013c 23B40700 		sd	zero,8(a5)
  27:src/TCB.cpp   ****     //Riscv::restorePrivilege();
  28:src/TCB.cpp   ****     context_switch(&old->context, &running->context);
 231              		.loc 1 28 5 is_stmt 1
 232              		.loc 1 28 19 is_stmt 0
 233 0140 93058501 		addi	a1,a0,24
 234 0144 13858401 		addi	a0,s1,24
 235 0148 97000000 		call	context_switch@plt
 235      E7800000 
 236              	.LVL23:
  29:src/TCB.cpp   **** }
 237              		.loc 1 29 1
 238 0150 83308101 		ld	ra,24(sp)
 239              		.cfi_remember_state
 240              		.cfi_restore 1
 241 0154 03340101 		ld	s0,16(sp)
 242              		.cfi_restore 8
 243              		.cfi_def_cfa 2, 32
 244 0158 83348100 		ld	s1,8(sp)
 245              		.cfi_restore 9
 246              	.LVL24:
 247 015c 13010102 		addi	sp,sp,32
 248              		.cfi_def_cfa_offset 0
 249 0160 67800000 		jr	ra
 250              	.LVL25:
 251              	.L15:
 252              		.cfi_restore_state
  21:src/TCB.cpp   ****     }
 253              		.loc 1 21 9 is_stmt 1
  21:src/TCB.cpp   ****     }
 254              		.loc 1 21 23 is_stmt 0
 255 0164 13850400 		mv	a0,s1
 256 0168 97000000 		call	_ZN9Scheduler3putEP3TCB@plt
 256      E7800000 
 257              	.LVL26:
 258 0170 6FF09FFB 		j	.L13
 259              		.cfi_endproc
 260              	.LFE35:
 262              		.align	2
 263              		.globl	_ZN3TCB4exitEv
 265              	_ZN3TCB4exitEv:
 266              	.LFB36:
  30:src/TCB.cpp   **** 
  31:src/TCB.cpp   **** 
GAS LISTING /tmp/ccuMqeif.s 			page 8


  32:src/TCB.cpp   **** 
  33:src/TCB.cpp   **** int TCB::exit() {
 267              		.loc 1 33 17 is_stmt 1
 268              		.cfi_startproc
  34:src/TCB.cpp   ****     if (running->isFinished()) {
 269              		.loc 1 34 5
 270              		.loc 1 34 28 is_stmt 0
 271 0174 97070000 		ld	a5,.LANCHOR0
 271      83B70700 
 272              	.LVL27:
 273              	.LBB31:
 274              	.LBB32:
  38:src/../h/TCB.hpp **** 
 275              		.loc 2 38 31 is_stmt 1
  38:src/../h/TCB.hpp **** 
 276              		.loc 2 38 38 is_stmt 0
 277 017c 03C70700 		lbu	a4,0(a5)
 278              	.LVL28:
 279              	.LBE32:
 280              	.LBE31:
 281              		.loc 1 34 5
 282 0180 631C0702 		bnez	a4,.L18
  33:src/TCB.cpp   ****     if (running->isFinished()) {
 283              		.loc 1 33 17
 284 0184 130101FF 		addi	sp,sp,-16
 285              		.cfi_def_cfa_offset 16
 286 0188 23341100 		sd	ra,8(sp)
 287 018c 23308100 		sd	s0,0(sp)
 288              		.cfi_offset 1, -8
 289              		.cfi_offset 8, -16
 290 0190 13040101 		addi	s0,sp,16
 291              		.cfi_def_cfa 8, 0
  35:src/TCB.cpp   ****         return -1;
  36:src/TCB.cpp   ****     }
  37:src/TCB.cpp   ****     running->finished=true;
 292              		.loc 1 37 5 is_stmt 1
 293              		.loc 1 37 22 is_stmt 0
 294 0194 13071000 		li	a4,1
 295 0198 2380E700 		sb	a4,0(a5)
  38:src/TCB.cpp   ****     thread_dispatch();
 296              		.loc 1 38 5 is_stmt 1
 297              		.loc 1 38 20 is_stmt 0
 298 019c 97000000 		call	_Z15thread_dispatchv@plt
 298      E7800000 
 299              	.LVL29:
  39:src/TCB.cpp   ****     return 0;
 300              		.loc 1 39 5 is_stmt 1
 301              		.loc 1 39 12 is_stmt 0
 302 01a4 13050000 		li	a0,0
  40:src/TCB.cpp   **** }
 303              		.loc 1 40 1
 304 01a8 83308100 		ld	ra,8(sp)
 305              		.cfi_restore 1
 306 01ac 03340100 		ld	s0,0(sp)
 307              		.cfi_restore 8
 308              		.cfi_def_cfa 2, 16
 309 01b0 13010101 		addi	sp,sp,16
GAS LISTING /tmp/ccuMqeif.s 			page 9


 310              		.cfi_def_cfa_offset 0
 311 01b4 67800000 		jr	ra
 312              	.L18:
  35:src/TCB.cpp   ****     }
 313              		.loc 1 35 17
 314 01b8 1305F0FF 		li	a0,-1
 315              		.loc 1 40 1
 316 01bc 67800000 		ret
 317              		.cfi_endproc
 318              	.LFE36:
 320              		.align	2
 321              		.globl	_ZN3TCB10TCBWrapperEv
 323              	_ZN3TCB10TCBWrapperEv:
 324              	.LFB37:
  41:src/TCB.cpp   **** 
  42:src/TCB.cpp   **** void TCB::TCBWrapper() {
 325              		.loc 1 42 24 is_stmt 1
 326              		.cfi_startproc
 327 01c0 130101FF 		addi	sp,sp,-16
 328              		.cfi_def_cfa_offset 16
 329 01c4 23341100 		sd	ra,8(sp)
 330 01c8 23308100 		sd	s0,0(sp)
 331              		.cfi_offset 1, -8
 332              		.cfi_offset 8, -16
 333 01cc 13040101 		addi	s0,sp,16
 334              		.cfi_def_cfa 8, 0
  43:src/TCB.cpp   ****     //pprintString("Entered wrapper\n");
  44:src/TCB.cpp   ****     //Riscv::restorePrivilege();
  45:src/TCB.cpp   ****     Riscv::popSppSpie();
 335              		.loc 1 45 5
 336              		.loc 1 45 22 is_stmt 0
 337 01d0 97000000 		call	_ZN5Riscv10popSppSpieEv@plt
 337      E7800000 
 338              	.LVL30:
  46:src/TCB.cpp   ****     running->body(running->arg);
 339              		.loc 1 46 5 is_stmt 1
 340              		.loc 1 46 14 is_stmt 0
 341 01d8 97070000 		ld	a5,.LANCHOR0
 341      83B70700 
 342 01e0 03B78702 		ld	a4,40(a5)
 343              		.loc 1 46 18
 344 01e4 03B50701 		ld	a0,16(a5)
 345 01e8 E7000700 		jalr	a4
 346              	.LVL31:
  47:src/TCB.cpp   ****     exit();
 347              		.loc 1 47 5 is_stmt 1
 348              		.loc 1 47 9 is_stmt 0
 349 01ec 97000000 		call	_ZN3TCB4exitEv
 349      E7800000 
 350              	.LVL32:
  48:src/TCB.cpp   **** }
 351              		.loc 1 48 1
 352 01f4 83308100 		ld	ra,8(sp)
 353              		.cfi_restore 1
 354 01f8 03340100 		ld	s0,0(sp)
 355              		.cfi_restore 8
 356              		.cfi_def_cfa 2, 16
GAS LISTING /tmp/ccuMqeif.s 			page 10


 357 01fc 13010101 		addi	sp,sp,16
 358              		.cfi_def_cfa_offset 0
 359 0200 67800000 		jr	ra
 360              		.cfi_endproc
 361              	.LFE37:
 363              		.align	2
 364              		.globl	_ZN3TCB5sleepEm
 366              	_ZN3TCB5sleepEm:
 367              	.LFB38:
  49:src/TCB.cpp   **** 
  50:src/TCB.cpp   **** int TCB::sleep(time_t time) {
 368              		.loc 1 50 29 is_stmt 1
 369              		.cfi_startproc
 370              	.LVL33:
  51:src/TCB.cpp   ****     if (time <= 0) {
 371              		.loc 1 51 5
 372 0204 63060504 		beqz	a0,.L27
  50:src/TCB.cpp   ****     if (time <= 0) {
 373              		.loc 1 50 29 is_stmt 0
 374 0208 130101FF 		addi	sp,sp,-16
 375              		.cfi_def_cfa_offset 16
 376 020c 23341100 		sd	ra,8(sp)
 377 0210 23308100 		sd	s0,0(sp)
 378              		.cfi_offset 1, -8
 379              		.cfi_offset 8, -16
 380 0214 13040101 		addi	s0,sp,16
 381              		.cfi_def_cfa 8, 0
 382 0218 93050500 		mv	a1,a0
  52:src/TCB.cpp   ****         return -1;
  53:src/TCB.cpp   ****     }
  54:src/TCB.cpp   ****     running->block();
 383              		.loc 1 54 5 is_stmt 1
 384              		.loc 1 54 19 is_stmt 0
 385 021c 17050000 		ld	a0,.LANCHOR0
 385      03350500 
 386              	.LVL34:
 387              	.LBB33:
 388              	.LBB34:
  40:src/../h/TCB.hpp ****     void unblock() { this->blocked = false; }
 389              		.loc 2 40 20 is_stmt 1
  40:src/../h/TCB.hpp ****     void unblock() { this->blocked = false; }
 390              		.loc 2 40 34 is_stmt 0
 391 0224 93071000 		li	a5,1
 392 0228 2308F502 		sb	a5,48(a0)
 393              	.LVL35:
 394              	.LBE34:
 395              	.LBE33:
  55:src/TCB.cpp   ****     SList::add(running, time);
 396              		.loc 1 55 5 is_stmt 1
 397              		.loc 1 55 15 is_stmt 0
 398 022c 97000000 		call	_ZN5SList3addEP3TCBm@plt
 398      E7800000 
 399              	.LVL36:
  56:src/TCB.cpp   ****     dispatch();
 400              		.loc 1 56 5 is_stmt 1
 401              		.loc 1 56 13 is_stmt 0
 402 0234 97000000 		call	_ZN3TCB8dispatchEv
GAS LISTING /tmp/ccuMqeif.s 			page 11


 402      E7800000 
 403              	.LVL37:
  57:src/TCB.cpp   ****     return 0;
 404              		.loc 1 57 5 is_stmt 1
 405              		.loc 1 57 12 is_stmt 0
 406 023c 13050000 		li	a0,0
  58:src/TCB.cpp   **** }...
 407              		.loc 1 58 1
 408 0240 83308100 		ld	ra,8(sp)
 409              		.cfi_restore 1
 410 0244 03340100 		ld	s0,0(sp)
 411              		.cfi_restore 8
 412              		.cfi_def_cfa 2, 16
 413 0248 13010101 		addi	sp,sp,16
 414              		.cfi_def_cfa_offset 0
 415 024c 67800000 		jr	ra
 416              	.LVL38:
 417              	.L27:
  52:src/TCB.cpp   ****         return -1;
 418              		.loc 1 52 17
 419 0250 1305F0FF 		li	a0,-1
 420              	.LVL39:
 421              		.loc 1 58 1
 422 0254 67800000 		ret
 423              		.cfi_endproc
 424              	.LFE38:
 426              		.globl	_ZN3TCB11timeCounterE
 427              		.globl	_ZN3TCB7runningE
 428              		.bss
 429              		.align	3
 430              		.set	.LANCHOR0,. + 0
 433              	_ZN3TCB7runningE:
 434 0000 00000000 		.zero	8
 434      00000000 
 437              	_ZN3TCB11timeCounterE:
 438 0008 00000000 		.zero	8
 438      00000000 
 439              		.text
 440              	.Letext0:
 441              		.file 3 "src/../h/../lib/hw.h"
 442              		.file 4 "src/../h/../h/Scheduler.hpp"
 443              		.file 5 "src/../h/../h/List.hpp"
 444              		.file 6 "src/../h/../h/MemoryAllocator.hpp"
 445              		.file 7 "src/../h/Riscv.hpp"
 446              		.file 8 "src/../h/SList.hpp"
 447              		.file 9 "src/../h/syscall_c.hpp"
 3280              		.align	3
 3283              	DW.ref.__gxx_personality_v0:
 3284 0000 00000000 		.dword	__gxx_personality_v0
 3284      00000000 
 3285              		.ident	"GCC: (Ubuntu 9.4.0-1ubuntu1~20.04) 9.4.0"
 3286              		.section	.note.GNU-stack,"",@progbits
GAS LISTING /tmp/ccuMqeif.s 			page 12


DEFINED SYMBOLS
                            *ABS*:0000000000000000 TCB.cpp
     /tmp/ccuMqeif.s:9      .text:0000000000000000 _ZN3TCB12createThreadEPFvPvES0_Pm
     /tmp/ccuMqeif.s:13     .text:0000000000000000 .L0 
     /tmp/ccuMqeif.s:3283   .data.rel.local.DW.ref.__gxx_personality_v0:0000000000000000 DW.ref.__gxx_personality_v0
     /tmp/ccuMqeif.s:17     .text:0000000000000000 .L0 
     /tmp/ccuMqeif.s:18     .text:0000000000000004 .L0 
     /tmp/ccuMqeif.s:25     .text:000000000000001c .L0 
     /tmp/ccuMqeif.s:26     .text:000000000000001c .L0 
     /tmp/ccuMqeif.s:27     .text:000000000000001c .L0 
     /tmp/ccuMqeif.s:28     .text:000000000000001c .L0 
     /tmp/ccuMqeif.s:29     .text:000000000000001c .L0 
     /tmp/ccuMqeif.s:30     .text:000000000000001c .L0 
     /tmp/ccuMqeif.s:32     .text:0000000000000020 .L0 
     /tmp/ccuMqeif.s:41     .text:000000000000002c .L0 
     /tmp/ccuMqeif.s:43     .text:000000000000002c .L0 
     /tmp/ccuMqeif.s:44     .text:000000000000002c .L0 
     /tmp/ccuMqeif.s:57     .text:0000000000000044 .L0 
     /tmp/ccuMqeif.s:61     .text:0000000000000050 .L0 
     /tmp/ccuMqeif.s:323    .text:00000000000001c0 _ZN3TCB10TCBWrapperEv
     /tmp/ccuMqeif.s:65     .text:000000000000005c .L0 
     /tmp/ccuMqeif.s:67     .text:0000000000000060 .L0 
     /tmp/ccuMqeif.s:69     .text:0000000000000064 .L0 
     /tmp/ccuMqeif.s:74     .text:000000000000006c .L0 
     /tmp/ccuMqeif.s:80     .text:0000000000000080 .L0 
     /tmp/ccuMqeif.s:81     .text:0000000000000080 .L0 
     /tmp/ccuMqeif.s:82     .text:0000000000000080 .L0 
     /tmp/ccuMqeif.s:84     .text:0000000000000088 .L0 
     /tmp/ccuMqeif.s:86     .text:000000000000008c .L0 
     /tmp/ccuMqeif.s:87     .text:000000000000008c .L0 
     /tmp/ccuMqeif.s:96     .text:000000000000009c .L0 
     /tmp/ccuMqeif.s:100    .text:00000000000000a4 .L0 
     /tmp/ccuMqeif.s:105    .text:00000000000000ac .L0 
     /tmp/ccuMqeif.s:106    .text:00000000000000ac .L0 
     /tmp/ccuMqeif.s:112    .text:00000000000000b4 .L0 
     /tmp/ccuMqeif.s:114    .text:00000000000000bc .L0 
     /tmp/ccuMqeif.s:115    .text:00000000000000bc .L0 
     /tmp/ccuMqeif.s:117    .text:00000000000000c0 .L0 
     /tmp/ccuMqeif.s:118    .text:00000000000000c0 .L0 
     /tmp/ccuMqeif.s:120    .text:00000000000000c4 .L0 
     /tmp/ccuMqeif.s:123    .text:00000000000000c8 .L0 
     /tmp/ccuMqeif.s:125    .text:00000000000000cc .L0 
     /tmp/ccuMqeif.s:128    .text:00000000000000d0 .L0 
     /tmp/ccuMqeif.s:131    .text:00000000000000d4 .L0 
     /tmp/ccuMqeif.s:135    .text:00000000000000d8 .L0 
     /tmp/ccuMqeif.s:141    .text:00000000000000dc .L0 
     /tmp/ccuMqeif.s:142    .text:00000000000000dc .L0 
     /tmp/ccuMqeif.s:154    .text:00000000000000fc .L0 
     /tmp/ccuMqeif.s:180    .text:00000000000000fc _ZN3TCB8dispatchEv
     /tmp/ccuMqeif.s:183    .text:00000000000000fc .L0 
     /tmp/ccuMqeif.s:184    .text:00000000000000fc .L0 
     /tmp/ccuMqeif.s:185    .text:0000000000000100 .L0 
     /tmp/ccuMqeif.s:189    .text:000000000000010c .L0 
     /tmp/ccuMqeif.s:190    .text:000000000000010c .L0 
     /tmp/ccuMqeif.s:191    .text:000000000000010c .L0 
     /tmp/ccuMqeif.s:193    .text:0000000000000110 .L0 
     /tmp/ccuMqeif.s:195    .text:0000000000000110 .L0 
GAS LISTING /tmp/ccuMqeif.s 			page 13


     /tmp/ccuMqeif.s:196    .text:0000000000000110 .L0 
     /tmp/ccuMqeif.s:201    .text:0000000000000118 .L0 
     /tmp/ccuMqeif.s:202    .text:0000000000000118 .L0 
     /tmp/ccuMqeif.s:203    .text:0000000000000118 .L0 
     /tmp/ccuMqeif.s:208    .text:000000000000011c .L0 
     /tmp/ccuMqeif.s:213    .text:0000000000000120 .L0 
     /tmp/ccuMqeif.s:214    .text:0000000000000120 .L0 
     /tmp/ccuMqeif.s:219    .text:0000000000000124 .L0 
     /tmp/ccuMqeif.s:222    .text:0000000000000128 .L0 
     /tmp/ccuMqeif.s:223    .text:0000000000000128 .L0 
     /tmp/ccuMqeif.s:226    .text:0000000000000130 .L0 
     /tmp/ccuMqeif.s:229    .text:000000000000013c .L0 
     /tmp/ccuMqeif.s:230    .text:000000000000013c .L0 
     /tmp/ccuMqeif.s:232    .text:0000000000000140 .L0 
     /tmp/ccuMqeif.s:233    .text:0000000000000140 .L0 
     /tmp/ccuMqeif.s:238    .text:0000000000000150 .L0 
     /tmp/ccuMqeif.s:239    .text:0000000000000154 .L0 
     /tmp/ccuMqeif.s:240    .text:0000000000000154 .L0 
     /tmp/ccuMqeif.s:242    .text:0000000000000158 .L0 
     /tmp/ccuMqeif.s:243    .text:0000000000000158 .L0 
     /tmp/ccuMqeif.s:245    .text:000000000000015c .L0 
     /tmp/ccuMqeif.s:248    .text:0000000000000160 .L0 
     /tmp/ccuMqeif.s:252    .text:0000000000000164 .L0 
     /tmp/ccuMqeif.s:254    .text:0000000000000164 .L0 
     /tmp/ccuMqeif.s:255    .text:0000000000000164 .L0 
     /tmp/ccuMqeif.s:259    .text:0000000000000174 .L0 
     /tmp/ccuMqeif.s:265    .text:0000000000000174 _ZN3TCB4exitEv
     /tmp/ccuMqeif.s:268    .text:0000000000000174 .L0 
     /tmp/ccuMqeif.s:269    .text:0000000000000174 .L0 
     /tmp/ccuMqeif.s:270    .text:0000000000000174 .L0 
     /tmp/ccuMqeif.s:271    .text:0000000000000174 .L0 
     /tmp/ccuMqeif.s:276    .text:000000000000017c .L0 
     /tmp/ccuMqeif.s:277    .text:000000000000017c .L0 
     /tmp/ccuMqeif.s:282    .text:0000000000000180 .L0 
     /tmp/ccuMqeif.s:284    .text:0000000000000184 .L0 
     /tmp/ccuMqeif.s:285    .text:0000000000000188 .L0 
     /tmp/ccuMqeif.s:288    .text:0000000000000190 .L0 
     /tmp/ccuMqeif.s:289    .text:0000000000000190 .L0 
     /tmp/ccuMqeif.s:291    .text:0000000000000194 .L0 
     /tmp/ccuMqeif.s:293    .text:0000000000000194 .L0 
     /tmp/ccuMqeif.s:294    .text:0000000000000194 .L0 
     /tmp/ccuMqeif.s:297    .text:000000000000019c .L0 
     /tmp/ccuMqeif.s:298    .text:000000000000019c .L0 
     /tmp/ccuMqeif.s:301    .text:00000000000001a4 .L0 
     /tmp/ccuMqeif.s:302    .text:00000000000001a4 .L0 
     /tmp/ccuMqeif.s:304    .text:00000000000001a8 .L0 
     /tmp/ccuMqeif.s:305    .text:00000000000001ac .L0 
     /tmp/ccuMqeif.s:307    .text:00000000000001b0 .L0 
     /tmp/ccuMqeif.s:308    .text:00000000000001b0 .L0 
     /tmp/ccuMqeif.s:310    .text:00000000000001b4 .L0 
     /tmp/ccuMqeif.s:314    .text:00000000000001b8 .L0 
     /tmp/ccuMqeif.s:316    .text:00000000000001bc .L0 
     /tmp/ccuMqeif.s:317    .text:00000000000001c0 .L0 
     /tmp/ccuMqeif.s:326    .text:00000000000001c0 .L0 
     /tmp/ccuMqeif.s:327    .text:00000000000001c0 .L0 
     /tmp/ccuMqeif.s:328    .text:00000000000001c4 .L0 
     /tmp/ccuMqeif.s:331    .text:00000000000001cc .L0 
GAS LISTING /tmp/ccuMqeif.s 			page 14


     /tmp/ccuMqeif.s:332    .text:00000000000001cc .L0 
     /tmp/ccuMqeif.s:334    .text:00000000000001d0 .L0 
     /tmp/ccuMqeif.s:336    .text:00000000000001d0 .L0 
     /tmp/ccuMqeif.s:337    .text:00000000000001d0 .L0 
     /tmp/ccuMqeif.s:340    .text:00000000000001d8 .L0 
     /tmp/ccuMqeif.s:341    .text:00000000000001d8 .L0 
     /tmp/ccuMqeif.s:344    .text:00000000000001e4 .L0 
     /tmp/ccuMqeif.s:348    .text:00000000000001ec .L0 
     /tmp/ccuMqeif.s:349    .text:00000000000001ec .L0 
     /tmp/ccuMqeif.s:352    .text:00000000000001f4 .L0 
     /tmp/ccuMqeif.s:353    .text:00000000000001f8 .L0 
     /tmp/ccuMqeif.s:355    .text:00000000000001fc .L0 
     /tmp/ccuMqeif.s:356    .text:00000000000001fc .L0 
     /tmp/ccuMqeif.s:358    .text:0000000000000200 .L0 
     /tmp/ccuMqeif.s:360    .text:0000000000000204 .L0 
     /tmp/ccuMqeif.s:366    .text:0000000000000204 _ZN3TCB5sleepEm
     /tmp/ccuMqeif.s:369    .text:0000000000000204 .L0 
     /tmp/ccuMqeif.s:371    .text:0000000000000204 .L0 
     /tmp/ccuMqeif.s:372    .text:0000000000000204 .L0 
     /tmp/ccuMqeif.s:374    .text:0000000000000208 .L0 
     /tmp/ccuMqeif.s:375    .text:000000000000020c .L0 
     /tmp/ccuMqeif.s:378    .text:0000000000000214 .L0 
     /tmp/ccuMqeif.s:379    .text:0000000000000214 .L0 
     /tmp/ccuMqeif.s:381    .text:0000000000000218 .L0 
     /tmp/ccuMqeif.s:384    .text:000000000000021c .L0 
     /tmp/ccuMqeif.s:385    .text:000000000000021c .L0 
     /tmp/ccuMqeif.s:390    .text:0000000000000224 .L0 
     /tmp/ccuMqeif.s:391    .text:0000000000000224 .L0 
     /tmp/ccuMqeif.s:397    .text:000000000000022c .L0 
     /tmp/ccuMqeif.s:398    .text:000000000000022c .L0 
     /tmp/ccuMqeif.s:401    .text:0000000000000234 .L0 
     /tmp/ccuMqeif.s:402    .text:0000000000000234 .L0 
     /tmp/ccuMqeif.s:405    .text:000000000000023c .L0 
     /tmp/ccuMqeif.s:406    .text:000000000000023c .L0 
     /tmp/ccuMqeif.s:408    .text:0000000000000240 .L0 
     /tmp/ccuMqeif.s:409    .text:0000000000000244 .L0 
     /tmp/ccuMqeif.s:411    .text:0000000000000248 .L0 
     /tmp/ccuMqeif.s:412    .text:0000000000000248 .L0 
     /tmp/ccuMqeif.s:414    .text:000000000000024c .L0 
     /tmp/ccuMqeif.s:419    .text:0000000000000250 .L0 
     /tmp/ccuMqeif.s:422    .text:0000000000000254 .L0 
     /tmp/ccuMqeif.s:423    .text:0000000000000258 .L0 
     /tmp/ccuMqeif.s:437    .bss:0000000000000008 _ZN3TCB11timeCounterE
     /tmp/ccuMqeif.s:433    .bss:0000000000000000 _ZN3TCB7runningE
     /tmp/ccuMqeif.s:430    .bss:0000000000000000 .LANCHOR0
     /tmp/ccuMqeif.s:448    .text:0000000000000258 .L0 
     /tmp/ccuMqeif.s:62     .text:0000000000000054 .L0 
     /tmp/ccuMqeif.s:82     .text:0000000000000080 .L0 
     /tmp/ccuMqeif.s:106    .text:00000000000000ac .L0 
     /tmp/ccuMqeif.s:196    .text:0000000000000110 .L0 
     /tmp/ccuMqeif.s:226    .text:0000000000000130 .L0 
     /tmp/ccuMqeif.s:271    .text:0000000000000174 .L0 
     /tmp/ccuMqeif.s:341    .text:00000000000001d8 .L0 
     /tmp/ccuMqeif.s:385    .text:000000000000021c .L0 
     /tmp/ccuMqeif.s:94     .text:000000000000009c .L7
     /tmp/ccuMqeif.s:98     .text:00000000000000a4 .L8
     /tmp/ccuMqeif.s:103    .text:00000000000000ac .L11
GAS LISTING /tmp/ccuMqeif.s 			page 15


     /tmp/ccuMqeif.s:108    .text:00000000000000b4 .L1
     /tmp/ccuMqeif.s:63     .text:000000000000005c .L2
     /tmp/ccuMqeif.s:72     .text:000000000000006c .L3
     /tmp/ccuMqeif.s:220    .text:0000000000000128 .L13
     /tmp/ccuMqeif.s:251    .text:0000000000000164 .L15
     /tmp/ccuMqeif.s:312    .text:00000000000001b8 .L18
     /tmp/ccuMqeif.s:417    .text:0000000000000250 .L27
     /tmp/ccuMqeif.s:42     .text:000000000000002c .LEHB0
     /tmp/ccuMqeif.s:10     .text:0000000000000000 .LFB34
     /tmp/ccuMqeif.s:49     .text:0000000000000040 .LEHE0
     /tmp/ccuMqeif.s:88     .text:0000000000000090 .LEHB1
     /tmp/ccuMqeif.s:91     .text:0000000000000098 .LEHE1
     /tmp/ccuMqeif.s:134    .text:00000000000000d8 .L9
     /tmp/ccuMqeif.s:148    .text:00000000000000f4 .LEHB2
     /tmp/ccuMqeif.s:151    .text:00000000000000fc .LEHE2
     /tmp/ccuMqeif.s:1796   .debug_abbrev:0000000000000000 .Ldebug_abbrev0
     /tmp/ccuMqeif.s:3231   .debug_str:000000000000076f .LASF132
     /tmp/ccuMqeif.s:3047   .debug_str:00000000000001e4 .LASF133
     /tmp/ccuMqeif.s:3165   .debug_str:000000000000057d .LASF134
     /tmp/ccuMqeif.s:5      .text:0000000000000000 .Ltext0
     /tmp/ccuMqeif.s:440    .text:0000000000000258 .Letext0
     /tmp/ccuMqeif.s:2987   .debug_line:0000000000000000 .Ldebug_line0
     /tmp/ccuMqeif.s:3093   .debug_str:0000000000000363 .LASF0
     /tmp/ccuMqeif.s:3113   .debug_str:0000000000000406 .LASF1
     /tmp/ccuMqeif.s:3175   .debug_str:00000000000005e7 .LASF2
     /tmp/ccuMqeif.s:3185   .debug_str:0000000000000637 .LASF4
     /tmp/ccuMqeif.s:3095   .debug_str:0000000000000370 .LASF3
     /tmp/ccuMqeif.s:2999   .debug_str:0000000000000034 .LASF5
     /tmp/ccuMqeif.s:3159   .debug_str:0000000000000555 .LASF6
     /tmp/ccuMqeif.s:3153   .debug_str:0000000000000533 .LASF7
     /tmp/ccuMqeif.s:3101   .debug_str:00000000000003ae .LASF8
     /tmp/ccuMqeif.s:3071   .debug_str:00000000000002be .LASF9
     /tmp/ccuMqeif.s:3079   .debug_str:00000000000002fa .LASF10
     /tmp/ccuMqeif.s:3031   .debug_str:0000000000000160 .LASF11
     /tmp/ccuMqeif.s:3061   .debug_str:000000000000028a .LASF12
     /tmp/ccuMqeif.s:3039   .debug_str:000000000000019a .LASF13
     /tmp/ccuMqeif.s:3029   .debug_str:0000000000000150 .LASF14
     /tmp/ccuMqeif.s:3217   .debug_str:000000000000070a .LASF15
     /tmp/ccuMqeif.s:3221   .debug_str:0000000000000726 .LASF16
     /tmp/ccuMqeif.s:3207   .debug_str:00000000000006c4 .LASF17
     /tmp/ccuMqeif.s:3069   .debug_str:00000000000002b4 .LASF19
     /tmp/ccuMqeif.s:3085   .debug_str:0000000000000324 .LASF44
     /tmp/ccuMqeif.s:3263   .debug_str:0000000000000910 .LASF135
     /tmp/ccuMqeif.s:3191   .debug_str:000000000000064a .LASF18
     /tmp/ccuMqeif.s:3171   .debug_str:00000000000005c4 .LASF28
     /tmp/ccuMqeif.s:3057   .debug_str:0000000000000270 .LASF61
     /tmp/ccuMqeif.s:3223   .debug_str:000000000000073c .LASF64
     /tmp/ccuMqeif.s:3271   .debug_str:0000000000000965 .LASF21
     /tmp/ccuMqeif.s:3075   .debug_str:00000000000002e4 .LASF23
     /tmp/ccuMqeif.s:2993   .debug_str:0000000000000010 .LASF20
     /tmp/ccuMqeif.s:3125   .debug_str:0000000000000454 .LASF86
     /tmp/ccuMqeif.s:3187   .debug_str:000000000000063e .LASF22
     /tmp/ccuMqeif.s:2997   .debug_str:0000000000000028 .LASF24
     /tmp/ccuMqeif.s:3215   .debug_str:00000000000006fd .LASF25
     /tmp/ccuMqeif.s:3251   .debug_str:0000000000000897 .LASF26
     /tmp/ccuMqeif.s:3149   .debug_str:000000000000051e .LASF81
     /tmp/ccuMqeif.s:3045   .debug_str:00000000000001db .LASF108
GAS LISTING /tmp/ccuMqeif.s 			page 16


     /tmp/ccuMqeif.s:3037   .debug_str:0000000000000187 .LASF110
     /tmp/ccuMqeif.s:3201   .debug_str:00000000000006af .LASF27
     /tmp/ccuMqeif.s:3097   .debug_str:0000000000000382 .LASF29
     /tmp/ccuMqeif.s:3225   .debug_str:0000000000000744 .LASF34
     /tmp/ccuMqeif.s:3139   .debug_str:00000000000004c8 .LASF36
     /tmp/ccuMqeif.s:3091   .debug_str:000000000000035d .LASF30
     /tmp/ccuMqeif.s:3001   .debug_str:000000000000003b .LASF31
     /tmp/ccuMqeif.s:2995   .debug_str:0000000000000020 .LASF32
     /tmp/ccuMqeif.s:3147   .debug_str:000000000000050c .LASF33
     /tmp/ccuMqeif.s:3177   .debug_str:00000000000005f5 .LASF35
     /tmp/ccuMqeif.s:3023   .debug_str:0000000000000118 .LASF37
     /tmp/ccuMqeif.s:3117   .debug_str:000000000000041f .LASF38
     /tmp/ccuMqeif.s:3243   .debug_str:0000000000000869 .LASF39
     /tmp/ccuMqeif.s:3229   .debug_str:0000000000000767 .LASF40
     /tmp/ccuMqeif.s:3257   .debug_str:00000000000008df .LASF41
     /tmp/ccuMqeif.s:3115   .debug_str:0000000000000419 .LASF42
     /tmp/ccuMqeif.s:3183   .debug_str:0000000000000627 .LASF43
     /tmp/ccuMqeif.s:3259   .debug_str:00000000000008eb .LASF45
     /tmp/ccuMqeif.s:3205   .debug_str:00000000000006bb .LASF46
     /tmp/ccuMqeif.s:3267   .debug_str:0000000000000947 .LASF47
     /tmp/ccuMqeif.s:3237   .debug_str:0000000000000847 .LASF48
     /tmp/ccuMqeif.s:2991   .debug_str:000000000000000b .LASF49
     /tmp/ccuMqeif.s:3143   .debug_str:00000000000004e4 .LASF50
     /tmp/ccuMqeif.s:3233   .debug_str:0000000000000833 .LASF51
     /tmp/ccuMqeif.s:3027   .debug_str:0000000000000145 .LASF136
     /tmp/ccuMqeif.s:3005   .debug_str:000000000000006c .LASF137
     /tmp/ccuMqeif.s:3247   .debug_str:0000000000000887 .LASF52
     /tmp/ccuMqeif.s:3241   .debug_str:0000000000000864 .LASF138
     /tmp/ccuMqeif.s:3213   .debug_str:00000000000006f8 .LASF53
     /tmp/ccuMqeif.s:3141   .debug_str:00000000000004df .LASF54
     /tmp/ccuMqeif.s:3137   .debug_str:00000000000004c3 .LASF55
     /tmp/ccuMqeif.s:3209   .debug_str:00000000000006da .LASF56
     /tmp/ccuMqeif.s:3107   .debug_str:00000000000003e9 .LASF57
     /tmp/ccuMqeif.s:3021   .debug_str:00000000000000fb .LASF58
     /tmp/ccuMqeif.s:3197   .debug_str:000000000000068e .LASF59
     /tmp/ccuMqeif.s:3099   .debug_str:0000000000000391 .LASF60
     /tmp/ccuMqeif.s:3111   .debug_str:0000000000000401 .LASF62
     /tmp/ccuMqeif.s:3151   .debug_str:0000000000000523 .LASF63
     /tmp/ccuMqeif.s:3063   .debug_str:0000000000000299 .LASF65
     /tmp/ccuMqeif.s:3033   .debug_str:000000000000016f .LASF66
     /tmp/ccuMqeif.s:3009   .debug_str:000000000000009b .LASF67
     /tmp/ccuMqeif.s:3163   .debug_str:0000000000000574 .LASF68
     /tmp/ccuMqeif.s:3145   .debug_str:00000000000004ec .LASF69
     /tmp/ccuMqeif.s:3131   .debug_str:0000000000000483 .LASF70
     /tmp/ccuMqeif.s:3003   .debug_str:000000000000004b .LASF71
     /tmp/ccuMqeif.s:3087   .debug_str:000000000000033c .LASF72
     /tmp/ccuMqeif.s:3133   .debug_str:000000000000048d .LASF73
     /tmp/ccuMqeif.s:3105   .debug_str:00000000000003da .LASF74
     /tmp/ccuMqeif.s:3193   .debug_str:0000000000000652 .LASF75
     /tmp/ccuMqeif.s:3059   .debug_str:0000000000000276 .LASF76
     /tmp/ccuMqeif.s:3053   .debug_str:000000000000023c .LASF77
     /tmp/ccuMqeif.s:3007   .debug_str:0000000000000082 .LASF78
     /tmp/ccuMqeif.s:3127   .debug_str:0000000000000461 .LASF79
     /tmp/ccuMqeif.s:3051   .debug_str:0000000000000206 .LASF80
     /tmp/ccuMqeif.s:3275   .debug_str:000000000000097b .LASF82
     /tmp/ccuMqeif.s:3169   .debug_str:00000000000005bf .LASF83
     /tmp/ccuMqeif.s:3249   .debug_str:0000000000000891 .LASF84
GAS LISTING /tmp/ccuMqeif.s 			page 17


     /tmp/ccuMqeif.s:3157   .debug_str:000000000000054b .LASF85
     /tmp/ccuMqeif.s:3049   .debug_str:00000000000001f0 .LASF87
     /tmp/ccuMqeif.s:3273   .debug_str:0000000000000972 .LASF88
     /tmp/ccuMqeif.s:3195   .debug_str:0000000000000679 .LASF89
     /tmp/ccuMqeif.s:3017   .debug_str:00000000000000de .LASF90
     /tmp/ccuMqeif.s:3253   .debug_str:00000000000008b9 .LASF91
     /tmp/ccuMqeif.s:3179   .debug_str:00000000000005ff .LASF92
     /tmp/ccuMqeif.s:3103   .debug_str:00000000000003c1 .LASF93
     /tmp/ccuMqeif.s:3013   .debug_str:00000000000000be .LASF94
     /tmp/ccuMqeif.s:3043   .debug_str:00000000000001c2 .LASF95
     /tmp/ccuMqeif.s:3211   .debug_str:00000000000006ed .LASF96
     /tmp/ccuMqeif.s:3025   .debug_str:000000000000012d .LASF97
     /tmp/ccuMqeif.s:3077   .debug_str:00000000000002f0 .LASF98
     /tmp/ccuMqeif.s:3129   .debug_str:000000000000046d .LASF99
     /tmp/ccuMqeif.s:2989   .debug_str:0000000000000000 .LASF100
     /tmp/ccuMqeif.s:3227   .debug_str:000000000000074f .LASF101
     /tmp/ccuMqeif.s:3173   .debug_str:00000000000005dc .LASF102
     /tmp/ccuMqeif.s:3269   .debug_str:000000000000094d .LASF103
     /tmp/ccuMqeif.s:3189   .debug_str:0000000000000643 .LASF104
     /tmp/ccuMqeif.s:3035   .debug_str:0000000000000174 .LASF105
     /tmp/ccuMqeif.s:3203   .debug_str:00000000000006b4 .LASF106
     /tmp/ccuMqeif.s:3121   .debug_str:0000000000000432 .LASF107
     /tmp/ccuMqeif.s:3109   .debug_str:00000000000003f2 .LASF109
     /tmp/ccuMqeif.s:3181   .debug_str:000000000000060b .LASF111
     /tmp/ccuMqeif.s:3255   .debug_str:00000000000008ce .LASF112
     /tmp/ccuMqeif.s:3011   .debug_str:00000000000000a0 .LASF113
     /tmp/ccuMqeif.s:3083   .debug_str:0000000000000319 .LASF114
     /tmp/ccuMqeif.s:3089   .debug_str:0000000000000345 .LASF115
     /tmp/ccuMqeif.s:3199   .debug_str:0000000000000699 .LASF116
     /tmp/ccuMqeif.s:3265   .debug_str:0000000000000924 .LASF117
     /tmp/ccuMqeif.s:3119   .debug_str:000000000000042c .LASF118
     /tmp/ccuMqeif.s:3245   .debug_str:0000000000000882 .LASF139
     /tmp/ccuMqeif.s:3235   .debug_str:000000000000083d .LASF119
     /tmp/ccuMqeif.s:3161   .debug_str:000000000000055c .LASF140
     /tmp/ccuMqeif.s:3239   .debug_str:000000000000084f .LASF120
     /tmp/ccuMqeif.s:3055   .debug_str:0000000000000268 .LASF121
     /tmp/ccuMqeif.s:3019   .debug_str:00000000000000e7 .LASF122
     /tmp/ccuMqeif.s:3015   .debug_str:00000000000000ca .LASF123
     /tmp/ccuMqeif.s:3081   .debug_str:0000000000000308 .LASF124
     /tmp/ccuMqeif.s:3073   .debug_str:00000000000002ce .LASF125
     /tmp/ccuMqeif.s:367    .text:0000000000000204 .LFB38
     /tmp/ccuMqeif.s:424    .text:0000000000000258 .LFE38
     /tmp/ccuMqeif.s:3155   .debug_str:0000000000000546 .LASF126
     /tmp/ccuMqeif.s:2721   .debug_loc:0000000000000000 .LLST13
     /tmp/ccuMqeif.s:387    .text:0000000000000224 .LBB33
     /tmp/ccuMqeif.s:395    .text:000000000000022c .LBE33
     /tmp/ccuMqeif.s:2750   .debug_loc:0000000000000075 .LLST14
     /tmp/ccuMqeif.s:399    .text:0000000000000234 .LVL36
     /tmp/ccuMqeif.s:403    .text:000000000000023c .LVL37
     /tmp/ccuMqeif.s:324    .text:00000000000001c0 .LFB37
     /tmp/ccuMqeif.s:361    .text:0000000000000204 .LFE37
     /tmp/ccuMqeif.s:338    .text:00000000000001d8 .LVL30
     /tmp/ccuMqeif.s:350    .text:00000000000001f4 .LVL32
     /tmp/ccuMqeif.s:266    .text:0000000000000174 .LFB36
     /tmp/ccuMqeif.s:318    .text:00000000000001c0 .LFE36
     /tmp/ccuMqeif.s:273    .text:000000000000017c .LBB31
     /tmp/ccuMqeif.s:280    .text:0000000000000180 .LBE31
GAS LISTING /tmp/ccuMqeif.s 			page 18


     /tmp/ccuMqeif.s:2757   .debug_loc:0000000000000098 .LLST12
     /tmp/ccuMqeif.s:299    .text:00000000000001a4 .LVL29
     /tmp/ccuMqeif.s:181    .text:00000000000000fc .LFB35
     /tmp/ccuMqeif.s:260    .text:0000000000000174 .LFE35
     /tmp/ccuMqeif.s:2764   .debug_loc:00000000000000bb .LLST9
     /tmp/ccuMqeif.s:199    .text:0000000000000118 .LBB27
     /tmp/ccuMqeif.s:206    .text:000000000000011c .LBE27
     /tmp/ccuMqeif.s:2775   .debug_loc:00000000000000f1 .LLST10
     /tmp/ccuMqeif.s:210    .text:0000000000000120 .LBB29
     /tmp/ccuMqeif.s:217    .text:0000000000000124 .LBE29
     /tmp/ccuMqeif.s:2782   .debug_loc:0000000000000114 .LLST11
     /tmp/ccuMqeif.s:224    .text:0000000000000130 .LVL22
     /tmp/ccuMqeif.s:236    .text:0000000000000150 .LVL23
     /tmp/ccuMqeif.s:257    .text:0000000000000170 .LVL26
     /tmp/ccuMqeif.s:155    .text:00000000000000fc .LFE34
     /tmp/ccuMqeif.s:2789   .debug_loc:0000000000000137 .LLST0
     /tmp/ccuMqeif.s:2811   .debug_loc:0000000000000196 .LLST1
     /tmp/ccuMqeif.s:2833   .debug_loc:00000000000001f5 .LLST2
     /tmp/ccuMqeif.s:38     .text:000000000000002c .LBB21
     /tmp/ccuMqeif.s:53     .text:0000000000000044 .LBE21
     /tmp/ccuMqeif.s:2872   .debug_loc:0000000000000292 .LLST3
     /tmp/ccuMqeif.s:45     .text:0000000000000034 .LVL2
     /tmp/ccuMqeif.s:48     .text:0000000000000040 .LVL3
     /tmp/ccuMqeif.s:54     .text:0000000000000044 .LBB23
     /tmp/ccuMqeif.s:110    .text:00000000000000b4 .LBE23
     /tmp/ccuMqeif.s:2881   .debug_loc:00000000000002b7 .LLST4
     /tmp/ccuMqeif.s:2916   .debug_loc:0000000000000341 .LLST5
     /tmp/ccuMqeif.s:2934   .debug_loc:000000000000038d .LLST6
     /tmp/ccuMqeif.s:2952   .debug_loc:00000000000003d9 .LLST7
     /tmp/ccuMqeif.s:90     .text:0000000000000098 .LVL6
     /tmp/ccuMqeif.s:138    .text:00000000000000dc .LBB25
     /tmp/ccuMqeif.s:153    .text:00000000000000fc .LBE25
     /tmp/ccuMqeif.s:2967   .debug_loc:0000000000000422 .LLST8
     /tmp/ccuMqeif.s:143    .text:00000000000000e4 .LVL15
     /tmp/ccuMqeif.s:146    .text:00000000000000f0 .LVL16
     /tmp/ccuMqeif.s:150    .text:00000000000000fc .LVL17
     /tmp/ccuMqeif.s:3065   .debug_str:00000000000002a6 .LASF128
     /tmp/ccuMqeif.s:3067   .debug_str:00000000000002ab .LASF127
     /tmp/ccuMqeif.s:3167   .debug_str:00000000000005a9 .LASF141
     /tmp/ccuMqeif.s:3135   .debug_str:00000000000004ae .LASF129
     /tmp/ccuMqeif.s:3219   .debug_str:0000000000000716 .LASF131
     /tmp/ccuMqeif.s:3123   .debug_str:0000000000000445 .LASF130
     /tmp/ccuMqeif.s:3261   .debug_str:0000000000000901 .LASF142
     /tmp/ccuMqeif.s:3041   .debug_str:00000000000001aa .LASF143
     /tmp/ccuMqeif.s:370    .text:0000000000000204 .LVL33
     /tmp/ccuMqeif.s:386    .text:0000000000000224 .LVL34
     /tmp/ccuMqeif.s:416    .text:0000000000000250 .LVL38
     /tmp/ccuMqeif.s:420    .text:0000000000000254 .LVL39
     /tmp/ccuMqeif.s:393    .text:000000000000022c .LVL35
     /tmp/ccuMqeif.s:272    .text:000000000000017c .LVL27
     /tmp/ccuMqeif.s:278    .text:0000000000000180 .LVL28
     /tmp/ccuMqeif.s:197    .text:0000000000000118 .LVL18
     /tmp/ccuMqeif.s:246    .text:000000000000015c .LVL24
     /tmp/ccuMqeif.s:250    .text:0000000000000164 .LVL25
     /tmp/ccuMqeif.s:204    .text:000000000000011c .LVL19
     /tmp/ccuMqeif.s:209    .text:0000000000000120 .LVL20
     /tmp/ccuMqeif.s:215    .text:0000000000000124 .LVL21
GAS LISTING /tmp/ccuMqeif.s 			page 19


     /tmp/ccuMqeif.s:16     .text:0000000000000000 .LVL0
     /tmp/ccuMqeif.s:126    .text:00000000000000cc .LVL11
     /tmp/ccuMqeif.s:133    .text:00000000000000d8 .LVL13
     /tmp/ccuMqeif.s:129    .text:00000000000000d0 .LVL12
     /tmp/ccuMqeif.s:71     .text:000000000000006c .LVL5
     /tmp/ccuMqeif.s:93     .text:000000000000009c .LVL7
     /tmp/ccuMqeif.s:101    .text:00000000000000a8 .LVL8
     /tmp/ccuMqeif.s:107    .text:00000000000000b4 .LVL9
     /tmp/ccuMqeif.s:37     .text:000000000000002c .LVL1
     /tmp/ccuMqeif.s:51     .text:0000000000000044 .LVL4
     /tmp/ccuMqeif.s:121    .text:00000000000000c4 .LVL10
     /tmp/ccuMqeif.s:137    .text:00000000000000dc .LVL14
     /tmp/ccuMqeif.s:449    .debug_info:0000000000000000 .Ldebug_info0
     /tmp/ccuMqeif.s:158    .gcc_except_table:0000000000000000 .LLSDA34

UNDEFINED SYMBOLS
_ZN15MemoryAllocator8InstanceEv
_ZN15MemoryAllocator9mem_allocEm
_ZN9Scheduler3putEP3TCB
_ZN15MemoryAllocator8mem_freeEPv
_Unwind_Resume
__gxx_personality_v0
_ZN9Scheduler3getEv
context_switch
_Z15thread_dispatchv
_ZN5Riscv10popSppSpieEv
_ZN5SList3addEP3TCBm
