GAS LISTING /tmp/ccuEHK5W.s 			page 1


   1              		.file	"TCB.cpp"
   2              		.option pic
   3              		.option norelax
   4              		.text
   5              	.Ltext0:
   6              		.align	2
   7              		.globl	_ZN3TCB12createThreadEPFvPvES0_Pm
   9              	_ZN3TCB12createThreadEPFvPvES0_Pm:
  10              	.LFB30:
  11              		.file 1 "src/TCB.cpp"
   1:src/TCB.cpp   **** #include "../h/TCB.hpp"
   2:src/TCB.cpp   **** #include "../h/Scheduler.hpp"
   3:src/TCB.cpp   **** #include  "../h/print.hpp"
   4:src/TCB.cpp   **** #include "../h/syscall_c.hpp"
   5:src/TCB.cpp   **** #include "../h/Riscv.hpp"
   6:src/TCB.cpp   **** 
   7:src/TCB.cpp   **** extern "C" void context_switch(TCB::Context* oldContext, TCB::Context* newContext);
   8:src/TCB.cpp   **** 
   9:src/TCB.cpp   **** TCB* TCB::running=nullptr;
  10:src/TCB.cpp   **** time_t TCB::timeCounter=0;
  11:src/TCB.cpp   **** 
  12:src/TCB.cpp   **** TCB* TCB::createThread(Body body, void *arg, uint64 *stack) {
  12              		.loc 1 12 61
  13              		.cfi_startproc
  14              		.cfi_personality 0x9b,DW.ref.__gxx_personality_v0
  15              		.cfi_lsda 0x1b,.LLSDA30
  16              	.LVL0:
  17 0000 130101FD 		addi	sp,sp,-48
  18              		.cfi_def_cfa_offset 48
  19 0004 23341102 		sd	ra,40(sp)
  20 0008 23308102 		sd	s0,32(sp)
  21 000c 233C9100 		sd	s1,24(sp)
  22 0010 23382101 		sd	s2,16(sp)
  23 0014 23343101 		sd	s3,8(sp)
  24 0018 23304101 		sd	s4,0(sp)
  25              		.cfi_offset 1, -8
  26              		.cfi_offset 8, -16
  27              		.cfi_offset 9, -24
  28              		.cfi_offset 18, -32
  29              		.cfi_offset 19, -40
  30              		.cfi_offset 20, -48
  31 001c 13040103 		addi	s0,sp,48
  32              		.cfi_def_cfa 8, 0
  33 0020 93090500 		mv	s3,a0
  34 0024 138A0500 		mv	s4,a1
  35 0028 13090600 		mv	s2,a2
  13:src/TCB.cpp   ****     return new TCB(body, arg, stack);
  36              		.loc 1 13 5
  37              	.LVL1:
  38              	.LBB19:
  39              	.LBB20:
  40              		.file 2 "src/../h/TCB.hpp"
   1:src/../h/TCB.hpp **** //
   2:src/../h/TCB.hpp **** // Created by os on 9/23/25.
   3:src/../h/TCB.hpp **** //
   4:src/../h/TCB.hpp **** 
   5:src/../h/TCB.hpp **** #ifndef PROJECT_BASE_V1_1_COPY_TCB_HPP
GAS LISTING /tmp/ccuEHK5W.s 			page 2


   6:src/../h/TCB.hpp **** #define PROJECT_BASE_V1_1_COPY_TCB_HPP
   7:src/../h/TCB.hpp **** #include "../lib/hw.h"
   8:src/../h/TCB.hpp **** #include "../h/Scheduler.hpp"
   9:src/../h/TCB.hpp **** #include "../h/MemoryAllocator.hpp"
  10:src/../h/TCB.hpp **** 
  11:src/../h/TCB.hpp **** class TCB
  12:src/../h/TCB.hpp **** {
  13:src/../h/TCB.hpp **** public:
  14:src/../h/TCB.hpp ****     void* operator new(size_t size)
  15:src/../h/TCB.hpp **** {
  16:src/../h/TCB.hpp ****     return MemoryAllocator::Instance()->mem_alloc(size);
  41              		.loc 2 16 5
  42              	.LEHB0:
  43              		.loc 2 16 50 is_stmt 0
  44 002c 97000000 		call	_ZN15MemoryAllocator8InstanceEv@plt
  44      E7800000 
  45              	.LVL2:
  46 0034 93050004 		li	a1,64
  47 0038 97000000 		call	_ZN15MemoryAllocator9mem_allocEm@plt
  47      E7800000 
  48              	.LVL3:
  49              	.LEHE0:
  50 0040 93040500 		mv	s1,a0
  51              	.LVL4:
  52              	.LBE20:
  53              	.LBE19:
  54              	.LBB21:
  55              	.LBB22:
  17:src/../h/TCB.hpp **** }
  18:src/../h/TCB.hpp **** 
  19:src/../h/TCB.hpp ****     void operator delete(void* ptr)
  20:src/../h/TCB.hpp ****     {
  21:src/../h/TCB.hpp ****         return MemoryAllocator::Instance()->mem_free(ptr);
  22:src/../h/TCB.hpp ****     }
  23:src/../h/TCB.hpp **** 
  24:src/../h/TCB.hpp **** 
  25:src/../h/TCB.hpp ****     using Body=void(*)(void*);
  26:src/../h/TCB.hpp **** 
  27:src/../h/TCB.hpp ****     ~TCB()
  28:src/../h/TCB.hpp ****     {
  29:src/../h/TCB.hpp ****         delete stack;
  30:src/../h/TCB.hpp ****     }
  31:src/../h/TCB.hpp **** 
  32:src/../h/TCB.hpp ****     static TCB* createThread(Body body, void* arg, uint64* stack);
  33:src/../h/TCB.hpp **** 
  34:src/../h/TCB.hpp ****     static void dispatch();
  35:src/../h/TCB.hpp ****     static int exit();
  36:src/../h/TCB.hpp **** 
  37:src/../h/TCB.hpp ****     bool isFinished() const { return finished;}
  38:src/../h/TCB.hpp **** 
  39:src/../h/TCB.hpp ****     void block() { this->blocked = true; }
  40:src/../h/TCB.hpp ****     void unblock() { this->blocked = false; }
  41:src/../h/TCB.hpp ****     bool isBlocked() const { return blocked; }
  42:src/../h/TCB.hpp **** 
  43:src/../h/TCB.hpp ****     time_t getTimeSlice() const { return timeSlice; }
  44:src/../h/TCB.hpp **** 
  45:src/../h/TCB.hpp **** 
GAS LISTING /tmp/ccuEHK5W.s 			page 3


  46:src/../h/TCB.hpp ****     static TCB* running;
  47:src/../h/TCB.hpp **** 
  48:src/../h/TCB.hpp ****     static time_t timeCounter;
  49:src/../h/TCB.hpp **** 
  50:src/../h/TCB.hpp ****     struct Context
  51:src/../h/TCB.hpp ****     {
  52:src/../h/TCB.hpp ****         uint64 ra;
  53:src/../h/TCB.hpp ****         uint64 sp;
  54:src/../h/TCB.hpp ****     };
  55:src/../h/TCB.hpp **** 
  56:src/../h/TCB.hpp **** private:
  57:src/../h/TCB.hpp ****     TCB(Body body, void* arg, uint64* stackMem)
  58:src/../h/TCB.hpp ****         : finished(false),
  59:src/../h/TCB.hpp ****           stack(stackMem),
  60:src/../h/TCB.hpp ****           arg(arg),   // now in correct order
  61:src/../h/TCB.hpp ****           context({
  62:src/../h/TCB.hpp ****               body != nullptr ? (uint64)&TCBWrapper : 0,
  63:src/../h/TCB.hpp ****               body != nullptr ? (uint64)((char*)stackMem + DEFAULT_STACK_SIZE) : 0
  64:src/../h/TCB.hpp ****           }),
  65:src/../h/TCB.hpp ****           body(body)
  56              		.loc 2 65 20
  57 0044 23000500 		sb	zero,0(a0)
  58 0048 23342501 		sd	s2,8(a0)
  59 004c 23384501 		sd	s4,16(a0)
  62:src/../h/TCB.hpp ****               body != nullptr ? (uint64)((char*)stackMem + DEFAULT_STACK_SIZE) : 0
  60              		.loc 2 62 31
  61 0050 63860904 		beqz	s3,.L7
  62 0054 97070000 		lla	a5,_ZN3TCB10TCBWrapperEv
  62      93870700 
  63              	.L2:
  64              		.loc 2 65 20
  65 005c 23B4F402 		sd	a5,40(s1)
  63:src/../h/TCB.hpp ****           }),
  66              		.loc 2 63 31
  67 0060 63820904 		beqz	s3,.L8
  63:src/../h/TCB.hpp ****           }),
  68              		.loc 2 63 58
  69 0064 37160000 		li	a2,4096
  70 0068 3309C900 		add	s2,s2,a2
  71              	.LVL5:
  72              	.L3:
  73              		.loc 2 65 20
  74 006c 23B82403 		sd	s2,48(s1)
  75 0070 23BC3403 		sd	s3,56(s1)
  66:src/../h/TCB.hpp ****     {
  67:src/../h/TCB.hpp ****         this->blocked = false;
  76              		.loc 2 67 9 is_stmt 1
  77              		.loc 2 67 23 is_stmt 0
  78 0074 238C0400 		sb	zero,24(s1)
  68:src/../h/TCB.hpp ****         this->timeSlice= DEFAULT_TIME_SLICE;
  79              		.loc 2 68 9 is_stmt 1
  80              		.loc 2 68 24 is_stmt 0
  81 0078 93072000 		li	a5,2
  82 007c 23B0F402 		sd	a5,32(s1)
  69:src/../h/TCB.hpp ****         if (running == nullptr) {
  83              		.loc 2 69 9 is_stmt 1
  84              		.loc 2 69 21 is_stmt 0
GAS LISTING /tmp/ccuEHK5W.s 			page 4


  85 0080 97070000 		ld	a5,.LANCHOR0
  85      83B70700 
  86              		.loc 2 69 9
  87 0088 63820702 		beqz	a5,.L11
  70:src/../h/TCB.hpp ****             running = this;
  71:src/../h/TCB.hpp ****         } else {
  72:src/../h/TCB.hpp ****             Scheduler::put(this);
  88              		.loc 2 72 13 is_stmt 1
  89              		.loc 2 72 27 is_stmt 0
  90 008c 13850400 		mv	a0,s1
  91              	.LEHB1:
  92 0090 97000000 		call	_ZN9Scheduler3putEP3TCB@plt
  92      E7800000 
  93              	.LVL6:
  94              	.LEHE1:
  95 0098 6F00C001 		j	.L1
  96              	.LVL7:
  97              	.L7:
  62:src/../h/TCB.hpp ****               body != nullptr ? (uint64)((char*)stackMem + DEFAULT_STACK_SIZE) : 0
  98              		.loc 2 62 31
  99 009c 93070000 		li	a5,0
 100 00a0 6FF0DFFB 		j	.L2
 101              	.L8:
  63:src/../h/TCB.hpp ****           }),
 102              		.loc 2 63 31
 103 00a4 13090000 		li	s2,0
 104              	.LVL8:
 105 00a8 6FF05FFC 		j	.L3
 106              	.L11:
  70:src/../h/TCB.hpp ****             running = this;
 107              		.loc 2 70 13 is_stmt 1
  70:src/../h/TCB.hpp ****             running = this;
 108              		.loc 2 70 21 is_stmt 0
 109 00ac 97070000 		sd	s1,.LANCHOR0,a5
 109      23B09700 
 110              	.LVL9:
 111              	.L1:
 112              	.LBE22:
 113              	.LBE21:
  14:src/TCB.cpp   **** }
 114              		.loc 1 14 1
 115 00b4 13850400 		mv	a0,s1
 116 00b8 83308102 		ld	ra,40(sp)
 117              		.cfi_remember_state
 118              		.cfi_restore 1
 119 00bc 03340102 		ld	s0,32(sp)
 120              		.cfi_restore 8
 121              		.cfi_def_cfa 2, 48
 122 00c0 83348101 		ld	s1,24(sp)
 123              		.cfi_restore 9
 124              	.LVL10:
 125 00c4 03390101 		ld	s2,16(sp)
 126              		.cfi_restore 18
 127 00c8 83398100 		ld	s3,8(sp)
 128              		.cfi_restore 19
 129              	.LVL11:
 130 00cc 033A0100 		ld	s4,0(sp)
GAS LISTING /tmp/ccuEHK5W.s 			page 5


 131              		.cfi_restore 20
 132              	.LVL12:
 133 00d0 13010103 		addi	sp,sp,48
 134              		.cfi_def_cfa_offset 0
 135 00d4 67800000 		jr	ra
 136              	.LVL13:
 137              	.L9:
 138              		.cfi_restore_state
 139 00d8 13090500 		mv	s2,a0
 140              	.LVL14:
 141              	.LBB23:
 142              	.LBB24:
  21:src/../h/TCB.hpp ****     }
 143              		.loc 2 21 9 is_stmt 1
  21:src/../h/TCB.hpp ****     }
 144              		.loc 2 21 53 is_stmt 0
 145 00dc 97000000 		call	_ZN15MemoryAllocator8InstanceEv@plt
 145      E7800000 
 146              	.LVL15:
 147 00e4 93850400 		mv	a1,s1
 148 00e8 97000000 		call	_ZN15MemoryAllocator8mem_freeEPv@plt
 148      E7800000 
 149              	.LVL16:
 150 00f0 13050900 		mv	a0,s2
 151              	.LEHB2:
 152 00f4 97000000 		call	_Unwind_Resume@plt
 152      E7800000 
 153              	.LVL17:
 154              	.LEHE2:
 155              	.LBE24:
 156              	.LBE23:
 157              		.cfi_endproc
 158              	.LFE30:
 159              		.globl	__gxx_personality_v0
 160              		.section	.gcc_except_table,"a",@progbits
 161              	.LLSDA30:
 162 0000 FF       		.byte	0xff
 163 0001 FF       		.byte	0xff
 164 0002 03       		.byte	0x3
 165 0003 27       		.byte	0x27
 166 0004 00000000 		.4byte	.LEHB0-.LFB30
 167 0008 00000000 		.4byte	.LEHE0-.LEHB0
 168 000c 00000000 		.4byte	0
 169 0010 00       		.byte	0
 170 0011 00000000 		.4byte	.LEHB1-.LFB30
 171 0015 00000000 		.4byte	.LEHE1-.LEHB1
 172 0019 00000000 		.4byte	.L9-.LFB30
 173 001d 00       		.byte	0
 174 001e 00000000 		.4byte	.LEHB2-.LFB30
 175 0022 00000000 		.4byte	.LEHE2-.LEHB2
 176 0026 00000000 		.4byte	0
 177 002a 00       		.byte	0
 178              		.text
 180              		.align	2
 181              		.globl	_ZN3TCB8dispatchEv
 183              	_ZN3TCB8dispatchEv:
 184              	.LFB31:
GAS LISTING /tmp/ccuEHK5W.s 			page 6


  15:src/TCB.cpp   **** 
  16:src/TCB.cpp   **** void TCB::dispatch() {
 185              		.loc 1 16 22 is_stmt 1
 186              		.cfi_startproc
 187 00fc 130101FE 		addi	sp,sp,-32
 188              		.cfi_def_cfa_offset 32
 189 0100 233C1100 		sd	ra,24(sp)
 190 0104 23388100 		sd	s0,16(sp)
 191 0108 23349100 		sd	s1,8(sp)
 192              		.cfi_offset 1, -8
 193              		.cfi_offset 8, -16
 194              		.cfi_offset 9, -24
 195 010c 13040102 		addi	s0,sp,32
 196              		.cfi_def_cfa 8, 0
  17:src/TCB.cpp   ****     //pprintString("TCB::dispatch()\n");
  18:src/TCB.cpp   ****     TCB *old=running;
 197              		.loc 1 18 5
 198              		.loc 1 18 10 is_stmt 0
 199 0110 97040000 		ld	s1,.LANCHOR0
 199      83B40400 
 200              	.LVL18:
  19:src/TCB.cpp   ****     if (!old->isFinished() && !old->isBlocked()) {
 201              		.loc 1 19 5 is_stmt 1
 202              	.LBB25:
 203              	.LBB26:
  37:src/../h/TCB.hpp **** 
 204              		.loc 2 37 31
  37:src/../h/TCB.hpp **** 
 205              		.loc 2 37 38 is_stmt 0
 206 0118 83C70400 		lbu	a5,0(s1)
 207              	.LVL19:
 208              	.LBE26:
 209              	.LBE25:
 210              		.loc 1 19 28
 211 011c 63960700 		bnez	a5,.L13
 212              	.LVL20:
 213              	.LBB27:
 214              	.LBB28:
  41:src/../h/TCB.hpp **** 
 215              		.loc 2 41 30 is_stmt 1
  41:src/../h/TCB.hpp **** 
 216              		.loc 2 41 37 is_stmt 0
 217 0120 83C78401 		lbu	a5,24(s1)
 218              	.LVL21:
 219              	.LBE28:
 220              	.LBE27:
 221              		.loc 1 19 28
 222 0124 63800704 		beqz	a5,.L15
 223              	.L13:
  20:src/TCB.cpp   ****         Scheduler::put(old);
  21:src/TCB.cpp   ****     }
  22:src/TCB.cpp   ****     running=Scheduler::get();
 224              		.loc 1 22 5 is_stmt 1
 225              		.loc 1 22 27 is_stmt 0
 226 0128 97000000 		call	_ZN9Scheduler3getEv@plt
 226      E7800000 
 227              	.LVL22:
GAS LISTING /tmp/ccuEHK5W.s 			page 7


 228              		.loc 1 22 12
 229 0130 97070000 		lla	a5,.LANCHOR0
 229      93870700 
 230 0138 23B0A700 		sd	a0,0(a5)
  23:src/TCB.cpp   **** 
  24:src/TCB.cpp   **** 
  25:src/TCB.cpp   ****     timeCounter=0;
 231              		.loc 1 25 5 is_stmt 1
 232              		.loc 1 25 16 is_stmt 0
 233 013c 23B40700 		sd	zero,8(a5)
  26:src/TCB.cpp   ****     //Riscv::restorePrivilege();
  27:src/TCB.cpp   ****     context_switch(&old->context, &running->context);
 234              		.loc 1 27 5 is_stmt 1
 235              		.loc 1 27 19 is_stmt 0
 236 0140 93058502 		addi	a1,a0,40
 237 0144 13858402 		addi	a0,s1,40
 238 0148 97000000 		call	context_switch@plt
 238      E7800000 
 239              	.LVL23:
  28:src/TCB.cpp   **** }
 240              		.loc 1 28 1
 241 0150 83308101 		ld	ra,24(sp)
 242              		.cfi_remember_state
 243              		.cfi_restore 1
 244 0154 03340101 		ld	s0,16(sp)
 245              		.cfi_restore 8
 246              		.cfi_def_cfa 2, 32
 247 0158 83348100 		ld	s1,8(sp)
 248              		.cfi_restore 9
 249              	.LVL24:
 250 015c 13010102 		addi	sp,sp,32
 251              		.cfi_def_cfa_offset 0
 252 0160 67800000 		jr	ra
 253              	.LVL25:
 254              	.L15:
 255              		.cfi_restore_state
  20:src/TCB.cpp   ****     }
 256              		.loc 1 20 9 is_stmt 1
  20:src/TCB.cpp   ****     }
 257              		.loc 1 20 23 is_stmt 0
 258 0164 13850400 		mv	a0,s1
 259 0168 97000000 		call	_ZN9Scheduler3putEP3TCB@plt
 259      E7800000 
 260              	.LVL26:
 261 0170 6FF09FFB 		j	.L13
 262              		.cfi_endproc
 263              	.LFE31:
 265              		.align	2
 266              		.globl	_ZN3TCB4exitEv
 268              	_ZN3TCB4exitEv:
 269              	.LFB32:
  29:src/TCB.cpp   **** 
  30:src/TCB.cpp   **** 
  31:src/TCB.cpp   **** 
  32:src/TCB.cpp   **** int TCB::exit() {
 270              		.loc 1 32 17 is_stmt 1
 271              		.cfi_startproc
GAS LISTING /tmp/ccuEHK5W.s 			page 8


  33:src/TCB.cpp   ****     if (running->isFinished()) {
 272              		.loc 1 33 5
 273              		.loc 1 33 28 is_stmt 0
 274 0174 97070000 		ld	a5,.LANCHOR0
 274      83B70700 
 275              	.LVL27:
 276              	.LBB29:
 277              	.LBB30:
  37:src/../h/TCB.hpp **** 
 278              		.loc 2 37 31 is_stmt 1
  37:src/../h/TCB.hpp **** 
 279              		.loc 2 37 38 is_stmt 0
 280 017c 03C70700 		lbu	a4,0(a5)
 281              	.LVL28:
 282              	.LBE30:
 283              	.LBE29:
 284              		.loc 1 33 5
 285 0180 631C0702 		bnez	a4,.L18
  32:src/TCB.cpp   ****     if (running->isFinished()) {
 286              		.loc 1 32 17
 287 0184 130101FF 		addi	sp,sp,-16
 288              		.cfi_def_cfa_offset 16
 289 0188 23341100 		sd	ra,8(sp)
 290 018c 23308100 		sd	s0,0(sp)
 291              		.cfi_offset 1, -8
 292              		.cfi_offset 8, -16
 293 0190 13040101 		addi	s0,sp,16
 294              		.cfi_def_cfa 8, 0
  34:src/TCB.cpp   ****         return -1;
  35:src/TCB.cpp   ****     }
  36:src/TCB.cpp   ****     running->finished=true;
 295              		.loc 1 36 5 is_stmt 1
 296              		.loc 1 36 22 is_stmt 0
 297 0194 13071000 		li	a4,1
 298 0198 2380E700 		sb	a4,0(a5)
  37:src/TCB.cpp   ****     thread_dispatch();
 299              		.loc 1 37 5 is_stmt 1
 300              		.loc 1 37 20 is_stmt 0
 301 019c 97000000 		call	_Z15thread_dispatchv@plt
 301      E7800000 
 302              	.LVL29:
  38:src/TCB.cpp   ****     return 0;
 303              		.loc 1 38 5 is_stmt 1
 304              		.loc 1 38 12 is_stmt 0
 305 01a4 13050000 		li	a0,0
  39:src/TCB.cpp   **** }
 306              		.loc 1 39 1
 307 01a8 83308100 		ld	ra,8(sp)
 308              		.cfi_restore 1
 309 01ac 03340100 		ld	s0,0(sp)
 310              		.cfi_restore 8
 311              		.cfi_def_cfa 2, 16
 312 01b0 13010101 		addi	sp,sp,16
 313              		.cfi_def_cfa_offset 0
 314 01b4 67800000 		jr	ra
 315              	.L18:
  34:src/TCB.cpp   ****     }
GAS LISTING /tmp/ccuEHK5W.s 			page 9


 316              		.loc 1 34 17
 317 01b8 1305F0FF 		li	a0,-1
 318              		.loc 1 39 1
 319 01bc 67800000 		ret
 320              		.cfi_endproc
 321              	.LFE32:
 323              		.align	2
 324              		.globl	_ZN3TCB10TCBWrapperEv
 326              	_ZN3TCB10TCBWrapperEv:
 327              	.LFB33:
  40:src/TCB.cpp   **** 
  41:src/TCB.cpp   **** void TCB::TCBWrapper() {
 328              		.loc 1 41 24 is_stmt 1
 329              		.cfi_startproc
 330 01c0 130101FF 		addi	sp,sp,-16
 331              		.cfi_def_cfa_offset 16
 332 01c4 23341100 		sd	ra,8(sp)
 333 01c8 23308100 		sd	s0,0(sp)
 334              		.cfi_offset 1, -8
 335              		.cfi_offset 8, -16
 336 01cc 13040101 		addi	s0,sp,16
 337              		.cfi_def_cfa 8, 0
  42:src/TCB.cpp   ****     //pprintString("Entered wrapper\n");
  43:src/TCB.cpp   ****     //Riscv::restorePrivilege();
  44:src/TCB.cpp   ****     Riscv::popSppSpie();
 338              		.loc 1 44 5
 339              		.loc 1 44 22 is_stmt 0
 340 01d0 97000000 		call	_ZN5Riscv10popSppSpieEv@plt
 340      E7800000 
 341              	.LVL30:
  45:src/TCB.cpp   ****     running->body(running->arg);
 342              		.loc 1 45 5 is_stmt 1
 343              		.loc 1 45 14 is_stmt 0
 344 01d8 97070000 		ld	a5,.LANCHOR0
 344      83B70700 
 345 01e0 03B78703 		ld	a4,56(a5)
 346              		.loc 1 45 18
 347 01e4 03B50701 		ld	a0,16(a5)
 348 01e8 E7000700 		jalr	a4
 349              	.LVL31:
  46:src/TCB.cpp   ****     exit();
 350              		.loc 1 46 5 is_stmt 1
 351              		.loc 1 46 9 is_stmt 0
 352 01ec 97000000 		call	_ZN3TCB4exitEv
 352      E7800000 
 353              	.LVL32:
  47:src/TCB.cpp   **** }...
 354              		.loc 1 47 1
 355 01f4 83308100 		ld	ra,8(sp)
 356              		.cfi_restore 1
 357 01f8 03340100 		ld	s0,0(sp)
 358              		.cfi_restore 8
 359              		.cfi_def_cfa 2, 16
 360 01fc 13010101 		addi	sp,sp,16
 361              		.cfi_def_cfa_offset 0
 362 0200 67800000 		jr	ra
 363              		.cfi_endproc
GAS LISTING /tmp/ccuEHK5W.s 			page 10


 364              	.LFE33:
 366              		.globl	_ZN3TCB11timeCounterE
 367              		.globl	_ZN3TCB7runningE
 368              		.bss
 369              		.align	3
 370              		.set	.LANCHOR0,. + 0
 373              	_ZN3TCB7runningE:
 374 0000 00000000 		.zero	8
 374      00000000 
 377              	_ZN3TCB11timeCounterE:
 378 0008 00000000 		.zero	8
 378      00000000 
 379              		.text
 380              	.Letext0:
 381              		.file 3 "src/../h/../lib/hw.h"
 382              		.file 4 "src/../h/../h/Scheduler.hpp"
 383              		.file 5 "src/../h/../h/List.hpp"
 384              		.file 6 "src/../h/../h/MemoryAllocator.hpp"
 385              		.file 7 "src/../h/Riscv.hpp"
 386              		.file 8 "src/../h/syscall_c.hpp"
 2963              		.align	3
 2966              	DW.ref.__gxx_personality_v0:
 2967 0000 00000000 		.dword	__gxx_personality_v0
 2967      00000000 
 2968              		.ident	"GCC: (Ubuntu 9.4.0-1ubuntu1~20.04) 9.4.0"
 2969              		.section	.note.GNU-stack,"",@progbits
GAS LISTING /tmp/ccuEHK5W.s 			page 11


DEFINED SYMBOLS
                            *ABS*:0000000000000000 TCB.cpp
     /tmp/ccuEHK5W.s:9      .text:0000000000000000 _ZN3TCB12createThreadEPFvPvES0_Pm
     /tmp/ccuEHK5W.s:13     .text:0000000000000000 .L0 
     /tmp/ccuEHK5W.s:2966   .data.rel.local.DW.ref.__gxx_personality_v0:0000000000000000 DW.ref.__gxx_personality_v0
     /tmp/ccuEHK5W.s:17     .text:0000000000000000 .L0 
     /tmp/ccuEHK5W.s:18     .text:0000000000000004 .L0 
     /tmp/ccuEHK5W.s:25     .text:000000000000001c .L0 
     /tmp/ccuEHK5W.s:26     .text:000000000000001c .L0 
     /tmp/ccuEHK5W.s:27     .text:000000000000001c .L0 
     /tmp/ccuEHK5W.s:28     .text:000000000000001c .L0 
     /tmp/ccuEHK5W.s:29     .text:000000000000001c .L0 
     /tmp/ccuEHK5W.s:30     .text:000000000000001c .L0 
     /tmp/ccuEHK5W.s:32     .text:0000000000000020 .L0 
     /tmp/ccuEHK5W.s:41     .text:000000000000002c .L0 
     /tmp/ccuEHK5W.s:43     .text:000000000000002c .L0 
     /tmp/ccuEHK5W.s:44     .text:000000000000002c .L0 
     /tmp/ccuEHK5W.s:57     .text:0000000000000044 .L0 
     /tmp/ccuEHK5W.s:61     .text:0000000000000050 .L0 
     /tmp/ccuEHK5W.s:326    .text:00000000000001c0 _ZN3TCB10TCBWrapperEv
     /tmp/ccuEHK5W.s:65     .text:000000000000005c .L0 
     /tmp/ccuEHK5W.s:67     .text:0000000000000060 .L0 
     /tmp/ccuEHK5W.s:69     .text:0000000000000064 .L0 
     /tmp/ccuEHK5W.s:74     .text:000000000000006c .L0 
     /tmp/ccuEHK5W.s:77     .text:0000000000000074 .L0 
     /tmp/ccuEHK5W.s:78     .text:0000000000000074 .L0 
     /tmp/ccuEHK5W.s:80     .text:0000000000000078 .L0 
     /tmp/ccuEHK5W.s:81     .text:0000000000000078 .L0 
     /tmp/ccuEHK5W.s:84     .text:0000000000000080 .L0 
     /tmp/ccuEHK5W.s:85     .text:0000000000000080 .L0 
     /tmp/ccuEHK5W.s:87     .text:0000000000000088 .L0 
     /tmp/ccuEHK5W.s:89     .text:000000000000008c .L0 
     /tmp/ccuEHK5W.s:90     .text:000000000000008c .L0 
     /tmp/ccuEHK5W.s:99     .text:000000000000009c .L0 
     /tmp/ccuEHK5W.s:103    .text:00000000000000a4 .L0 
     /tmp/ccuEHK5W.s:108    .text:00000000000000ac .L0 
     /tmp/ccuEHK5W.s:109    .text:00000000000000ac .L0 
     /tmp/ccuEHK5W.s:115    .text:00000000000000b4 .L0 
     /tmp/ccuEHK5W.s:117    .text:00000000000000bc .L0 
     /tmp/ccuEHK5W.s:118    .text:00000000000000bc .L0 
     /tmp/ccuEHK5W.s:120    .text:00000000000000c0 .L0 
     /tmp/ccuEHK5W.s:121    .text:00000000000000c0 .L0 
     /tmp/ccuEHK5W.s:123    .text:00000000000000c4 .L0 
     /tmp/ccuEHK5W.s:126    .text:00000000000000c8 .L0 
     /tmp/ccuEHK5W.s:128    .text:00000000000000cc .L0 
     /tmp/ccuEHK5W.s:131    .text:00000000000000d0 .L0 
     /tmp/ccuEHK5W.s:134    .text:00000000000000d4 .L0 
     /tmp/ccuEHK5W.s:138    .text:00000000000000d8 .L0 
     /tmp/ccuEHK5W.s:144    .text:00000000000000dc .L0 
     /tmp/ccuEHK5W.s:145    .text:00000000000000dc .L0 
     /tmp/ccuEHK5W.s:157    .text:00000000000000fc .L0 
     /tmp/ccuEHK5W.s:183    .text:00000000000000fc _ZN3TCB8dispatchEv
     /tmp/ccuEHK5W.s:186    .text:00000000000000fc .L0 
     /tmp/ccuEHK5W.s:187    .text:00000000000000fc .L0 
     /tmp/ccuEHK5W.s:188    .text:0000000000000100 .L0 
     /tmp/ccuEHK5W.s:192    .text:000000000000010c .L0 
     /tmp/ccuEHK5W.s:193    .text:000000000000010c .L0 
GAS LISTING /tmp/ccuEHK5W.s 			page 12


     /tmp/ccuEHK5W.s:194    .text:000000000000010c .L0 
     /tmp/ccuEHK5W.s:196    .text:0000000000000110 .L0 
     /tmp/ccuEHK5W.s:198    .text:0000000000000110 .L0 
     /tmp/ccuEHK5W.s:199    .text:0000000000000110 .L0 
     /tmp/ccuEHK5W.s:204    .text:0000000000000118 .L0 
     /tmp/ccuEHK5W.s:205    .text:0000000000000118 .L0 
     /tmp/ccuEHK5W.s:206    .text:0000000000000118 .L0 
     /tmp/ccuEHK5W.s:211    .text:000000000000011c .L0 
     /tmp/ccuEHK5W.s:216    .text:0000000000000120 .L0 
     /tmp/ccuEHK5W.s:217    .text:0000000000000120 .L0 
     /tmp/ccuEHK5W.s:222    .text:0000000000000124 .L0 
     /tmp/ccuEHK5W.s:225    .text:0000000000000128 .L0 
     /tmp/ccuEHK5W.s:226    .text:0000000000000128 .L0 
     /tmp/ccuEHK5W.s:229    .text:0000000000000130 .L0 
     /tmp/ccuEHK5W.s:232    .text:000000000000013c .L0 
     /tmp/ccuEHK5W.s:233    .text:000000000000013c .L0 
     /tmp/ccuEHK5W.s:235    .text:0000000000000140 .L0 
     /tmp/ccuEHK5W.s:236    .text:0000000000000140 .L0 
     /tmp/ccuEHK5W.s:241    .text:0000000000000150 .L0 
     /tmp/ccuEHK5W.s:242    .text:0000000000000154 .L0 
     /tmp/ccuEHK5W.s:243    .text:0000000000000154 .L0 
     /tmp/ccuEHK5W.s:245    .text:0000000000000158 .L0 
     /tmp/ccuEHK5W.s:246    .text:0000000000000158 .L0 
     /tmp/ccuEHK5W.s:248    .text:000000000000015c .L0 
     /tmp/ccuEHK5W.s:251    .text:0000000000000160 .L0 
     /tmp/ccuEHK5W.s:255    .text:0000000000000164 .L0 
     /tmp/ccuEHK5W.s:257    .text:0000000000000164 .L0 
     /tmp/ccuEHK5W.s:258    .text:0000000000000164 .L0 
     /tmp/ccuEHK5W.s:262    .text:0000000000000174 .L0 
     /tmp/ccuEHK5W.s:268    .text:0000000000000174 _ZN3TCB4exitEv
     /tmp/ccuEHK5W.s:271    .text:0000000000000174 .L0 
     /tmp/ccuEHK5W.s:272    .text:0000000000000174 .L0 
     /tmp/ccuEHK5W.s:273    .text:0000000000000174 .L0 
     /tmp/ccuEHK5W.s:274    .text:0000000000000174 .L0 
     /tmp/ccuEHK5W.s:279    .text:000000000000017c .L0 
     /tmp/ccuEHK5W.s:280    .text:000000000000017c .L0 
     /tmp/ccuEHK5W.s:285    .text:0000000000000180 .L0 
     /tmp/ccuEHK5W.s:287    .text:0000000000000184 .L0 
     /tmp/ccuEHK5W.s:288    .text:0000000000000188 .L0 
     /tmp/ccuEHK5W.s:291    .text:0000000000000190 .L0 
     /tmp/ccuEHK5W.s:292    .text:0000000000000190 .L0 
     /tmp/ccuEHK5W.s:294    .text:0000000000000194 .L0 
     /tmp/ccuEHK5W.s:296    .text:0000000000000194 .L0 
     /tmp/ccuEHK5W.s:297    .text:0000000000000194 .L0 
     /tmp/ccuEHK5W.s:300    .text:000000000000019c .L0 
     /tmp/ccuEHK5W.s:301    .text:000000000000019c .L0 
     /tmp/ccuEHK5W.s:304    .text:00000000000001a4 .L0 
     /tmp/ccuEHK5W.s:305    .text:00000000000001a4 .L0 
     /tmp/ccuEHK5W.s:307    .text:00000000000001a8 .L0 
     /tmp/ccuEHK5W.s:308    .text:00000000000001ac .L0 
     /tmp/ccuEHK5W.s:310    .text:00000000000001b0 .L0 
     /tmp/ccuEHK5W.s:311    .text:00000000000001b0 .L0 
     /tmp/ccuEHK5W.s:313    .text:00000000000001b4 .L0 
     /tmp/ccuEHK5W.s:317    .text:00000000000001b8 .L0 
     /tmp/ccuEHK5W.s:319    .text:00000000000001bc .L0 
     /tmp/ccuEHK5W.s:320    .text:00000000000001c0 .L0 
     /tmp/ccuEHK5W.s:329    .text:00000000000001c0 .L0 
GAS LISTING /tmp/ccuEHK5W.s 			page 13


     /tmp/ccuEHK5W.s:330    .text:00000000000001c0 .L0 
     /tmp/ccuEHK5W.s:331    .text:00000000000001c4 .L0 
     /tmp/ccuEHK5W.s:334    .text:00000000000001cc .L0 
     /tmp/ccuEHK5W.s:335    .text:00000000000001cc .L0 
     /tmp/ccuEHK5W.s:337    .text:00000000000001d0 .L0 
     /tmp/ccuEHK5W.s:339    .text:00000000000001d0 .L0 
     /tmp/ccuEHK5W.s:340    .text:00000000000001d0 .L0 
     /tmp/ccuEHK5W.s:343    .text:00000000000001d8 .L0 
     /tmp/ccuEHK5W.s:344    .text:00000000000001d8 .L0 
     /tmp/ccuEHK5W.s:347    .text:00000000000001e4 .L0 
     /tmp/ccuEHK5W.s:351    .text:00000000000001ec .L0 
     /tmp/ccuEHK5W.s:352    .text:00000000000001ec .L0 
     /tmp/ccuEHK5W.s:355    .text:00000000000001f4 .L0 
     /tmp/ccuEHK5W.s:356    .text:00000000000001f8 .L0 
     /tmp/ccuEHK5W.s:358    .text:00000000000001fc .L0 
     /tmp/ccuEHK5W.s:359    .text:00000000000001fc .L0 
     /tmp/ccuEHK5W.s:361    .text:0000000000000200 .L0 
     /tmp/ccuEHK5W.s:363    .text:0000000000000204 .L0 
     /tmp/ccuEHK5W.s:377    .bss:0000000000000008 _ZN3TCB11timeCounterE
     /tmp/ccuEHK5W.s:373    .bss:0000000000000000 _ZN3TCB7runningE
     /tmp/ccuEHK5W.s:370    .bss:0000000000000000 .LANCHOR0
     /tmp/ccuEHK5W.s:387    .text:0000000000000204 .L0 
     /tmp/ccuEHK5W.s:62     .text:0000000000000054 .L0 
     /tmp/ccuEHK5W.s:85     .text:0000000000000080 .L0 
     /tmp/ccuEHK5W.s:109    .text:00000000000000ac .L0 
     /tmp/ccuEHK5W.s:199    .text:0000000000000110 .L0 
     /tmp/ccuEHK5W.s:229    .text:0000000000000130 .L0 
     /tmp/ccuEHK5W.s:274    .text:0000000000000174 .L0 
     /tmp/ccuEHK5W.s:344    .text:00000000000001d8 .L0 
     /tmp/ccuEHK5W.s:97     .text:000000000000009c .L7
     /tmp/ccuEHK5W.s:101    .text:00000000000000a4 .L8
     /tmp/ccuEHK5W.s:106    .text:00000000000000ac .L11
     /tmp/ccuEHK5W.s:111    .text:00000000000000b4 .L1
     /tmp/ccuEHK5W.s:63     .text:000000000000005c .L2
     /tmp/ccuEHK5W.s:72     .text:000000000000006c .L3
     /tmp/ccuEHK5W.s:223    .text:0000000000000128 .L13
     /tmp/ccuEHK5W.s:254    .text:0000000000000164 .L15
     /tmp/ccuEHK5W.s:315    .text:00000000000001b8 .L18
     /tmp/ccuEHK5W.s:42     .text:000000000000002c .LEHB0
     /tmp/ccuEHK5W.s:10     .text:0000000000000000 .LFB30
     /tmp/ccuEHK5W.s:49     .text:0000000000000040 .LEHE0
     /tmp/ccuEHK5W.s:91     .text:0000000000000090 .LEHB1
     /tmp/ccuEHK5W.s:94     .text:0000000000000098 .LEHE1
     /tmp/ccuEHK5W.s:137    .text:00000000000000d8 .L9
     /tmp/ccuEHK5W.s:151    .text:00000000000000f4 .LEHB2
     /tmp/ccuEHK5W.s:154    .text:00000000000000fc .LEHE2
     /tmp/ccuEHK5W.s:1575   .debug_abbrev:0000000000000000 .Ldebug_abbrev0
     /tmp/ccuEHK5W.s:2918   .debug_str:00000000000006c5 .LASF123
     /tmp/ccuEHK5W.s:2720   .debug_str:00000000000000b3 .LASF124
     /tmp/ccuEHK5W.s:2826   .debug_str:0000000000000409 .LASF125
     /tmp/ccuEHK5W.s:5      .text:0000000000000000 .Ltext0
     /tmp/ccuEHK5W.s:380    .text:0000000000000204 .Letext0
     /tmp/ccuEHK5W.s:2692   .debug_line:0000000000000000 .Ldebug_line0
     /tmp/ccuEHK5W.s:2838   .debug_str:000000000000048c .LASF0
     /tmp/ccuEHK5W.s:2854   .debug_str:00000000000004d3 .LASF1
     /tmp/ccuEHK5W.s:2824   .debug_str:00000000000003fb .LASF2
     /tmp/ccuEHK5W.s:2790   .debug_str:000000000000030d .LASF4
GAS LISTING /tmp/ccuEHK5W.s 			page 14


     /tmp/ccuEHK5W.s:2896   .debug_str:00000000000005ff .LASF3
     /tmp/ccuEHK5W.s:2716   .debug_str:00000000000000a4 .LASF5
     /tmp/ccuEHK5W.s:2746   .debug_str:0000000000000178 .LASF6
     /tmp/ccuEHK5W.s:2860   .debug_str:0000000000000508 .LASF7
     /tmp/ccuEHK5W.s:2836   .debug_str:0000000000000479 .LASF8
     /tmp/ccuEHK5W.s:2932   .debug_str:00000000000007ec .LASF9
     /tmp/ccuEHK5W.s:2780   .debug_str:00000000000002c8 .LASF10
     /tmp/ccuEHK5W.s:2870   .debug_str:000000000000054d .LASF11
     /tmp/ccuEHK5W.s:2920   .debug_str:0000000000000789 .LASF12
     /tmp/ccuEHK5W.s:2806   .debug_str:0000000000000376 .LASF13
     /tmp/ccuEHK5W.s:2698   .debug_str:0000000000000017 .LASF14
     /tmp/ccuEHK5W.s:2728   .debug_str:00000000000000f1 .LASF15
     /tmp/ccuEHK5W.s:2890   .debug_str:00000000000005c2 .LASF16
     /tmp/ccuEHK5W.s:2738   .debug_str:0000000000000131 .LASF17
     /tmp/ccuEHK5W.s:2868   .debug_str:0000000000000543 .LASF19
     /tmp/ccuEHK5W.s:2726   .debug_str:00000000000000d9 .LASF42
     /tmp/ccuEHK5W.s:2786   .debug_str:00000000000002f4 .LASF126
     /tmp/ccuEHK5W.s:2884   .debug_str:00000000000005a0 .LASF18
     /tmp/ccuEHK5W.s:2758   .debug_str:00000000000001e9 .LASF28
     /tmp/ccuEHK5W.s:2808   .debug_str:0000000000000386 .LASF59
     /tmp/ccuEHK5W.s:2702   .debug_str:0000000000000031 .LASF62
     /tmp/ccuEHK5W.s:2936   .debug_str:0000000000000812 .LASF21
     /tmp/ccuEHK5W.s:2912   .debug_str:00000000000006a4 .LASF23
     /tmp/ccuEHK5W.s:2904   .debug_str:0000000000000634 .LASF20
     /tmp/ccuEHK5W.s:2898   .debug_str:0000000000000611 .LASF84
     /tmp/ccuEHK5W.s:2754   .debug_str:00000000000001dc .LASF22
     /tmp/ccuEHK5W.s:2878   .debug_str:000000000000058a .LASF24
     /tmp/ccuEHK5W.s:2802   .debug_str:0000000000000354 .LASF25
     /tmp/ccuEHK5W.s:2946   .debug_str:000000000000085d .LASF26
     /tmp/ccuEHK5W.s:2880   .debug_str:0000000000000596 .LASF79
     /tmp/ccuEHK5W.s:2840   .debug_str:0000000000000499 .LASF106
     /tmp/ccuEHK5W.s:2760   .debug_str:0000000000000201 .LASF108
     /tmp/ccuEHK5W.s:2812   .debug_str:00000000000003a4 .LASF27
     /tmp/ccuEHK5W.s:2724   .debug_str:00000000000000ca .LASF29
     /tmp/ccuEHK5W.s:2862   .debug_str:000000000000051b .LASF34
     /tmp/ccuEHK5W.s:2778   .debug_str:00000000000002b1 .LASF36
     /tmp/ccuEHK5W.s:2800   .debug_str:000000000000034e .LASF30
     /tmp/ccuEHK5W.s:2776   .debug_str:00000000000002a1 .LASF31
     /tmp/ccuEHK5W.s:2718   .debug_str:00000000000000ab .LASF32
     /tmp/ccuEHK5W.s:2782   .debug_str:00000000000002d6 .LASF33
     /tmp/ccuEHK5W.s:2700   .debug_str:0000000000000027 .LASF35
     /tmp/ccuEHK5W.s:2804   .debug_str:0000000000000361 .LASF37
     /tmp/ccuEHK5W.s:2814   .debug_str:00000000000003a9 .LASF38
     /tmp/ccuEHK5W.s:2714   .debug_str:000000000000008b .LASF39
     /tmp/ccuEHK5W.s:2756   .debug_str:00000000000001e1 .LASF40
     /tmp/ccuEHK5W.s:2784   .debug_str:00000000000002e8 .LASF41
     /tmp/ccuEHK5W.s:2950   .debug_str:0000000000000897 .LASF43
     /tmp/ccuEHK5W.s:2794   .debug_str:0000000000000335 .LASF44
     /tmp/ccuEHK5W.s:2842   .debug_str:00000000000004a2 .LASF45
     /tmp/ccuEHK5W.s:2694   .debug_str:0000000000000000 .LASF46
     /tmp/ccuEHK5W.s:2850   .debug_str:00000000000004c3 .LASF47
     /tmp/ccuEHK5W.s:2846   .debug_str:00000000000004b1 .LASF48
     /tmp/ccuEHK5W.s:2796   .debug_str:000000000000033e .LASF49
     /tmp/ccuEHK5W.s:2820   .debug_str:00000000000003d0 .LASF127
     /tmp/ccuEHK5W.s:2928   .debug_str:00000000000007c3 .LASF128
     /tmp/ccuEHK5W.s:2766   .debug_str:0000000000000237 .LASF50
     /tmp/ccuEHK5W.s:2922   .debug_str:0000000000000798 .LASF129
GAS LISTING /tmp/ccuEHK5W.s 			page 15


     /tmp/ccuEHK5W.s:2742   .debug_str:000000000000015a .LASF51
     /tmp/ccuEHK5W.s:2816   .debug_str:00000000000003b6 .LASF52
     /tmp/ccuEHK5W.s:2788   .debug_str:0000000000000308 .LASF53
     /tmp/ccuEHK5W.s:2930   .debug_str:00000000000007d9 .LASF54
     /tmp/ccuEHK5W.s:2916   .debug_str:00000000000006bc .LASF55
     /tmp/ccuEHK5W.s:2752   .debug_str:00000000000001bf .LASF56
     /tmp/ccuEHK5W.s:2828   .debug_str:0000000000000435 .LASF57
     /tmp/ccuEHK5W.s:2706   .debug_str:0000000000000045 .LASF58
     /tmp/ccuEHK5W.s:2882   .debug_str:000000000000059b .LASF60
     /tmp/ccuEHK5W.s:2834   .debug_str:0000000000000469 .LASF61
     /tmp/ccuEHK5W.s:2730   .debug_str:00000000000000fd .LASF63
     /tmp/ccuEHK5W.s:2956   .debug_str:00000000000008e4 .LASF64
     /tmp/ccuEHK5W.s:2942   .debug_str:0000000000000842 .LASF65
     /tmp/ccuEHK5W.s:2844   .debug_str:00000000000004a8 .LASF66
     /tmp/ccuEHK5W.s:2822   .debug_str:00000000000003db .LASF67
     /tmp/ccuEHK5W.s:2900   .debug_str:000000000000061e .LASF68
     /tmp/ccuEHK5W.s:2908   .debug_str:000000000000067a .LASF69
     /tmp/ccuEHK5W.s:2874   .debug_str:0000000000000578 .LASF70
     /tmp/ccuEHK5W.s:2792   .debug_str:0000000000000314 .LASF71
     /tmp/ccuEHK5W.s:2696   .debug_str:0000000000000008 .LASF72
     /tmp/ccuEHK5W.s:2748   .debug_str:000000000000017f .LASF73
     /tmp/ccuEHK5W.s:2938   .debug_str:000000000000081f .LASF74
     /tmp/ccuEHK5W.s:2952   .debug_str:00000000000008ad .LASF75
     /tmp/ccuEHK5W.s:2750   .debug_str:00000000000001a6 .LASF76
     /tmp/ccuEHK5W.s:2914   .debug_str:00000000000006b0 .LASF77
     /tmp/ccuEHK5W.s:2906   .debug_str:0000000000000644 .LASF78
     /tmp/ccuEHK5W.s:2704   .debug_str:0000000000000039 .LASF80
     /tmp/ccuEHK5W.s:2762   .debug_str:0000000000000214 .LASF81
     /tmp/ccuEHK5W.s:2852   .debug_str:00000000000004cd .LASF82
     /tmp/ccuEHK5W.s:2848   .debug_str:00000000000004b9 .LASF83
     /tmp/ccuEHK5W.s:2934   .debug_str:00000000000007fc .LASF85
     /tmp/ccuEHK5W.s:2876   .debug_str:0000000000000581 .LASF86
     /tmp/ccuEHK5W.s:2772   .debug_str:0000000000000269 .LASF87
     /tmp/ccuEHK5W.s:2910   .debug_str:000000000000069b .LASF88
     /tmp/ccuEHK5W.s:2818   .debug_str:00000000000003bb .LASF89
     /tmp/ccuEHK5W.s:2856   .debug_str:00000000000004e6 .LASF90
     /tmp/ccuEHK5W.s:2710   .debug_str:0000000000000069 .LASF91
     /tmp/ccuEHK5W.s:2902   .debug_str:0000000000000628 .LASF92
     /tmp/ccuEHK5W.s:2744   .debug_str:000000000000015f .LASF93
     /tmp/ccuEHK5W.s:2722   .debug_str:00000000000000bf .LASF94
     /tmp/ccuEHK5W.s:2768   .debug_str:0000000000000241 .LASF95
     /tmp/ccuEHK5W.s:2732   .debug_str:000000000000010a .LASF96
     /tmp/ccuEHK5W.s:2866   .debug_str:000000000000052d .LASF97
     /tmp/ccuEHK5W.s:2954   .debug_str:00000000000008d9 .LASF98
     /tmp/ccuEHK5W.s:2894   .debug_str:00000000000005e7 .LASF99
     /tmp/ccuEHK5W.s:2798   .debug_str:0000000000000343 .LASF100
     /tmp/ccuEHK5W.s:2810   .debug_str:000000000000038c .LASF101
     /tmp/ccuEHK5W.s:2708   .debug_str:0000000000000062 .LASF102
     /tmp/ccuEHK5W.s:2832   .debug_str:0000000000000456 .LASF103
     /tmp/ccuEHK5W.s:2864   .debug_str:0000000000000526 .LASF104
     /tmp/ccuEHK5W.s:2740   .debug_str:0000000000000147 .LASF105
     /tmp/ccuEHK5W.s:2940   .debug_str:0000000000000833 .LASF107
     /tmp/ccuEHK5W.s:2872   .debug_str:000000000000055c .LASF109
     /tmp/ccuEHK5W.s:2926   .debug_str:00000000000007b2 .LASF110
     /tmp/ccuEHK5W.s:2764   .debug_str:0000000000000219 .LASF111
     /tmp/ccuEHK5W.s:2886   .debug_str:00000000000005a8 .LASF112
     /tmp/ccuEHK5W.s:2948   .debug_str:000000000000087f .LASF113
GAS LISTING /tmp/ccuEHK5W.s 			page 16


     /tmp/ccuEHK5W.s:2858   .debug_str:00000000000004f2 .LASF114
     /tmp/ccuEHK5W.s:2774   .debug_str:000000000000027e .LASF115
     /tmp/ccuEHK5W.s:2958   .debug_str:00000000000008e9 .LASF116
     /tmp/ccuEHK5W.s:2944   .debug_str:0000000000000847 .LASF117
     /tmp/ccuEHK5W.s:327    .text:00000000000001c0 .LFB33
     /tmp/ccuEHK5W.s:364    .text:0000000000000204 .LFE33
     /tmp/ccuEHK5W.s:341    .text:00000000000001d8 .LVL30
     /tmp/ccuEHK5W.s:353    .text:00000000000001f4 .LVL32
     /tmp/ccuEHK5W.s:269    .text:0000000000000174 .LFB32
     /tmp/ccuEHK5W.s:321    .text:00000000000001c0 .LFE32
     /tmp/ccuEHK5W.s:276    .text:000000000000017c .LBB29
     /tmp/ccuEHK5W.s:283    .text:0000000000000180 .LBE29
     /tmp/ccuEHK5W.s:2462   .debug_loc:0000000000000000 .LLST12
     /tmp/ccuEHK5W.s:302    .text:00000000000001a4 .LVL29
     /tmp/ccuEHK5W.s:184    .text:00000000000000fc .LFB31
     /tmp/ccuEHK5W.s:263    .text:0000000000000174 .LFE31
     /tmp/ccuEHK5W.s:2469   .debug_loc:0000000000000023 .LLST9
     /tmp/ccuEHK5W.s:202    .text:0000000000000118 .LBB25
     /tmp/ccuEHK5W.s:209    .text:000000000000011c .LBE25
     /tmp/ccuEHK5W.s:2480   .debug_loc:0000000000000059 .LLST10
     /tmp/ccuEHK5W.s:213    .text:0000000000000120 .LBB27
     /tmp/ccuEHK5W.s:220    .text:0000000000000124 .LBE27
     /tmp/ccuEHK5W.s:2487   .debug_loc:000000000000007c .LLST11
     /tmp/ccuEHK5W.s:227    .text:0000000000000130 .LVL22
     /tmp/ccuEHK5W.s:239    .text:0000000000000150 .LVL23
     /tmp/ccuEHK5W.s:260    .text:0000000000000170 .LVL26
     /tmp/ccuEHK5W.s:158    .text:00000000000000fc .LFE30
     /tmp/ccuEHK5W.s:2494   .debug_loc:000000000000009f .LLST0
     /tmp/ccuEHK5W.s:2516   .debug_loc:00000000000000fe .LLST1
     /tmp/ccuEHK5W.s:2538   .debug_loc:000000000000015d .LLST2
     /tmp/ccuEHK5W.s:38     .text:000000000000002c .LBB19
     /tmp/ccuEHK5W.s:53     .text:0000000000000044 .LBE19
     /tmp/ccuEHK5W.s:2577   .debug_loc:00000000000001fa .LLST3
     /tmp/ccuEHK5W.s:45     .text:0000000000000034 .LVL2
     /tmp/ccuEHK5W.s:48     .text:0000000000000040 .LVL3
     /tmp/ccuEHK5W.s:54     .text:0000000000000044 .LBB21
     /tmp/ccuEHK5W.s:113    .text:00000000000000b4 .LBE21
     /tmp/ccuEHK5W.s:2586   .debug_loc:000000000000021f .LLST4
     /tmp/ccuEHK5W.s:2621   .debug_loc:00000000000002a9 .LLST5
     /tmp/ccuEHK5W.s:2639   .debug_loc:00000000000002f5 .LLST6
     /tmp/ccuEHK5W.s:2657   .debug_loc:0000000000000341 .LLST7
     /tmp/ccuEHK5W.s:93     .text:0000000000000098 .LVL6
     /tmp/ccuEHK5W.s:141    .text:00000000000000dc .LBB23
     /tmp/ccuEHK5W.s:156    .text:00000000000000fc .LBE23
     /tmp/ccuEHK5W.s:2672   .debug_loc:000000000000038a .LLST8
     /tmp/ccuEHK5W.s:146    .text:00000000000000e4 .LVL15
     /tmp/ccuEHK5W.s:149    .text:00000000000000f0 .LVL16
     /tmp/ccuEHK5W.s:153    .text:00000000000000fc .LVL17
     /tmp/ccuEHK5W.s:2736   .debug_str:000000000000012c .LASF119
     /tmp/ccuEHK5W.s:2712   .debug_str:0000000000000082 .LASF118
     /tmp/ccuEHK5W.s:2830   .debug_str:0000000000000440 .LASF130
     /tmp/ccuEHK5W.s:2924   .debug_str:000000000000079d .LASF120
     /tmp/ccuEHK5W.s:2770   .debug_str:0000000000000259 .LASF122
     /tmp/ccuEHK5W.s:2888   .debug_str:00000000000005b3 .LASF121
     /tmp/ccuEHK5W.s:2892   .debug_str:00000000000005d8 .LASF131
     /tmp/ccuEHK5W.s:2734   .debug_str:0000000000000114 .LASF132
     /tmp/ccuEHK5W.s:275    .text:000000000000017c .LVL27
GAS LISTING /tmp/ccuEHK5W.s 			page 17


     /tmp/ccuEHK5W.s:281    .text:0000000000000180 .LVL28
     /tmp/ccuEHK5W.s:200    .text:0000000000000118 .LVL18
     /tmp/ccuEHK5W.s:249    .text:000000000000015c .LVL24
     /tmp/ccuEHK5W.s:253    .text:0000000000000164 .LVL25
     /tmp/ccuEHK5W.s:207    .text:000000000000011c .LVL19
     /tmp/ccuEHK5W.s:212    .text:0000000000000120 .LVL20
     /tmp/ccuEHK5W.s:218    .text:0000000000000124 .LVL21
     /tmp/ccuEHK5W.s:16     .text:0000000000000000 .LVL0
     /tmp/ccuEHK5W.s:129    .text:00000000000000cc .LVL11
     /tmp/ccuEHK5W.s:136    .text:00000000000000d8 .LVL13
     /tmp/ccuEHK5W.s:132    .text:00000000000000d0 .LVL12
     /tmp/ccuEHK5W.s:71     .text:000000000000006c .LVL5
     /tmp/ccuEHK5W.s:96     .text:000000000000009c .LVL7
     /tmp/ccuEHK5W.s:104    .text:00000000000000a8 .LVL8
     /tmp/ccuEHK5W.s:110    .text:00000000000000b4 .LVL9
     /tmp/ccuEHK5W.s:37     .text:000000000000002c .LVL1
     /tmp/ccuEHK5W.s:51     .text:0000000000000044 .LVL4
     /tmp/ccuEHK5W.s:124    .text:00000000000000c4 .LVL10
     /tmp/ccuEHK5W.s:140    .text:00000000000000dc .LVL14
     /tmp/ccuEHK5W.s:388    .debug_info:0000000000000000 .Ldebug_info0
     /tmp/ccuEHK5W.s:161    .gcc_except_table:0000000000000000 .LLSDA30

UNDEFINED SYMBOLS
_ZN15MemoryAllocator8InstanceEv
_ZN15MemoryAllocator9mem_allocEm
_ZN9Scheduler3putEP3TCB
_ZN15MemoryAllocator8mem_freeEPv
_Unwind_Resume
__gxx_personality_v0
_ZN9Scheduler3getEv
context_switch
_Z15thread_dispatchv
_ZN5Riscv10popSppSpieEv
