GAS LISTING /tmp/ccbaUYCt.s 			page 1


   1              		.file	"TCB.cpp"
   2              		.option pic
   3              		.option norelax
   4              		.text
   5              	.Ltext0:
   6              		.align	2
   7              		.globl	_ZN3TCB14IdleThreadBodyEPv
   9              	_ZN3TCB14IdleThreadBodyEPv:
  10              	.LFB41:
  11              		.file 1 "src/TCB.cpp"
   1:src/TCB.cpp   **** #include "../h/TCB.hpp"
   2:src/TCB.cpp   **** #include "../h/Scheduler.hpp"
   3:src/TCB.cpp   **** #include  "../h/print.hpp"
   4:src/TCB.cpp   **** #include "../h/syscall_c.hpp"
   5:src/TCB.cpp   **** #include "../h/Riscv.hpp"
   6:src/TCB.cpp   **** #include "../h/SList.hpp"
   7:src/TCB.cpp   **** 
   8:src/TCB.cpp   **** extern "C" void context_switch(TCB::Context* oldContext, TCB::Context* newContext);
   9:src/TCB.cpp   **** 
  10:src/TCB.cpp   **** TCB* TCB::running=nullptr;
  11:src/TCB.cpp   **** TCB* TCB::outputThread=nullptr;
  12:src/TCB.cpp   **** TCB* TCB::idleThread=nullptr;
  13:src/TCB.cpp   **** time_t TCB::timeCounter=0;
  14:src/TCB.cpp   **** 
  15:src/TCB.cpp   **** TCB* TCB::createThread(Body body, void *arg, uint64 *stack) {
  16:src/TCB.cpp   ****     return new TCB(body, arg, stack);
  17:src/TCB.cpp   **** }
  18:src/TCB.cpp   **** 
  19:src/TCB.cpp   **** void TCB::dispatch() {
  20:src/TCB.cpp   ****     //pprintString("TCB::dispatch()\n");
  21:src/TCB.cpp   ****     TCB *old=running;
  22:src/TCB.cpp   ****     if (!old->isFinished() && !old->isBlocked() && !old->idle) {
  23:src/TCB.cpp   ****         Scheduler::put(old);
  24:src/TCB.cpp   ****     }
  25:src/TCB.cpp   ****     running=Scheduler::get();
  26:src/TCB.cpp   ****     if (!running) {
  27:src/TCB.cpp   ****         running=idleThread;
  28:src/TCB.cpp   ****     }
  29:src/TCB.cpp   ****     timeCounter=0;
  30:src/TCB.cpp   ****     Riscv::restoreSPP();
  31:src/TCB.cpp   ****     context_switch(&old->context, &running->context);
  32:src/TCB.cpp   **** }
  33:src/TCB.cpp   **** 
  34:src/TCB.cpp   **** 
  35:src/TCB.cpp   **** 
  36:src/TCB.cpp   **** int TCB::exit() {
  37:src/TCB.cpp   ****     if (running->isFinished()) {
  38:src/TCB.cpp   ****         return -1;
  39:src/TCB.cpp   ****     }
  40:src/TCB.cpp   ****     running->finished=true;
  41:src/TCB.cpp   ****     thread_dispatch();
  42:src/TCB.cpp   ****     return 0;
  43:src/TCB.cpp   **** }
  44:src/TCB.cpp   **** 
  45:src/TCB.cpp   **** void TCB::TCBWrapper() {
  46:src/TCB.cpp   ****     Riscv::restoreSPP();
  47:src/TCB.cpp   ****     Riscv::popSppSpie();
GAS LISTING /tmp/ccbaUYCt.s 			page 2


  48:src/TCB.cpp   ****     running->body(running->arg);
  49:src/TCB.cpp   ****     exit();
  50:src/TCB.cpp   **** }
  51:src/TCB.cpp   **** 
  52:src/TCB.cpp   **** int TCB::sleep(time_t time) {
  53:src/TCB.cpp   ****     if (time <= 0) {
  54:src/TCB.cpp   ****         return -1;
  55:src/TCB.cpp   ****     }
  56:src/TCB.cpp   ****     running->block();
  57:src/TCB.cpp   ****     SList::add(running, time);
  58:src/TCB.cpp   ****     dispatch();
  59:src/TCB.cpp   ****     return 0;
  60:src/TCB.cpp   **** }
  61:src/TCB.cpp   **** 
  62:src/TCB.cpp   **** void TCB::OutputThreadBody(void *arg) {
  63:src/TCB.cpp   ****     while(true)
  64:src/TCB.cpp   ****     {
  65:src/TCB.cpp   ****         volatile char status = *((char*)CONSOLE_STATUS);
  66:src/TCB.cpp   ****         while(status & CONSOLE_TX_STATUS_BIT)
  67:src/TCB.cpp   ****         {
  68:src/TCB.cpp   ****             char c = Riscv::OUTbuff->get();
  69:src/TCB.cpp   ****             *((char*)CONSOLE_TX_DATA) = c;
  70:src/TCB.cpp   ****             status = *((char*)CONSOLE_STATUS);
  71:src/TCB.cpp   ****         }
  72:src/TCB.cpp   ****     }
  73:src/TCB.cpp   **** }
  74:src/TCB.cpp   **** 
  75:src/TCB.cpp   **** 
  76:src/TCB.cpp   **** 
  77:src/TCB.cpp   **** void TCB::IdleThreadBody(void *arg) {
  12              		.loc 1 77 37
  13              		.cfi_startproc
  14              	.LVL0:
  15 0000 130101FF 		addi	sp,sp,-16
  16              		.cfi_def_cfa_offset 16
  17 0004 23348100 		sd	s0,8(sp)
  18              		.cfi_offset 8, -8
  19 0008 13040101 		addi	s0,sp,16
  20              		.cfi_def_cfa 8, 0
  21              	.L2:
  78:src/TCB.cpp   ****     while(1) {  }
  22              		.loc 1 78 5 discriminator 1
  23              		.loc 1 78 5 discriminator 1
  24 000c 6F000000 		j	.L2
  25              		.cfi_endproc
  26              	.LFE41:
  28              		.align	2
  29              		.globl	_ZN3TCB16OutputThreadBodyEPv
  31              	_ZN3TCB16OutputThreadBodyEPv:
  32              	.LFB40:
  62:src/TCB.cpp   ****     while(true)
  33              		.loc 1 62 39
  34              		.cfi_startproc
  35              	.LVL1:
  36 0010 130101FD 		addi	sp,sp,-48
  37              		.cfi_def_cfa_offset 48
  38 0014 23341102 		sd	ra,40(sp)
GAS LISTING /tmp/ccbaUYCt.s 			page 3


  39 0018 23308102 		sd	s0,32(sp)
  40 001c 233C9100 		sd	s1,24(sp)
  41              		.cfi_offset 1, -8
  42              		.cfi_offset 8, -16
  43              		.cfi_offset 9, -24
  44 0020 13040103 		addi	s0,sp,48
  45              		.cfi_def_cfa 8, 0
  46              	.LVL2:
  47              	.L5:
  63:src/TCB.cpp   ****     {
  48              		.loc 1 63 5
  49              	.LBB28:
  65:src/TCB.cpp   ****         while(status & CONSOLE_TX_STATUS_BIT)
  50              		.loc 1 65 9
  65:src/TCB.cpp   ****         while(status & CONSOLE_TX_STATUS_BIT)
  51              		.loc 1 65 32 is_stmt 0
  52 0024 97070000 		la	a5,CONSOLE_STATUS
  52      83B70700 
  53 002c 83B40700 		ld	s1,0(a5)
  54 0030 83C70400 		lbu	a5,0(s1)
  65:src/TCB.cpp   ****         while(status & CONSOLE_TX_STATUS_BIT)
  55              		.loc 1 65 23
  56 0034 A30FF4FC 		sb	a5,-33(s0)
  57              	.L6:
  66:src/TCB.cpp   ****         {
  58              		.loc 1 66 9 is_stmt 1
  66:src/TCB.cpp   ****         {
  59              		.loc 1 66 24
  66:src/TCB.cpp   ****         {
  60              		.loc 1 66 15 is_stmt 0
  61 0038 8347F4FD 		lbu	a5,-33(s0)
  62 003c 93F7F70F 		andi	a5,a5,0xff
  66:src/TCB.cpp   ****         {
  63              		.loc 1 66 24
  64 0040 93F70702 		andi	a5,a5,32
  65 0044 E38007FE 		beqz	a5,.L5
  66              	.LBB29:
  68:src/TCB.cpp   ****             *((char*)CONSOLE_TX_DATA) = c;
  67              		.loc 1 68 13 is_stmt 1
  68:src/TCB.cpp   ****             *((char*)CONSOLE_TX_DATA) = c;
  68              		.loc 1 68 41 is_stmt 0
  69 0048 97070000 		la	a5,_ZN5Riscv7OUTbuffE
  69      83B70700 
  70 0050 03B50700 		ld	a0,0(a5)
  71 0054 97000000 		call	_ZN5BBuff3getEv@plt
  71      E7800000 
  72              	.LVL3:
  69:src/TCB.cpp   ****             status = *((char*)CONSOLE_STATUS);
  73              		.loc 1 69 13 is_stmt 1
  74 005c 97070000 		la	a5,CONSOLE_TX_DATA
  74      83B70700 
  75 0064 83B70700 		ld	a5,0(a5)
  69:src/TCB.cpp   ****             status = *((char*)CONSOLE_STATUS);
  76              		.loc 1 69 39 is_stmt 0
  77 0068 2380A700 		sb	a0,0(a5)
  70:src/TCB.cpp   ****         }
  78              		.loc 1 70 13 is_stmt 1
GAS LISTING /tmp/ccbaUYCt.s 			page 4


  70:src/TCB.cpp   ****         }
  79              		.loc 1 70 22 is_stmt 0
  80 006c 83C70400 		lbu	a5,0(s1)
  70:src/TCB.cpp   ****         }
  81              		.loc 1 70 20
  82 0070 A30FF4FC 		sb	a5,-33(s0)
  83              	.LBE29:
  66:src/TCB.cpp   ****         {
  84              		.loc 1 66 9
  85 0074 6FF05FFC 		j	.L6
  86              	.LBE28:
  87              		.cfi_endproc
  88              	.LFE40:
  90              		.align	2
  91              		.globl	_ZN3TCB12createThreadEPFvPvES0_Pm
  93              	_ZN3TCB12createThreadEPFvPvES0_Pm:
  94              	.LFB35:
  15:src/TCB.cpp   ****     return new TCB(body, arg, stack);
  95              		.loc 1 15 61 is_stmt 1
  96              		.cfi_startproc
  97              		.cfi_personality 0x9b,DW.ref.__gxx_personality_v0
  98              		.cfi_lsda 0x1b,.LLSDA35
  99              	.LVL4:
 100 0078 130101FD 		addi	sp,sp,-48
 101              		.cfi_def_cfa_offset 48
 102 007c 23341102 		sd	ra,40(sp)
 103 0080 23308102 		sd	s0,32(sp)
 104 0084 233C9100 		sd	s1,24(sp)
 105 0088 23382101 		sd	s2,16(sp)
 106 008c 23343101 		sd	s3,8(sp)
 107 0090 23304101 		sd	s4,0(sp)
 108              		.cfi_offset 1, -8
 109              		.cfi_offset 8, -16
 110              		.cfi_offset 9, -24
 111              		.cfi_offset 18, -32
 112              		.cfi_offset 19, -40
 113              		.cfi_offset 20, -48
 114 0094 13040103 		addi	s0,sp,48
 115              		.cfi_def_cfa 8, 0
 116 0098 93090500 		mv	s3,a0
 117 009c 138A0500 		mv	s4,a1
 118 00a0 13090600 		mv	s2,a2
  16:src/TCB.cpp   **** }
 119              		.loc 1 16 5
 120              	.LVL5:
 121              	.LBB37:
 122              	.LBB38:
 123              		.file 2 "src/../h/TCB.hpp"
   1:src/../h/TCB.hpp **** //
   2:src/../h/TCB.hpp **** // Created by os on 9/23/25.
   3:src/../h/TCB.hpp **** //
   4:src/../h/TCB.hpp **** 
   5:src/../h/TCB.hpp **** #ifndef PROJECT_BASE_V1_1_COPY_TCB_HPP
   6:src/../h/TCB.hpp **** #define PROJECT_BASE_V1_1_COPY_TCB_HPP
   7:src/../h/TCB.hpp **** #include "../lib/hw.h"
   8:src/../h/TCB.hpp **** #include "../h/Scheduler.hpp"
   9:src/../h/TCB.hpp **** #include "../h/MemoryAllocator.hpp"
GAS LISTING /tmp/ccbaUYCt.s 			page 5


  10:src/../h/TCB.hpp **** 
  11:src/../h/TCB.hpp **** class TCB
  12:src/../h/TCB.hpp **** {
  13:src/../h/TCB.hpp **** public:
  14:src/../h/TCB.hpp ****     void* operator new(size_t size)
  15:src/../h/TCB.hpp **** {
  16:src/../h/TCB.hpp ****     return MemoryAllocator::Instance()->mem_alloc(size);
 124              		.loc 2 16 5
 125              	.LEHB0:
 126              		.loc 2 16 50 is_stmt 0
 127 00a4 97000000 		call	_ZN15MemoryAllocator8InstanceEv@plt
 127      E7800000 
 128              	.LVL6:
 129 00ac 93050004 		li	a1,64
 130 00b0 97000000 		call	_ZN15MemoryAllocator9mem_allocEm@plt
 130      E7800000 
 131              	.LVL7:
 132              	.LEHE0:
 133 00b8 93040500 		mv	s1,a0
 134              	.LVL8:
 135              	.LBE38:
 136              	.LBE37:
 137              	.LBB39:
 138              	.LBB40:
  17:src/../h/TCB.hpp **** }
  18:src/../h/TCB.hpp **** 
  19:src/../h/TCB.hpp ****     void operator delete(void* ptr)
  20:src/../h/TCB.hpp ****     {
  21:src/../h/TCB.hpp ****         return MemoryAllocator::Instance()->mem_free(ptr);
  22:src/../h/TCB.hpp ****     }
  23:src/../h/TCB.hpp **** 
  24:src/../h/TCB.hpp **** 
  25:src/../h/TCB.hpp ****     using Body=void(*)(void*);
  26:src/../h/TCB.hpp **** 
  27:src/../h/TCB.hpp ****     ~TCB()
  28:src/../h/TCB.hpp ****     {
  29:src/../h/TCB.hpp ****         delete stack;
  30:src/../h/TCB.hpp ****     }
  31:src/../h/TCB.hpp **** 
  32:src/../h/TCB.hpp ****     static TCB* createThread(Body body, void* arg, uint64* stack);
  33:src/../h/TCB.hpp **** 
  34:src/../h/TCB.hpp ****     static void dispatch();
  35:src/../h/TCB.hpp ****     static int exit();
  36:src/../h/TCB.hpp ****     static void InitOutputThread();
  37:src/../h/TCB.hpp **** 
  38:src/../h/TCB.hpp **** 
  39:src/../h/TCB.hpp ****     bool isFinished() const { return finished;}
  40:src/../h/TCB.hpp ****     void block() { this->blocked = true; }
  41:src/../h/TCB.hpp ****     void unblock() { this->blocked = false; }
  42:src/../h/TCB.hpp ****     bool isBlocked() const { return blocked; }
  43:src/../h/TCB.hpp ****     time_t getTimeSlice() const { return timeSlice; }
  44:src/../h/TCB.hpp **** 
  45:src/../h/TCB.hpp **** 
  46:src/../h/TCB.hpp ****     static TCB* running;
  47:src/../h/TCB.hpp ****     static TCB* outputThread;
  48:src/../h/TCB.hpp ****     static TCB* idleThread;
  49:src/../h/TCB.hpp ****     bool idle;
GAS LISTING /tmp/ccbaUYCt.s 			page 6


  50:src/../h/TCB.hpp ****     bool sys;
  51:src/../h/TCB.hpp **** 
  52:src/../h/TCB.hpp ****     static time_t timeCounter;
  53:src/../h/TCB.hpp **** 
  54:src/../h/TCB.hpp ****     struct Context
  55:src/../h/TCB.hpp ****     {
  56:src/../h/TCB.hpp ****         uint64 ra;
  57:src/../h/TCB.hpp ****         uint64 sp;
  58:src/../h/TCB.hpp ****     };
  59:src/../h/TCB.hpp **** protected:
  60:src/../h/TCB.hpp ****     static int sleep(time_t time);
  61:src/../h/TCB.hpp **** 
  62:src/../h/TCB.hpp ****     friend class Riscv;
  63:src/../h/TCB.hpp **** 
  64:src/../h/TCB.hpp **** private:
  65:src/../h/TCB.hpp ****     TCB(Body body, void* arg, uint64* stackMem)
  66:src/../h/TCB.hpp ****         : finished(false),
  67:src/../h/TCB.hpp ****           stack(stackMem),
  68:src/../h/TCB.hpp ****           arg(arg),
  69:src/../h/TCB.hpp ****           context({
  70:src/../h/TCB.hpp ****               body != nullptr ? (uint64)&TCBWrapper : 0,
  71:src/../h/TCB.hpp ****               body != nullptr ? (uint64)((char*)stackMem + DEFAULT_STACK_SIZE) : 0
  72:src/../h/TCB.hpp ****           }),
  73:src/../h/TCB.hpp ****           body(body),
  74:src/../h/TCB.hpp ****             blocked(false),
  75:src/../h/TCB.hpp ****     timeSlice(DEFAULT_TIME_SLICE)
 139              		.loc 2 75 33
 140 00bc 23010500 		sb	zero,2(a0)
 141 00c0 23342501 		sd	s2,8(a0)
 142 00c4 23384501 		sd	s4,16(a0)
  70:src/../h/TCB.hpp ****               body != nullptr ? (uint64)((char*)stackMem + DEFAULT_STACK_SIZE) : 0
 143              		.loc 2 70 31
 144 00c8 638A0904 		beqz	s3,.L14
 145 00cc 97070000 		lla	a5,_ZN3TCB10TCBWrapperEv
 145      93870700 
 146              	.L9:
 147              		.loc 2 75 33
 148 00d4 23BCF400 		sd	a5,24(s1)
  71:src/../h/TCB.hpp ****           }),
 149              		.loc 2 71 31
 150 00d8 63860904 		beqz	s3,.L15
  71:src/../h/TCB.hpp ****           }),
 151              		.loc 2 71 58
 152 00dc 37160000 		li	a2,4096
 153 00e0 3309C900 		add	s2,s2,a2
 154              	.LVL9:
 155              	.L10:
 156              		.loc 2 75 33
 157 00e4 23B02403 		sd	s2,32(s1)
 158 00e8 23B43403 		sd	s3,40(s1)
 159 00ec 23880402 		sb	zero,48(s1)
 160 00f0 93072000 		li	a5,2
 161 00f4 23BCF402 		sd	a5,56(s1)
  76:src/../h/TCB.hpp ****     {
  77:src/../h/TCB.hpp ****         idle=false;
 162              		.loc 2 77 9 is_stmt 1
 163              		.loc 2 77 13 is_stmt 0
GAS LISTING /tmp/ccbaUYCt.s 			page 7


 164 00f8 23800400 		sb	zero,0(s1)
  78:src/../h/TCB.hpp ****         sys=false;
 165              		.loc 2 78 9 is_stmt 1
 166              		.loc 2 78 12 is_stmt 0
 167 00fc A3800400 		sb	zero,1(s1)
  79:src/../h/TCB.hpp ****         timeSlice = DEFAULT_TIME_SLICE;
 168              		.loc 2 79 9 is_stmt 1
  80:src/../h/TCB.hpp ****         if (running == nullptr) {
 169              		.loc 2 80 9
 170              		.loc 2 80 21 is_stmt 0
 171 0100 97070000 		ld	a5,.LANCHOR0
 171      83B70700 
 172              		.loc 2 80 9
 173 0108 63820702 		beqz	a5,.L18
  81:src/../h/TCB.hpp ****             running = this;
  82:src/../h/TCB.hpp ****         } else {
  83:src/../h/TCB.hpp ****             Scheduler::put(this);
 174              		.loc 2 83 13 is_stmt 1
 175              		.loc 2 83 27 is_stmt 0
 176 010c 13850400 		mv	a0,s1
 177              	.LEHB1:
 178 0110 97000000 		call	_ZN9Scheduler3putEP3TCB@plt
 178      E7800000 
 179              	.LVL10:
 180              	.LEHE1:
 181 0118 6F00C001 		j	.L8
 182              	.LVL11:
 183              	.L14:
  70:src/../h/TCB.hpp ****               body != nullptr ? (uint64)((char*)stackMem + DEFAULT_STACK_SIZE) : 0
 184              		.loc 2 70 31
 185 011c 93070000 		li	a5,0
 186 0120 6FF05FFB 		j	.L9
 187              	.L15:
  71:src/../h/TCB.hpp ****           }),
 188              		.loc 2 71 31
 189 0124 13090000 		li	s2,0
 190              	.LVL12:
 191 0128 6FF0DFFB 		j	.L10
 192              	.L18:
  81:src/../h/TCB.hpp ****             running = this;
 193              		.loc 2 81 13 is_stmt 1
  81:src/../h/TCB.hpp ****             running = this;
 194              		.loc 2 81 21 is_stmt 0
 195 012c 97070000 		sd	s1,.LANCHOR0,a5
 195      23B09700 
 196              	.LVL13:
 197              	.L8:
 198              	.LBE40:
 199              	.LBE39:
  17:src/TCB.cpp   **** 
 200              		.loc 1 17 1
 201 0134 13850400 		mv	a0,s1
 202 0138 83308102 		ld	ra,40(sp)
 203              		.cfi_remember_state
 204              		.cfi_restore 1
 205 013c 03340102 		ld	s0,32(sp)
 206              		.cfi_restore 8
GAS LISTING /tmp/ccbaUYCt.s 			page 8


 207              		.cfi_def_cfa 2, 48
 208 0140 83348101 		ld	s1,24(sp)
 209              		.cfi_restore 9
 210              	.LVL14:
 211 0144 03390101 		ld	s2,16(sp)
 212              		.cfi_restore 18
 213 0148 83398100 		ld	s3,8(sp)
 214              		.cfi_restore 19
 215              	.LVL15:
 216 014c 033A0100 		ld	s4,0(sp)
 217              		.cfi_restore 20
 218              	.LVL16:
 219 0150 13010103 		addi	sp,sp,48
 220              		.cfi_def_cfa_offset 0
 221 0154 67800000 		jr	ra
 222              	.LVL17:
 223              	.L16:
 224              		.cfi_restore_state
 225 0158 13090500 		mv	s2,a0
 226              	.LVL18:
 227              	.LBB41:
 228              	.LBB42:
  21:src/../h/TCB.hpp ****     }
 229              		.loc 2 21 9 is_stmt 1
  21:src/../h/TCB.hpp ****     }
 230              		.loc 2 21 53 is_stmt 0
 231 015c 97000000 		call	_ZN15MemoryAllocator8InstanceEv@plt
 231      E7800000 
 232              	.LVL19:
 233 0164 93850400 		mv	a1,s1
 234 0168 97000000 		call	_ZN15MemoryAllocator8mem_freeEPv@plt
 234      E7800000 
 235              	.LVL20:
 236 0170 13050900 		mv	a0,s2
 237              	.LEHB2:
 238 0174 97000000 		call	_Unwind_Resume@plt
 238      E7800000 
 239              	.LVL21:
 240              	.LEHE2:
 241              	.LBE42:
 242              	.LBE41:
 243              		.cfi_endproc
 244              	.LFE35:
 245              		.globl	__gxx_personality_v0
 246              		.section	.gcc_except_table,"a",@progbits
 247              	.LLSDA35:
 248 0000 FF       		.byte	0xff
 249 0001 FF       		.byte	0xff
 250 0002 03       		.byte	0x3
 251 0003 27       		.byte	0x27
 252 0004 00000000 		.4byte	.LEHB0-.LFB35
 253 0008 00000000 		.4byte	.LEHE0-.LEHB0
 254 000c 00000000 		.4byte	0
 255 0010 00       		.byte	0
 256 0011 00000000 		.4byte	.LEHB1-.LFB35
 257 0015 00000000 		.4byte	.LEHE1-.LEHB1
 258 0019 00000000 		.4byte	.L16-.LFB35
GAS LISTING /tmp/ccbaUYCt.s 			page 9


 259 001d 00       		.byte	0
 260 001e 00000000 		.4byte	.LEHB2-.LFB35
 261 0022 00000000 		.4byte	.LEHE2-.LEHB2
 262 0026 00000000 		.4byte	0
 263 002a 00       		.byte	0
 264              		.text
 266              		.align	2
 267              		.globl	_ZN3TCB8dispatchEv
 269              	_ZN3TCB8dispatchEv:
 270              	.LFB36:
  19:src/TCB.cpp   ****     //pprintString("TCB::dispatch()\n");
 271              		.loc 1 19 22 is_stmt 1
 272              		.cfi_startproc
 273 017c 130101FE 		addi	sp,sp,-32
 274              		.cfi_def_cfa_offset 32
 275 0180 233C1100 		sd	ra,24(sp)
 276 0184 23388100 		sd	s0,16(sp)
 277 0188 23349100 		sd	s1,8(sp)
 278 018c 23302101 		sd	s2,0(sp)
 279              		.cfi_offset 1, -8
 280              		.cfi_offset 8, -16
 281              		.cfi_offset 9, -24
 282              		.cfi_offset 18, -32
 283 0190 13040102 		addi	s0,sp,32
 284              		.cfi_def_cfa 8, 0
  21:src/TCB.cpp   ****     if (!old->isFinished() && !old->isBlocked() && !old->idle) {
 285              		.loc 1 21 5
  21:src/TCB.cpp   ****     if (!old->isFinished() && !old->isBlocked() && !old->idle) {
 286              		.loc 1 21 10 is_stmt 0
 287 0194 97040000 		ld	s1,.LANCHOR0
 287      83B40400 
 288              	.LVL22:
  22:src/TCB.cpp   ****         Scheduler::put(old);
 289              		.loc 1 22 5 is_stmt 1
 290              	.LBB43:
 291              	.LBB44:
  39:src/../h/TCB.hpp ****     void block() { this->blocked = true; }
 292              		.loc 2 39 31
  39:src/../h/TCB.hpp ****     void block() { this->blocked = true; }
 293              		.loc 2 39 38 is_stmt 0
 294 019c 83C72400 		lbu	a5,2(s1)
 295              	.LVL23:
 296              	.LBE44:
 297              	.LBE43:
  22:src/TCB.cpp   ****         Scheduler::put(old);
 298              		.loc 1 22 49
 299 01a0 639A0700 		bnez	a5,.L20
 300              	.LVL24:
 301              	.LBB45:
 302              	.LBB46:
  42:src/../h/TCB.hpp ****     time_t getTimeSlice() const { return timeSlice; }
 303              		.loc 2 42 30 is_stmt 1
  42:src/../h/TCB.hpp ****     time_t getTimeSlice() const { return timeSlice; }
 304              		.loc 2 42 37 is_stmt 0
 305 01a4 83C70403 		lbu	a5,48(s1)
 306              	.LVL25:
 307              	.LBE46:
GAS LISTING /tmp/ccbaUYCt.s 			page 10


 308              	.LBE45:
  22:src/TCB.cpp   ****         Scheduler::put(old);
 309              		.loc 1 22 28
 310 01a8 63960700 		bnez	a5,.L20
  22:src/TCB.cpp   ****         Scheduler::put(old);
 311              		.loc 1 22 58 discriminator 3
 312 01ac 83C70400 		lbu	a5,0(s1)
  22:src/TCB.cpp   ****         Scheduler::put(old);
 313              		.loc 1 22 49 discriminator 3
 314 01b0 638C0704 		beqz	a5,.L23
 315              	.L20:
  25:src/TCB.cpp   ****     if (!running) {
 316              		.loc 1 25 5 is_stmt 1
  25:src/TCB.cpp   ****     if (!running) {
 317              		.loc 1 25 27 is_stmt 0
 318 01b4 97000000 		call	_ZN9Scheduler3getEv@plt
 318      E7800000 
 319              	.LVL26:
  25:src/TCB.cpp   ****     if (!running) {
 320              		.loc 1 25 12
 321 01bc 97070000 		sd	a0,.LANCHOR0,a5
 321      23B0A700 
  26:src/TCB.cpp   ****         running=idleThread;
 322              		.loc 1 26 5 is_stmt 1
 323 01c4 630A0504 		beqz	a0,.L24
 324              	.L21:
  29:src/TCB.cpp   ****     Riscv::restoreSPP();
 325              		.loc 1 29 5
  29:src/TCB.cpp   ****     Riscv::restoreSPP();
 326              		.loc 1 29 16 is_stmt 0
 327 01c8 17090000 		lla	s2,.LANCHOR0
 327      13090900 
 328 01d0 23380900 		sd	zero,16(s2)
  30:src/TCB.cpp   ****     context_switch(&old->context, &running->context);
 329              		.loc 1 30 5 is_stmt 1
  30:src/TCB.cpp   ****     context_switch(&old->context, &running->context);
 330              		.loc 1 30 22 is_stmt 0
 331 01d4 97000000 		call	_ZN5Riscv10restoreSPPEv@plt
 331      E7800000 
 332              	.LVL27:
  31:src/TCB.cpp   **** }
 333              		.loc 1 31 5 is_stmt 1
  31:src/TCB.cpp   **** }
 334              		.loc 1 31 45 is_stmt 0
 335 01dc 83350900 		ld	a1,0(s2)
  31:src/TCB.cpp   **** }
 336              		.loc 1 31 19
 337 01e0 93858501 		addi	a1,a1,24
 338 01e4 13858401 		addi	a0,s1,24
 339 01e8 97000000 		call	context_switch@plt
 339      E7800000 
 340              	.LVL28:
  32:src/TCB.cpp   **** 
 341              		.loc 1 32 1
 342 01f0 83308101 		ld	ra,24(sp)
 343              		.cfi_remember_state
 344              		.cfi_restore 1
GAS LISTING /tmp/ccbaUYCt.s 			page 11


 345 01f4 03340101 		ld	s0,16(sp)
 346              		.cfi_restore 8
 347              		.cfi_def_cfa 2, 32
 348 01f8 83348100 		ld	s1,8(sp)
 349              		.cfi_restore 9
 350              	.LVL29:
 351 01fc 03390100 		ld	s2,0(sp)
 352              		.cfi_restore 18
 353 0200 13010102 		addi	sp,sp,32
 354              		.cfi_def_cfa_offset 0
 355 0204 67800000 		jr	ra
 356              	.LVL30:
 357              	.L23:
 358              		.cfi_restore_state
  23:src/TCB.cpp   ****     }
 359              		.loc 1 23 9 is_stmt 1
  23:src/TCB.cpp   ****     }
 360              		.loc 1 23 23 is_stmt 0
 361 0208 13850400 		mv	a0,s1
 362 020c 97000000 		call	_ZN9Scheduler3putEP3TCB@plt
 362      E7800000 
 363              	.LVL31:
 364 0214 6FF01FFA 		j	.L20
 365              	.L24:
  27:src/TCB.cpp   ****     }
 366              		.loc 1 27 9 is_stmt 1
  27:src/TCB.cpp   ****     }
 367              		.loc 1 27 16 is_stmt 0
 368 0218 97070000 		lla	a5,.LANCHOR0
 368      93870700 
 369 0220 03B78700 		ld	a4,8(a5)
 370 0224 23B0E700 		sd	a4,0(a5)
 371 0228 6FF01FFA 		j	.L21
 372              		.cfi_endproc
 373              	.LFE36:
 375              		.align	2
 376              		.globl	_ZN3TCB4exitEv
 378              	_ZN3TCB4exitEv:
 379              	.LFB37:
  36:src/TCB.cpp   ****     if (running->isFinished()) {
 380              		.loc 1 36 17 is_stmt 1
 381              		.cfi_startproc
  37:src/TCB.cpp   ****         return -1;
 382              		.loc 1 37 5
  37:src/TCB.cpp   ****         return -1;
 383              		.loc 1 37 28 is_stmt 0
 384 022c 97070000 		ld	a5,.LANCHOR0
 384      83B70700 
 385              	.LVL32:
 386              	.LBB47:
 387              	.LBB48:
  39:src/../h/TCB.hpp ****     void block() { this->blocked = true; }
 388              		.loc 2 39 31 is_stmt 1
  39:src/../h/TCB.hpp ****     void block() { this->blocked = true; }
 389              		.loc 2 39 38 is_stmt 0
 390 0234 03C72700 		lbu	a4,2(a5)
 391              	.LVL33:
GAS LISTING /tmp/ccbaUYCt.s 			page 12


 392              	.LBE48:
 393              	.LBE47:
  37:src/TCB.cpp   ****         return -1;
 394              		.loc 1 37 5
 395 0238 631C0702 		bnez	a4,.L27
  36:src/TCB.cpp   ****     if (running->isFinished()) {
 396              		.loc 1 36 17
 397 023c 130101FF 		addi	sp,sp,-16
 398              		.cfi_def_cfa_offset 16
 399 0240 23341100 		sd	ra,8(sp)
 400 0244 23308100 		sd	s0,0(sp)
 401              		.cfi_offset 1, -8
 402              		.cfi_offset 8, -16
 403 0248 13040101 		addi	s0,sp,16
 404              		.cfi_def_cfa 8, 0
  40:src/TCB.cpp   ****     thread_dispatch();
 405              		.loc 1 40 5 is_stmt 1
  40:src/TCB.cpp   ****     thread_dispatch();
 406              		.loc 1 40 22 is_stmt 0
 407 024c 13071000 		li	a4,1
 408 0250 2381E700 		sb	a4,2(a5)
  41:src/TCB.cpp   ****     return 0;
 409              		.loc 1 41 5 is_stmt 1
  41:src/TCB.cpp   ****     return 0;
 410              		.loc 1 41 20 is_stmt 0
 411 0254 97000000 		call	_Z15thread_dispatchv@plt
 411      E7800000 
 412              	.LVL34:
  42:src/TCB.cpp   **** }
 413              		.loc 1 42 5 is_stmt 1
  42:src/TCB.cpp   **** }
 414              		.loc 1 42 12 is_stmt 0
 415 025c 13050000 		li	a0,0
  43:src/TCB.cpp   **** 
 416              		.loc 1 43 1
 417 0260 83308100 		ld	ra,8(sp)
 418              		.cfi_restore 1
 419 0264 03340100 		ld	s0,0(sp)
 420              		.cfi_restore 8
 421              		.cfi_def_cfa 2, 16
 422 0268 13010101 		addi	sp,sp,16
 423              		.cfi_def_cfa_offset 0
 424 026c 67800000 		jr	ra
 425              	.L27:
  38:src/TCB.cpp   ****     }
 426              		.loc 1 38 17
 427 0270 1305F0FF 		li	a0,-1
  43:src/TCB.cpp   **** 
 428              		.loc 1 43 1
 429 0274 67800000 		ret
 430              		.cfi_endproc
 431              	.LFE37:
 433              		.align	2
 434              		.globl	_ZN3TCB10TCBWrapperEv
 436              	_ZN3TCB10TCBWrapperEv:
 437              	.LFB38:
  45:src/TCB.cpp   ****     Riscv::restoreSPP();
GAS LISTING /tmp/ccbaUYCt.s 			page 13


 438              		.loc 1 45 24 is_stmt 1
 439              		.cfi_startproc
 440 0278 130101FF 		addi	sp,sp,-16
 441              		.cfi_def_cfa_offset 16
 442 027c 23341100 		sd	ra,8(sp)
 443 0280 23308100 		sd	s0,0(sp)
 444              		.cfi_offset 1, -8
 445              		.cfi_offset 8, -16
 446 0284 13040101 		addi	s0,sp,16
 447              		.cfi_def_cfa 8, 0
  46:src/TCB.cpp   ****     Riscv::popSppSpie();
 448              		.loc 1 46 5
  46:src/TCB.cpp   ****     Riscv::popSppSpie();
 449              		.loc 1 46 22 is_stmt 0
 450 0288 97000000 		call	_ZN5Riscv10restoreSPPEv@plt
 450      E7800000 
 451              	.LVL35:
  47:src/TCB.cpp   ****     running->body(running->arg);
 452              		.loc 1 47 5 is_stmt 1
  47:src/TCB.cpp   ****     running->body(running->arg);
 453              		.loc 1 47 22 is_stmt 0
 454 0290 97000000 		call	_ZN5Riscv10popSppSpieEv@plt
 454      E7800000 
 455              	.LVL36:
  48:src/TCB.cpp   ****     exit();
 456              		.loc 1 48 5 is_stmt 1
  48:src/TCB.cpp   ****     exit();
 457              		.loc 1 48 14 is_stmt 0
 458 0298 97070000 		ld	a5,.LANCHOR0
 458      83B70700 
 459 02a0 03B78702 		ld	a4,40(a5)
  48:src/TCB.cpp   ****     exit();
 460              		.loc 1 48 18
 461 02a4 03B50701 		ld	a0,16(a5)
 462 02a8 E7000700 		jalr	a4
 463              	.LVL37:
  49:src/TCB.cpp   **** }
 464              		.loc 1 49 5 is_stmt 1
  49:src/TCB.cpp   **** }
 465              		.loc 1 49 9 is_stmt 0
 466 02ac 97000000 		call	_ZN3TCB4exitEv
 466      E7800000 
 467              	.LVL38:
  50:src/TCB.cpp   **** 
 468              		.loc 1 50 1
 469 02b4 83308100 		ld	ra,8(sp)
 470              		.cfi_restore 1
 471 02b8 03340100 		ld	s0,0(sp)
 472              		.cfi_restore 8
 473              		.cfi_def_cfa 2, 16
 474 02bc 13010101 		addi	sp,sp,16
 475              		.cfi_def_cfa_offset 0
 476 02c0 67800000 		jr	ra
 477              		.cfi_endproc
 478              	.LFE38:
 480              		.align	2
 481              		.globl	_ZN3TCB5sleepEm
GAS LISTING /tmp/ccbaUYCt.s 			page 14


 483              	_ZN3TCB5sleepEm:
 484              	.LFB39:
  52:src/TCB.cpp   ****     if (time <= 0) {
 485              		.loc 1 52 29 is_stmt 1
 486              		.cfi_startproc
 487              	.LVL39:
  53:src/TCB.cpp   ****         return -1;
 488              		.loc 1 53 5
 489 02c4 63060504 		beqz	a0,.L36
  52:src/TCB.cpp   ****     if (time <= 0) {
 490              		.loc 1 52 29 is_stmt 0
 491 02c8 130101FF 		addi	sp,sp,-16
 492              		.cfi_def_cfa_offset 16
 493 02cc 23341100 		sd	ra,8(sp)
 494 02d0 23308100 		sd	s0,0(sp)
 495              		.cfi_offset 1, -8
 496              		.cfi_offset 8, -16
 497 02d4 13040101 		addi	s0,sp,16
 498              		.cfi_def_cfa 8, 0
 499 02d8 93050500 		mv	a1,a0
  56:src/TCB.cpp   ****     SList::add(running, time);
 500              		.loc 1 56 5 is_stmt 1
  56:src/TCB.cpp   ****     SList::add(running, time);
 501              		.loc 1 56 19 is_stmt 0
 502 02dc 17050000 		ld	a0,.LANCHOR0
 502      03350500 
 503              	.LVL40:
 504              	.LBB49:
 505              	.LBB50:
  40:src/../h/TCB.hpp ****     void unblock() { this->blocked = false; }
 506              		.loc 2 40 20 is_stmt 1
  40:src/../h/TCB.hpp ****     void unblock() { this->blocked = false; }
 507              		.loc 2 40 34 is_stmt 0
 508 02e4 93071000 		li	a5,1
 509 02e8 2308F502 		sb	a5,48(a0)
 510              	.LVL41:
 511              	.LBE50:
 512              	.LBE49:
  57:src/TCB.cpp   ****     dispatch();
 513              		.loc 1 57 5 is_stmt 1
  57:src/TCB.cpp   ****     dispatch();
 514              		.loc 1 57 15 is_stmt 0
 515 02ec 97000000 		call	_ZN5SList3addEP3TCBm@plt
 515      E7800000 
 516              	.LVL42:
  58:src/TCB.cpp   ****     return 0;
 517              		.loc 1 58 5 is_stmt 1
  58:src/TCB.cpp   ****     return 0;
 518              		.loc 1 58 13 is_stmt 0
 519 02f4 97000000 		call	_ZN3TCB8dispatchEv
 519      E7800000 
 520              	.LVL43:
  59:src/TCB.cpp   **** }
 521              		.loc 1 59 5 is_stmt 1
  59:src/TCB.cpp   **** }
 522              		.loc 1 59 12 is_stmt 0
 523 02fc 13050000 		li	a0,0
GAS LISTING /tmp/ccbaUYCt.s 			page 15


  60:src/TCB.cpp   **** 
 524              		.loc 1 60 1
 525 0300 83308100 		ld	ra,8(sp)
 526              		.cfi_restore 1
 527 0304 03340100 		ld	s0,0(sp)
 528              		.cfi_restore 8
 529              		.cfi_def_cfa 2, 16
 530 0308 13010101 		addi	sp,sp,16
 531              		.cfi_def_cfa_offset 0
 532 030c 67800000 		jr	ra
 533              	.LVL44:
 534              	.L36:
  54:src/TCB.cpp   ****     }
 535              		.loc 1 54 17
 536 0310 1305F0FF 		li	a0,-1
 537              	.LVL45:
  60:src/TCB.cpp   **** 
 538              		.loc 1 60 1
 539 0314 67800000 		ret
 540              		.cfi_endproc
 541              	.LFE39:
 543              		.align	2
 544              		.globl	_ZN3TCB16InitOutputThreadEv
 546              	_ZN3TCB16InitOutputThreadEv:
 547              	.LFB42:
  79:src/TCB.cpp   **** }
  80:src/TCB.cpp   **** 
  81:src/TCB.cpp   **** 
  82:src/TCB.cpp   **** 
  83:src/TCB.cpp   **** 
  84:src/TCB.cpp   **** 
  85:src/TCB.cpp   **** void TCB::InitOutputThread() {
 548              		.loc 1 85 30 is_stmt 1
 549              		.cfi_startproc
 550              		.cfi_personality 0x9b,DW.ref.__gxx_personality_v0
 551              		.cfi_lsda 0x1b,.LLSDA42
 552 0318 130101FD 		addi	sp,sp,-48
 553              		.cfi_def_cfa_offset 48
 554 031c 23341102 		sd	ra,40(sp)
 555 0320 23308102 		sd	s0,32(sp)
 556 0324 233C9100 		sd	s1,24(sp)
 557 0328 23382101 		sd	s2,16(sp)
 558 032c 23343101 		sd	s3,8(sp)
 559 0330 23304101 		sd	s4,0(sp)
 560              		.cfi_offset 1, -8
 561              		.cfi_offset 8, -16
 562              		.cfi_offset 9, -24
 563              		.cfi_offset 18, -32
 564              		.cfi_offset 19, -40
 565              		.cfi_offset 20, -48
 566 0334 13040103 		addi	s0,sp,48
 567              		.cfi_def_cfa 8, 0
  86:src/TCB.cpp   **** 
  87:src/TCB.cpp   ****     outputThread = new TCB(OutputThreadBody,nullptr, (uint64*)MemoryAllocator::Instance()->mem_allo
 568              		.loc 1 87 5
 569              	.LEHB3:
 570              		.loc 1 87 101 is_stmt 0
GAS LISTING /tmp/ccbaUYCt.s 			page 16


 571 0338 97000000 		call	_ZN15MemoryAllocator8InstanceEv@plt
 571      E7800000 
 572              	.LVL46:
 573 0340 B7150000 		li	a1,4096
 574 0344 97000000 		call	_ZN15MemoryAllocator9mem_allocEm@plt
 574      E7800000 
 575              	.LVL47:
 576 034c 13090500 		mv	s2,a0
 577              	.LVL48:
 578              	.LBB51:
 579              	.LBB52:
  16:src/../h/TCB.hpp **** }
 580              		.loc 2 16 5 is_stmt 1
  16:src/../h/TCB.hpp **** }
 581              		.loc 2 16 50 is_stmt 0
 582 0350 97000000 		call	_ZN15MemoryAllocator8InstanceEv@plt
 582      E7800000 
 583              	.LVL49:
 584 0358 93050004 		li	a1,64
 585 035c 97000000 		call	_ZN15MemoryAllocator9mem_allocEm@plt
 585      E7800000 
 586              	.LVL50:
 587              	.LEHE3:
 588 0364 93040500 		mv	s1,a0
 589              	.LVL51:
 590              	.LBE52:
 591              	.LBE51:
 592              	.LBB53:
 593              	.LBB54:
  75:src/../h/TCB.hpp ****     {
 594              		.loc 2 75 33
 595 0368 23010500 		sb	zero,2(a0)
 596 036c 23342501 		sd	s2,8(a0)
 597 0370 23380500 		sd	zero,16(a0)
  70:src/../h/TCB.hpp ****               body != nullptr ? (uint64)((char*)stackMem + DEFAULT_STACK_SIZE) : 0
 598              		.loc 2 70 31
 599 0374 170A0000 		lla	s4,_ZN3TCB10TCBWrapperEv
 599      130A0A00 
  75:src/../h/TCB.hpp ****     {
 600              		.loc 2 75 33
 601 037c 233C4501 		sd	s4,24(a0)
  71:src/../h/TCB.hpp ****           }),
 602              		.loc 2 71 58
 603 0380 37150000 		li	a0,4096
 604 0384 3309A900 		add	s2,s2,a0
 605              	.LVL52:
  75:src/../h/TCB.hpp ****     {
 606              		.loc 2 75 33
 607 0388 23B02403 		sd	s2,32(s1)
 608 038c 97070000 		lla	a5,_ZN3TCB16OutputThreadBodyEPv
 608      93870700 
 609 0394 23B4F402 		sd	a5,40(s1)
 610 0398 23880402 		sb	zero,48(s1)
 611 039c 93072000 		li	a5,2
 612 03a0 23BCF402 		sd	a5,56(s1)
  77:src/../h/TCB.hpp ****         sys=false;
 613              		.loc 2 77 9 is_stmt 1
GAS LISTING /tmp/ccbaUYCt.s 			page 17


  77:src/../h/TCB.hpp ****         sys=false;
 614              		.loc 2 77 13 is_stmt 0
 615 03a4 23800400 		sb	zero,0(s1)
  78:src/../h/TCB.hpp ****         timeSlice = DEFAULT_TIME_SLICE;
 616              		.loc 2 78 9 is_stmt 1
  78:src/../h/TCB.hpp ****         timeSlice = DEFAULT_TIME_SLICE;
 617              		.loc 2 78 12 is_stmt 0
 618 03a8 A3800400 		sb	zero,1(s1)
  79:src/../h/TCB.hpp ****         if (running == nullptr) {
 619              		.loc 2 79 9 is_stmt 1
  80:src/../h/TCB.hpp ****             running = this;
 620              		.loc 2 80 9
  80:src/../h/TCB.hpp ****             running = this;
 621              		.loc 2 80 21 is_stmt 0
 622 03ac 97070000 		ld	a5,.LANCHOR0
 622      83B70700 
  80:src/../h/TCB.hpp ****             running = this;
 623              		.loc 2 80 9
 624 03b4 638A0700 		beqz	a5,.L52
 625              		.loc 2 83 13 is_stmt 1
 626              		.loc 2 83 27 is_stmt 0
 627 03b8 13850400 		mv	a0,s1
 628              	.LEHB4:
 629 03bc 97000000 		call	_ZN9Scheduler3putEP3TCB@plt
 629      E7800000 
 630              	.LVL53:
 631              	.LEHE4:
 632 03c4 6F00C000 		j	.L43
 633              	.LVL54:
 634              	.L52:
  81:src/../h/TCB.hpp ****         } else {
 635              		.loc 2 81 13 is_stmt 1
  81:src/../h/TCB.hpp ****         } else {
 636              		.loc 2 81 21 is_stmt 0
 637 03c8 97070000 		sd	s1,.LANCHOR0,a5
 637      23B09700 
 638              	.LVL55:
 639              	.L43:
 640              	.LBE54:
 641              	.LBE53:
 642              		.loc 1 87 18
 643 03d0 97090000 		lla	s3,.LANCHOR0
 643      93890900 
 644 03d8 23BC9900 		sd	s1,24(s3)
  88:src/TCB.cpp   ****     outputThread->sys=true;
 645              		.loc 1 88 5 is_stmt 1
 646              		.loc 1 88 22 is_stmt 0
 647 03dc 93071000 		li	a5,1
 648 03e0 A380F400 		sb	a5,1(s1)
  89:src/TCB.cpp   ****     Scheduler::put(outputThread);
 649              		.loc 1 89 5 is_stmt 1
 650              		.loc 1 89 19 is_stmt 0
 651 03e4 03B58901 		ld	a0,24(s3)
 652              	.LEHB5:
 653 03e8 97000000 		call	_ZN9Scheduler3putEP3TCB@plt
 653      E7800000 
 654              	.LVL56:
GAS LISTING /tmp/ccbaUYCt.s 			page 18


  90:src/TCB.cpp   **** 
  91:src/TCB.cpp   ****     idleThread=new TCB(IdleThreadBody,nullptr, (uint64*)MemoryAllocator::Instance()->mem_alloc(DEFA
 655              		.loc 1 91 5 is_stmt 1
 656              		.loc 1 91 95 is_stmt 0
 657 03f0 97000000 		call	_ZN15MemoryAllocator8InstanceEv@plt
 657      E7800000 
 658              	.LVL57:
 659 03f8 B7150000 		li	a1,4096
 660 03fc 97000000 		call	_ZN15MemoryAllocator9mem_allocEm@plt
 660      E7800000 
 661              	.LVL58:
 662 0404 13090500 		mv	s2,a0
 663              	.LVL59:
 664              	.LBB55:
 665              	.LBB56:
  16:src/../h/TCB.hpp **** }
 666              		.loc 2 16 5 is_stmt 1
  16:src/../h/TCB.hpp **** }
 667              		.loc 2 16 50 is_stmt 0
 668 0408 97000000 		call	_ZN15MemoryAllocator8InstanceEv@plt
 668      E7800000 
 669              	.LVL60:
 670 0410 93050004 		li	a1,64
 671 0414 97000000 		call	_ZN15MemoryAllocator9mem_allocEm@plt
 671      E7800000 
 672              	.LVL61:
 673              	.LEHE5:
 674 041c 93040500 		mv	s1,a0
 675              	.LVL62:
 676              	.LBE56:
 677              	.LBE55:
 678              	.LBB57:
 679              	.LBB58:
  75:src/../h/TCB.hpp ****     {
 680              		.loc 2 75 33
 681 0420 23010500 		sb	zero,2(a0)
 682 0424 23342501 		sd	s2,8(a0)
 683 0428 23380500 		sd	zero,16(a0)
 684 042c 233C4501 		sd	s4,24(a0)
  71:src/../h/TCB.hpp ****           }),
 685              		.loc 2 71 58
 686 0430 37150000 		li	a0,4096
 687 0434 3309A900 		add	s2,s2,a0
 688              	.LVL63:
  75:src/../h/TCB.hpp ****     {
 689              		.loc 2 75 33
 690 0438 23B02403 		sd	s2,32(s1)
 691 043c 97070000 		lla	a5,_ZN3TCB14IdleThreadBodyEPv
 691      93870700 
 692 0444 23B4F402 		sd	a5,40(s1)
 693 0448 23880402 		sb	zero,48(s1)
 694 044c 93072000 		li	a5,2
 695 0450 23BCF402 		sd	a5,56(s1)
  77:src/../h/TCB.hpp ****         sys=false;
 696              		.loc 2 77 9 is_stmt 1
  77:src/../h/TCB.hpp ****         sys=false;
 697              		.loc 2 77 13 is_stmt 0
GAS LISTING /tmp/ccbaUYCt.s 			page 19


 698 0454 23800400 		sb	zero,0(s1)
  78:src/../h/TCB.hpp ****         timeSlice = DEFAULT_TIME_SLICE;
 699              		.loc 2 78 9 is_stmt 1
  78:src/../h/TCB.hpp ****         timeSlice = DEFAULT_TIME_SLICE;
 700              		.loc 2 78 12 is_stmt 0
 701 0458 A3800400 		sb	zero,1(s1)
  79:src/../h/TCB.hpp ****         if (running == nullptr) {
 702              		.loc 2 79 9 is_stmt 1
  80:src/../h/TCB.hpp ****             running = this;
 703              		.loc 2 80 9
  80:src/../h/TCB.hpp ****             running = this;
 704              		.loc 2 80 21 is_stmt 0
 705 045c 83B70900 		ld	a5,0(s3)
  80:src/../h/TCB.hpp ****             running = this;
 706              		.loc 2 80 9
 707 0460 638A0700 		beqz	a5,.L53
 708              		.loc 2 83 13 is_stmt 1
 709              		.loc 2 83 27 is_stmt 0
 710 0464 13850400 		mv	a0,s1
 711              	.LEHB6:
 712 0468 97000000 		call	_ZN9Scheduler3putEP3TCB@plt
 712      E7800000 
 713              	.LVL64:
 714              	.LEHE6:
 715 0470 6F00C000 		j	.L45
 716              	.LVL65:
 717              	.L53:
  81:src/../h/TCB.hpp ****         } else {
 718              		.loc 2 81 13 is_stmt 1
  81:src/../h/TCB.hpp ****         } else {
 719              		.loc 2 81 21 is_stmt 0
 720 0474 97070000 		sd	s1,.LANCHOR0,a5
 720      23B09700 
 721              	.LVL66:
 722              	.L45:
 723              	.LBE58:
 724              	.LBE57:
 725              		.loc 1 91 15
 726 047c 17070000 		lla	a4,.LANCHOR0
 726      13070700 
 727 0484 23349700 		sd	s1,8(a4)
  92:src/TCB.cpp   ****     idleThread->sys=true;
 728              		.loc 1 92 5 is_stmt 1
 729              		.loc 1 92 20 is_stmt 0
 730 0488 93071000 		li	a5,1
 731 048c A380F400 		sb	a5,1(s1)
  93:src/TCB.cpp   ****     idleThread->idle=true;
 732              		.loc 1 93 5 is_stmt 1
 733              		.loc 1 93 17 is_stmt 0
 734 0490 03378700 		ld	a4,8(a4)
 735              		.loc 1 93 21
 736 0494 2300F700 		sb	a5,0(a4)
  94:src/TCB.cpp   **** }
 737              		.loc 1 94 1
 738 0498 83308102 		ld	ra,40(sp)
 739              		.cfi_remember_state
 740              		.cfi_restore 1
GAS LISTING /tmp/ccbaUYCt.s 			page 20


 741 049c 03340102 		ld	s0,32(sp)
 742              		.cfi_restore 8
 743              		.cfi_def_cfa 2, 48
 744 04a0 83348101 		ld	s1,24(sp)
 745              		.cfi_restore 9
 746 04a4 03390101 		ld	s2,16(sp)
 747              		.cfi_restore 18
 748 04a8 83398100 		ld	s3,8(sp)
 749              		.cfi_restore 19
 750 04ac 033A0100 		ld	s4,0(sp)
 751              		.cfi_restore 20
 752 04b0 13010103 		addi	sp,sp,48
 753              		.cfi_def_cfa_offset 0
 754 04b4 67800000 		jr	ra
 755              	.LVL67:
 756              	.L48:
 757              		.cfi_restore_state
 758 04b8 13090500 		mv	s2,a0
 759              	.LVL68:
 760              	.LBB59:
 761              	.LBB60:
  21:src/../h/TCB.hpp ****     }
 762              		.loc 2 21 9 is_stmt 1
  21:src/../h/TCB.hpp ****     }
 763              		.loc 2 21 53 is_stmt 0
 764 04bc 97000000 		call	_ZN15MemoryAllocator8InstanceEv@plt
 764      E7800000 
 765              	.LVL69:
 766 04c4 93850400 		mv	a1,s1
 767 04c8 97000000 		call	_ZN15MemoryAllocator8mem_freeEPv@plt
 767      E7800000 
 768              	.LVL70:
 769 04d0 13050900 		mv	a0,s2
 770              	.LEHB7:
 771 04d4 97000000 		call	_Unwind_Resume@plt
 771      E7800000 
 772              	.LVL71:
 773              	.LEHE7:
 774              	.L49:
 775 04dc 13090500 		mv	s2,a0
 776              	.LVL72:
 777              	.LBE60:
 778              	.LBE59:
 779              	.LBB61:
 780              	.LBB62:
  21:src/../h/TCB.hpp ****     }
 781              		.loc 2 21 9 is_stmt 1
  21:src/../h/TCB.hpp ****     }
 782              		.loc 2 21 53 is_stmt 0
 783 04e0 97000000 		call	_ZN15MemoryAllocator8InstanceEv@plt
 783      E7800000 
 784              	.LVL73:
 785 04e8 93850400 		mv	a1,s1
 786 04ec 97000000 		call	_ZN15MemoryAllocator8mem_freeEPv@plt
 786      E7800000 
 787              	.LVL74:
 788 04f4 13050900 		mv	a0,s2
GAS LISTING /tmp/ccbaUYCt.s 			page 21


 789              	.LEHB8:
 790 04f8 97000000 		call	_Unwind_Resume@plt
 790      E7800000 
 791              	.LVL75:
 792              	.LEHE8:
 793              	.LBE62:
 794              	.LBE61:
 795              		.cfi_endproc
 796              	.LFE42:
 797              		.section	.gcc_except_table
 798              	.LLSDA42:
 799 002b FF       		.byte	0xff
 800 002c FF       		.byte	0xff
 801 002d 03       		.byte	0x3
 802 002e 4E       		.byte	0x4e
 803 002f 00000000 		.4byte	.LEHB3-.LFB42
 804 0033 00000000 		.4byte	.LEHE3-.LEHB3
 805 0037 00000000 		.4byte	0
 806 003b 00       		.byte	0
 807 003c 00000000 		.4byte	.LEHB4-.LFB42
 808 0040 00000000 		.4byte	.LEHE4-.LEHB4
 809 0044 00000000 		.4byte	.L48-.LFB42
 810 0048 00       		.byte	0
 811 0049 00000000 		.4byte	.LEHB5-.LFB42
 812 004d 00000000 		.4byte	.LEHE5-.LEHB5
 813 0051 00000000 		.4byte	0
 814 0055 00       		.byte	0
 815 0056 00000000 		.4byte	.LEHB6-.LFB42
 816 005a 00000000 		.4byte	.LEHE6-.LEHB6
 817 005e 00000000 		.4byte	.L49-.LFB42
 818 0062 00       		.byte	0
 819 0063 00000000 		.4byte	.LEHB7-.LFB42
 820 0067 00000000 		.4byte	.LEHE7-.LEHB7
 821 006b 00000000 		.4byte	0
 822 006f 00       		.byte	0
 823 0070 00000000 		.4byte	.LEHB8-.LFB42
 824 0074 00000000 		.4byte	.LEHE8-.LEHB8
 825 0078 00000000 		.4byte	0
 826 007c 00       		.byte	0
 827              		.text
 829              		.globl	_ZN3TCB11timeCounterE
 830              		.globl	_ZN3TCB10idleThreadE
 831              		.globl	_ZN3TCB12outputThreadE
 832              		.globl	_ZN3TCB7runningE
 833              		.bss
 834              		.align	3
 835              		.set	.LANCHOR0,. + 0
 838              	_ZN3TCB7runningE:
 839 0000 00000000 		.zero	8
 839      00000000 
 842              	_ZN3TCB10idleThreadE:
 843 0008 00000000 		.zero	8
 843      00000000 
 846              	_ZN3TCB11timeCounterE:
 847 0010 00000000 		.zero	8
 847      00000000 
 850              	_ZN3TCB12outputThreadE:
GAS LISTING /tmp/ccbaUYCt.s 			page 22


 851 0018 00000000 		.zero	8
 851      00000000 
 852              		.text
 853              	.Letext0:
 854              		.file 3 "src/../h/../lib/hw.h"
 855              		.file 4 "src/../h/../h/Scheduler.hpp"
 856              		.file 5 "src/../h/../h/List.hpp"
 857              		.file 6 "src/../h/../h/MemoryAllocator.hpp"
 858              		.file 7 "src/../h/SEM.hpp"
 859              		.file 8 "src/../h/syscall_c.hpp"
 860              		.file 9 "src/../h/BBuff.hpp"
 861              		.file 10 "src/../h/Riscv.hpp"
 862              		.file 11 "src/../h/SList.hpp"
 4793              		.align	3
 4796              	DW.ref.__gxx_personality_v0:
 4797 0000 00000000 		.dword	__gxx_personality_v0
 4797      00000000 
 4798              		.ident	"GCC: (Ubuntu 9.4.0-1ubuntu1~20.04) 9.4.0"
 4799              		.section	.note.GNU-stack,"",@progbits
GAS LISTING /tmp/ccbaUYCt.s 			page 23


DEFINED SYMBOLS
                            *ABS*:0000000000000000 TCB.cpp
     /tmp/ccbaUYCt.s:9      .text:0000000000000000 _ZN3TCB14IdleThreadBodyEPv
     /tmp/ccbaUYCt.s:13     .text:0000000000000000 .L0 
     /tmp/ccbaUYCt.s:15     .text:0000000000000000 .L0 
     /tmp/ccbaUYCt.s:16     .text:0000000000000004 .L0 
     /tmp/ccbaUYCt.s:18     .text:0000000000000008 .L0 
     /tmp/ccbaUYCt.s:20     .text:000000000000000c .L0 
     /tmp/ccbaUYCt.s:23     .text:000000000000000c .L0 
     /tmp/ccbaUYCt.s:24     .text:000000000000000c .L0 
     /tmp/ccbaUYCt.s:25     .text:0000000000000010 .L0 
     /tmp/ccbaUYCt.s:31     .text:0000000000000010 _ZN3TCB16OutputThreadBodyEPv
     /tmp/ccbaUYCt.s:34     .text:0000000000000010 .L0 
     /tmp/ccbaUYCt.s:36     .text:0000000000000010 .L0 
     /tmp/ccbaUYCt.s:37     .text:0000000000000014 .L0 
     /tmp/ccbaUYCt.s:41     .text:0000000000000020 .L0 
     /tmp/ccbaUYCt.s:42     .text:0000000000000020 .L0 
     /tmp/ccbaUYCt.s:43     .text:0000000000000020 .L0 
     /tmp/ccbaUYCt.s:45     .text:0000000000000024 .L0 
     /tmp/ccbaUYCt.s:50     .text:0000000000000024 .L0 
     /tmp/ccbaUYCt.s:51     .text:0000000000000024 .L0 
     /tmp/ccbaUYCt.s:52     .text:0000000000000024 .L0 
     /tmp/ccbaUYCt.s:56     .text:0000000000000034 .L0 
     /tmp/ccbaUYCt.s:59     .text:0000000000000038 .L0 
     /tmp/ccbaUYCt.s:60     .text:0000000000000038 .L0 
     /tmp/ccbaUYCt.s:61     .text:0000000000000038 .L0 
     /tmp/ccbaUYCt.s:64     .text:0000000000000040 .L0 
     /tmp/ccbaUYCt.s:68     .text:0000000000000048 .L0 
     /tmp/ccbaUYCt.s:69     .text:0000000000000048 .L0 
     /tmp/ccbaUYCt.s:74     .text:000000000000005c .L0 
     /tmp/ccbaUYCt.s:77     .text:0000000000000068 .L0 
     /tmp/ccbaUYCt.s:79     .text:000000000000006c .L0 
     /tmp/ccbaUYCt.s:80     .text:000000000000006c .L0 
     /tmp/ccbaUYCt.s:82     .text:0000000000000070 .L0 
     /tmp/ccbaUYCt.s:85     .text:0000000000000074 .L0 
     /tmp/ccbaUYCt.s:87     .text:0000000000000078 .L0 
     /tmp/ccbaUYCt.s:93     .text:0000000000000078 _ZN3TCB12createThreadEPFvPvES0_Pm
     /tmp/ccbaUYCt.s:96     .text:0000000000000078 .L0 
     /tmp/ccbaUYCt.s:4796   .data.rel.local.DW.ref.__gxx_personality_v0:0000000000000000 DW.ref.__gxx_personality_v0
     /tmp/ccbaUYCt.s:100    .text:0000000000000078 .L0 
     /tmp/ccbaUYCt.s:101    .text:000000000000007c .L0 
     /tmp/ccbaUYCt.s:108    .text:0000000000000094 .L0 
     /tmp/ccbaUYCt.s:109    .text:0000000000000094 .L0 
     /tmp/ccbaUYCt.s:110    .text:0000000000000094 .L0 
     /tmp/ccbaUYCt.s:111    .text:0000000000000094 .L0 
     /tmp/ccbaUYCt.s:112    .text:0000000000000094 .L0 
     /tmp/ccbaUYCt.s:113    .text:0000000000000094 .L0 
     /tmp/ccbaUYCt.s:115    .text:0000000000000098 .L0 
     /tmp/ccbaUYCt.s:124    .text:00000000000000a4 .L0 
     /tmp/ccbaUYCt.s:126    .text:00000000000000a4 .L0 
     /tmp/ccbaUYCt.s:127    .text:00000000000000a4 .L0 
     /tmp/ccbaUYCt.s:140    .text:00000000000000bc .L0 
     /tmp/ccbaUYCt.s:144    .text:00000000000000c8 .L0 
     /tmp/ccbaUYCt.s:436    .text:0000000000000278 _ZN3TCB10TCBWrapperEv
     /tmp/ccbaUYCt.s:148    .text:00000000000000d4 .L0 
     /tmp/ccbaUYCt.s:150    .text:00000000000000d8 .L0 
     /tmp/ccbaUYCt.s:152    .text:00000000000000dc .L0 
GAS LISTING /tmp/ccbaUYCt.s 			page 24


     /tmp/ccbaUYCt.s:157    .text:00000000000000e4 .L0 
     /tmp/ccbaUYCt.s:163    .text:00000000000000f8 .L0 
     /tmp/ccbaUYCt.s:164    .text:00000000000000f8 .L0 
     /tmp/ccbaUYCt.s:166    .text:00000000000000fc .L0 
     /tmp/ccbaUYCt.s:167    .text:00000000000000fc .L0 
     /tmp/ccbaUYCt.s:169    .text:0000000000000100 .L0 
     /tmp/ccbaUYCt.s:170    .text:0000000000000100 .L0 
     /tmp/ccbaUYCt.s:171    .text:0000000000000100 .L0 
     /tmp/ccbaUYCt.s:173    .text:0000000000000108 .L0 
     /tmp/ccbaUYCt.s:175    .text:000000000000010c .L0 
     /tmp/ccbaUYCt.s:176    .text:000000000000010c .L0 
     /tmp/ccbaUYCt.s:185    .text:000000000000011c .L0 
     /tmp/ccbaUYCt.s:189    .text:0000000000000124 .L0 
     /tmp/ccbaUYCt.s:194    .text:000000000000012c .L0 
     /tmp/ccbaUYCt.s:195    .text:000000000000012c .L0 
     /tmp/ccbaUYCt.s:201    .text:0000000000000134 .L0 
     /tmp/ccbaUYCt.s:203    .text:000000000000013c .L0 
     /tmp/ccbaUYCt.s:204    .text:000000000000013c .L0 
     /tmp/ccbaUYCt.s:206    .text:0000000000000140 .L0 
     /tmp/ccbaUYCt.s:207    .text:0000000000000140 .L0 
     /tmp/ccbaUYCt.s:209    .text:0000000000000144 .L0 
     /tmp/ccbaUYCt.s:212    .text:0000000000000148 .L0 
     /tmp/ccbaUYCt.s:214    .text:000000000000014c .L0 
     /tmp/ccbaUYCt.s:217    .text:0000000000000150 .L0 
     /tmp/ccbaUYCt.s:220    .text:0000000000000154 .L0 
     /tmp/ccbaUYCt.s:224    .text:0000000000000158 .L0 
     /tmp/ccbaUYCt.s:230    .text:000000000000015c .L0 
     /tmp/ccbaUYCt.s:231    .text:000000000000015c .L0 
     /tmp/ccbaUYCt.s:243    .text:000000000000017c .L0 
     /tmp/ccbaUYCt.s:269    .text:000000000000017c _ZN3TCB8dispatchEv
     /tmp/ccbaUYCt.s:272    .text:000000000000017c .L0 
     /tmp/ccbaUYCt.s:273    .text:000000000000017c .L0 
     /tmp/ccbaUYCt.s:274    .text:0000000000000180 .L0 
     /tmp/ccbaUYCt.s:279    .text:0000000000000190 .L0 
     /tmp/ccbaUYCt.s:280    .text:0000000000000190 .L0 
     /tmp/ccbaUYCt.s:281    .text:0000000000000190 .L0 
     /tmp/ccbaUYCt.s:282    .text:0000000000000190 .L0 
     /tmp/ccbaUYCt.s:284    .text:0000000000000194 .L0 
     /tmp/ccbaUYCt.s:286    .text:0000000000000194 .L0 
     /tmp/ccbaUYCt.s:287    .text:0000000000000194 .L0 
     /tmp/ccbaUYCt.s:292    .text:000000000000019c .L0 
     /tmp/ccbaUYCt.s:293    .text:000000000000019c .L0 
     /tmp/ccbaUYCt.s:294    .text:000000000000019c .L0 
     /tmp/ccbaUYCt.s:299    .text:00000000000001a0 .L0 
     /tmp/ccbaUYCt.s:304    .text:00000000000001a4 .L0 
     /tmp/ccbaUYCt.s:305    .text:00000000000001a4 .L0 
     /tmp/ccbaUYCt.s:310    .text:00000000000001a8 .L0 
     /tmp/ccbaUYCt.s:312    .text:00000000000001ac .L0 
     /tmp/ccbaUYCt.s:314    .text:00000000000001b0 .L0 
     /tmp/ccbaUYCt.s:317    .text:00000000000001b4 .L0 
     /tmp/ccbaUYCt.s:318    .text:00000000000001b4 .L0 
     /tmp/ccbaUYCt.s:321    .text:00000000000001bc .L0 
     /tmp/ccbaUYCt.s:323    .text:00000000000001c4 .L0 
     /tmp/ccbaUYCt.s:326    .text:00000000000001c8 .L0 
     /tmp/ccbaUYCt.s:327    .text:00000000000001c8 .L0 
     /tmp/ccbaUYCt.s:330    .text:00000000000001d4 .L0 
     /tmp/ccbaUYCt.s:331    .text:00000000000001d4 .L0 
GAS LISTING /tmp/ccbaUYCt.s 			page 25


     /tmp/ccbaUYCt.s:334    .text:00000000000001dc .L0 
     /tmp/ccbaUYCt.s:335    .text:00000000000001dc .L0 
     /tmp/ccbaUYCt.s:337    .text:00000000000001e0 .L0 
     /tmp/ccbaUYCt.s:342    .text:00000000000001f0 .L0 
     /tmp/ccbaUYCt.s:343    .text:00000000000001f4 .L0 
     /tmp/ccbaUYCt.s:344    .text:00000000000001f4 .L0 
     /tmp/ccbaUYCt.s:346    .text:00000000000001f8 .L0 
     /tmp/ccbaUYCt.s:347    .text:00000000000001f8 .L0 
     /tmp/ccbaUYCt.s:349    .text:00000000000001fc .L0 
     /tmp/ccbaUYCt.s:352    .text:0000000000000200 .L0 
     /tmp/ccbaUYCt.s:354    .text:0000000000000204 .L0 
     /tmp/ccbaUYCt.s:358    .text:0000000000000208 .L0 
     /tmp/ccbaUYCt.s:360    .text:0000000000000208 .L0 
     /tmp/ccbaUYCt.s:361    .text:0000000000000208 .L0 
     /tmp/ccbaUYCt.s:367    .text:0000000000000218 .L0 
     /tmp/ccbaUYCt.s:368    .text:0000000000000218 .L0 
     /tmp/ccbaUYCt.s:372    .text:000000000000022c .L0 
     /tmp/ccbaUYCt.s:378    .text:000000000000022c _ZN3TCB4exitEv
     /tmp/ccbaUYCt.s:381    .text:000000000000022c .L0 
     /tmp/ccbaUYCt.s:382    .text:000000000000022c .L0 
     /tmp/ccbaUYCt.s:383    .text:000000000000022c .L0 
     /tmp/ccbaUYCt.s:384    .text:000000000000022c .L0 
     /tmp/ccbaUYCt.s:389    .text:0000000000000234 .L0 
     /tmp/ccbaUYCt.s:390    .text:0000000000000234 .L0 
     /tmp/ccbaUYCt.s:395    .text:0000000000000238 .L0 
     /tmp/ccbaUYCt.s:397    .text:000000000000023c .L0 
     /tmp/ccbaUYCt.s:398    .text:0000000000000240 .L0 
     /tmp/ccbaUYCt.s:401    .text:0000000000000248 .L0 
     /tmp/ccbaUYCt.s:402    .text:0000000000000248 .L0 
     /tmp/ccbaUYCt.s:404    .text:000000000000024c .L0 
     /tmp/ccbaUYCt.s:406    .text:000000000000024c .L0 
     /tmp/ccbaUYCt.s:407    .text:000000000000024c .L0 
     /tmp/ccbaUYCt.s:410    .text:0000000000000254 .L0 
     /tmp/ccbaUYCt.s:411    .text:0000000000000254 .L0 
     /tmp/ccbaUYCt.s:414    .text:000000000000025c .L0 
     /tmp/ccbaUYCt.s:415    .text:000000000000025c .L0 
     /tmp/ccbaUYCt.s:417    .text:0000000000000260 .L0 
     /tmp/ccbaUYCt.s:418    .text:0000000000000264 .L0 
     /tmp/ccbaUYCt.s:420    .text:0000000000000268 .L0 
     /tmp/ccbaUYCt.s:421    .text:0000000000000268 .L0 
     /tmp/ccbaUYCt.s:423    .text:000000000000026c .L0 
     /tmp/ccbaUYCt.s:427    .text:0000000000000270 .L0 
     /tmp/ccbaUYCt.s:429    .text:0000000000000274 .L0 
     /tmp/ccbaUYCt.s:430    .text:0000000000000278 .L0 
     /tmp/ccbaUYCt.s:439    .text:0000000000000278 .L0 
     /tmp/ccbaUYCt.s:440    .text:0000000000000278 .L0 
     /tmp/ccbaUYCt.s:441    .text:000000000000027c .L0 
     /tmp/ccbaUYCt.s:444    .text:0000000000000284 .L0 
     /tmp/ccbaUYCt.s:445    .text:0000000000000284 .L0 
     /tmp/ccbaUYCt.s:447    .text:0000000000000288 .L0 
     /tmp/ccbaUYCt.s:449    .text:0000000000000288 .L0 
     /tmp/ccbaUYCt.s:450    .text:0000000000000288 .L0 
     /tmp/ccbaUYCt.s:453    .text:0000000000000290 .L0 
     /tmp/ccbaUYCt.s:454    .text:0000000000000290 .L0 
     /tmp/ccbaUYCt.s:457    .text:0000000000000298 .L0 
     /tmp/ccbaUYCt.s:458    .text:0000000000000298 .L0 
     /tmp/ccbaUYCt.s:461    .text:00000000000002a4 .L0 
GAS LISTING /tmp/ccbaUYCt.s 			page 26


     /tmp/ccbaUYCt.s:465    .text:00000000000002ac .L0 
     /tmp/ccbaUYCt.s:466    .text:00000000000002ac .L0 
     /tmp/ccbaUYCt.s:469    .text:00000000000002b4 .L0 
     /tmp/ccbaUYCt.s:470    .text:00000000000002b8 .L0 
     /tmp/ccbaUYCt.s:472    .text:00000000000002bc .L0 
     /tmp/ccbaUYCt.s:473    .text:00000000000002bc .L0 
     /tmp/ccbaUYCt.s:475    .text:00000000000002c0 .L0 
     /tmp/ccbaUYCt.s:477    .text:00000000000002c4 .L0 
     /tmp/ccbaUYCt.s:483    .text:00000000000002c4 _ZN3TCB5sleepEm
     /tmp/ccbaUYCt.s:486    .text:00000000000002c4 .L0 
     /tmp/ccbaUYCt.s:488    .text:00000000000002c4 .L0 
     /tmp/ccbaUYCt.s:489    .text:00000000000002c4 .L0 
     /tmp/ccbaUYCt.s:491    .text:00000000000002c8 .L0 
     /tmp/ccbaUYCt.s:492    .text:00000000000002cc .L0 
     /tmp/ccbaUYCt.s:495    .text:00000000000002d4 .L0 
     /tmp/ccbaUYCt.s:496    .text:00000000000002d4 .L0 
     /tmp/ccbaUYCt.s:498    .text:00000000000002d8 .L0 
     /tmp/ccbaUYCt.s:501    .text:00000000000002dc .L0 
     /tmp/ccbaUYCt.s:502    .text:00000000000002dc .L0 
     /tmp/ccbaUYCt.s:507    .text:00000000000002e4 .L0 
     /tmp/ccbaUYCt.s:508    .text:00000000000002e4 .L0 
     /tmp/ccbaUYCt.s:514    .text:00000000000002ec .L0 
     /tmp/ccbaUYCt.s:515    .text:00000000000002ec .L0 
     /tmp/ccbaUYCt.s:518    .text:00000000000002f4 .L0 
     /tmp/ccbaUYCt.s:519    .text:00000000000002f4 .L0 
     /tmp/ccbaUYCt.s:522    .text:00000000000002fc .L0 
     /tmp/ccbaUYCt.s:523    .text:00000000000002fc .L0 
     /tmp/ccbaUYCt.s:525    .text:0000000000000300 .L0 
     /tmp/ccbaUYCt.s:526    .text:0000000000000304 .L0 
     /tmp/ccbaUYCt.s:528    .text:0000000000000308 .L0 
     /tmp/ccbaUYCt.s:529    .text:0000000000000308 .L0 
     /tmp/ccbaUYCt.s:531    .text:000000000000030c .L0 
     /tmp/ccbaUYCt.s:536    .text:0000000000000310 .L0 
     /tmp/ccbaUYCt.s:539    .text:0000000000000314 .L0 
     /tmp/ccbaUYCt.s:540    .text:0000000000000318 .L0 
     /tmp/ccbaUYCt.s:546    .text:0000000000000318 _ZN3TCB16InitOutputThreadEv
     /tmp/ccbaUYCt.s:549    .text:0000000000000318 .L0 
     /tmp/ccbaUYCt.s:552    .text:0000000000000318 .L0 
     /tmp/ccbaUYCt.s:553    .text:000000000000031c .L0 
     /tmp/ccbaUYCt.s:560    .text:0000000000000334 .L0 
     /tmp/ccbaUYCt.s:561    .text:0000000000000334 .L0 
     /tmp/ccbaUYCt.s:562    .text:0000000000000334 .L0 
     /tmp/ccbaUYCt.s:563    .text:0000000000000334 .L0 
     /tmp/ccbaUYCt.s:564    .text:0000000000000334 .L0 
     /tmp/ccbaUYCt.s:565    .text:0000000000000334 .L0 
     /tmp/ccbaUYCt.s:567    .text:0000000000000338 .L0 
     /tmp/ccbaUYCt.s:570    .text:0000000000000338 .L0 
     /tmp/ccbaUYCt.s:571    .text:0000000000000338 .L0 
     /tmp/ccbaUYCt.s:581    .text:0000000000000350 .L0 
     /tmp/ccbaUYCt.s:582    .text:0000000000000350 .L0 
     /tmp/ccbaUYCt.s:595    .text:0000000000000368 .L0 
     /tmp/ccbaUYCt.s:599    .text:0000000000000374 .L0 
     /tmp/ccbaUYCt.s:601    .text:000000000000037c .L0 
     /tmp/ccbaUYCt.s:603    .text:0000000000000380 .L0 
     /tmp/ccbaUYCt.s:607    .text:0000000000000388 .L0 
     /tmp/ccbaUYCt.s:614    .text:00000000000003a4 .L0 
     /tmp/ccbaUYCt.s:615    .text:00000000000003a4 .L0 
GAS LISTING /tmp/ccbaUYCt.s 			page 27


     /tmp/ccbaUYCt.s:617    .text:00000000000003a8 .L0 
     /tmp/ccbaUYCt.s:618    .text:00000000000003a8 .L0 
     /tmp/ccbaUYCt.s:620    .text:00000000000003ac .L0 
     /tmp/ccbaUYCt.s:621    .text:00000000000003ac .L0 
     /tmp/ccbaUYCt.s:622    .text:00000000000003ac .L0 
     /tmp/ccbaUYCt.s:624    .text:00000000000003b4 .L0 
     /tmp/ccbaUYCt.s:626    .text:00000000000003b8 .L0 
     /tmp/ccbaUYCt.s:627    .text:00000000000003b8 .L0 
     /tmp/ccbaUYCt.s:636    .text:00000000000003c8 .L0 
     /tmp/ccbaUYCt.s:637    .text:00000000000003c8 .L0 
     /tmp/ccbaUYCt.s:643    .text:00000000000003d0 .L0 
     /tmp/ccbaUYCt.s:646    .text:00000000000003dc .L0 
     /tmp/ccbaUYCt.s:647    .text:00000000000003dc .L0 
     /tmp/ccbaUYCt.s:650    .text:00000000000003e4 .L0 
     /tmp/ccbaUYCt.s:651    .text:00000000000003e4 .L0 
     /tmp/ccbaUYCt.s:656    .text:00000000000003f0 .L0 
     /tmp/ccbaUYCt.s:657    .text:00000000000003f0 .L0 
     /tmp/ccbaUYCt.s:667    .text:0000000000000408 .L0 
     /tmp/ccbaUYCt.s:668    .text:0000000000000408 .L0 
     /tmp/ccbaUYCt.s:681    .text:0000000000000420 .L0 
     /tmp/ccbaUYCt.s:686    .text:0000000000000430 .L0 
     /tmp/ccbaUYCt.s:690    .text:0000000000000438 .L0 
     /tmp/ccbaUYCt.s:697    .text:0000000000000454 .L0 
     /tmp/ccbaUYCt.s:698    .text:0000000000000454 .L0 
     /tmp/ccbaUYCt.s:700    .text:0000000000000458 .L0 
     /tmp/ccbaUYCt.s:701    .text:0000000000000458 .L0 
     /tmp/ccbaUYCt.s:703    .text:000000000000045c .L0 
     /tmp/ccbaUYCt.s:704    .text:000000000000045c .L0 
     /tmp/ccbaUYCt.s:705    .text:000000000000045c .L0 
     /tmp/ccbaUYCt.s:707    .text:0000000000000460 .L0 
     /tmp/ccbaUYCt.s:709    .text:0000000000000464 .L0 
     /tmp/ccbaUYCt.s:710    .text:0000000000000464 .L0 
     /tmp/ccbaUYCt.s:719    .text:0000000000000474 .L0 
     /tmp/ccbaUYCt.s:720    .text:0000000000000474 .L0 
     /tmp/ccbaUYCt.s:726    .text:000000000000047c .L0 
     /tmp/ccbaUYCt.s:729    .text:0000000000000488 .L0 
     /tmp/ccbaUYCt.s:730    .text:0000000000000488 .L0 
     /tmp/ccbaUYCt.s:733    .text:0000000000000490 .L0 
     /tmp/ccbaUYCt.s:734    .text:0000000000000490 .L0 
     /tmp/ccbaUYCt.s:736    .text:0000000000000494 .L0 
     /tmp/ccbaUYCt.s:738    .text:0000000000000498 .L0 
     /tmp/ccbaUYCt.s:739    .text:000000000000049c .L0 
     /tmp/ccbaUYCt.s:740    .text:000000000000049c .L0 
     /tmp/ccbaUYCt.s:742    .text:00000000000004a0 .L0 
     /tmp/ccbaUYCt.s:743    .text:00000000000004a0 .L0 
     /tmp/ccbaUYCt.s:745    .text:00000000000004a4 .L0 
     /tmp/ccbaUYCt.s:747    .text:00000000000004a8 .L0 
     /tmp/ccbaUYCt.s:749    .text:00000000000004ac .L0 
     /tmp/ccbaUYCt.s:751    .text:00000000000004b0 .L0 
     /tmp/ccbaUYCt.s:753    .text:00000000000004b4 .L0 
     /tmp/ccbaUYCt.s:757    .text:00000000000004b8 .L0 
     /tmp/ccbaUYCt.s:763    .text:00000000000004bc .L0 
     /tmp/ccbaUYCt.s:764    .text:00000000000004bc .L0 
     /tmp/ccbaUYCt.s:782    .text:00000000000004e0 .L0 
     /tmp/ccbaUYCt.s:783    .text:00000000000004e0 .L0 
     /tmp/ccbaUYCt.s:795    .text:0000000000000500 .L0 
     /tmp/ccbaUYCt.s:846    .bss:0000000000000010 _ZN3TCB11timeCounterE
GAS LISTING /tmp/ccbaUYCt.s 			page 28


     /tmp/ccbaUYCt.s:842    .bss:0000000000000008 _ZN3TCB10idleThreadE
     /tmp/ccbaUYCt.s:850    .bss:0000000000000018 _ZN3TCB12outputThreadE
     /tmp/ccbaUYCt.s:838    .bss:0000000000000000 _ZN3TCB7runningE
     /tmp/ccbaUYCt.s:835    .bss:0000000000000000 .LANCHOR0
     /tmp/ccbaUYCt.s:863    .text:0000000000000500 .L0 
     /tmp/ccbaUYCt.s:52     .text:0000000000000024 .L0 
     /tmp/ccbaUYCt.s:69     .text:0000000000000048 .L0 
     /tmp/ccbaUYCt.s:74     .text:000000000000005c .L0 
     /tmp/ccbaUYCt.s:145    .text:00000000000000cc .L0 
     /tmp/ccbaUYCt.s:171    .text:0000000000000100 .L0 
     /tmp/ccbaUYCt.s:195    .text:000000000000012c .L0 
     /tmp/ccbaUYCt.s:287    .text:0000000000000194 .L0 
     /tmp/ccbaUYCt.s:321    .text:00000000000001bc .L0 
     /tmp/ccbaUYCt.s:327    .text:00000000000001c8 .L0 
     /tmp/ccbaUYCt.s:368    .text:0000000000000218 .L0 
     /tmp/ccbaUYCt.s:384    .text:000000000000022c .L0 
     /tmp/ccbaUYCt.s:458    .text:0000000000000298 .L0 
     /tmp/ccbaUYCt.s:502    .text:00000000000002dc .L0 
     /tmp/ccbaUYCt.s:599    .text:0000000000000374 .L0 
     /tmp/ccbaUYCt.s:608    .text:000000000000038c .L0 
     /tmp/ccbaUYCt.s:622    .text:00000000000003ac .L0 
     /tmp/ccbaUYCt.s:637    .text:00000000000003c8 .L0 
     /tmp/ccbaUYCt.s:643    .text:00000000000003d0 .L0 
     /tmp/ccbaUYCt.s:691    .text:000000000000043c .L0 
     /tmp/ccbaUYCt.s:720    .text:0000000000000474 .L0 
     /tmp/ccbaUYCt.s:726    .text:000000000000047c .L0 
     /tmp/ccbaUYCt.s:21     .text:000000000000000c .L2
     /tmp/ccbaUYCt.s:47     .text:0000000000000024 .L5
     /tmp/ccbaUYCt.s:57     .text:0000000000000038 .L6
     /tmp/ccbaUYCt.s:183    .text:000000000000011c .L14
     /tmp/ccbaUYCt.s:187    .text:0000000000000124 .L15
     /tmp/ccbaUYCt.s:192    .text:000000000000012c .L18
     /tmp/ccbaUYCt.s:197    .text:0000000000000134 .L8
     /tmp/ccbaUYCt.s:146    .text:00000000000000d4 .L9
     /tmp/ccbaUYCt.s:155    .text:00000000000000e4 .L10
     /tmp/ccbaUYCt.s:315    .text:00000000000001b4 .L20
     /tmp/ccbaUYCt.s:357    .text:0000000000000208 .L23
     /tmp/ccbaUYCt.s:365    .text:0000000000000218 .L24
     /tmp/ccbaUYCt.s:324    .text:00000000000001c8 .L21
     /tmp/ccbaUYCt.s:425    .text:0000000000000270 .L27
     /tmp/ccbaUYCt.s:534    .text:0000000000000310 .L36
     /tmp/ccbaUYCt.s:634    .text:00000000000003c8 .L52
     /tmp/ccbaUYCt.s:639    .text:00000000000003d0 .L43
     /tmp/ccbaUYCt.s:717    .text:0000000000000474 .L53
     /tmp/ccbaUYCt.s:722    .text:000000000000047c .L45
     /tmp/ccbaUYCt.s:125    .text:00000000000000a4 .LEHB0
     /tmp/ccbaUYCt.s:94     .text:0000000000000078 .LFB35
     /tmp/ccbaUYCt.s:132    .text:00000000000000b8 .LEHE0
     /tmp/ccbaUYCt.s:177    .text:0000000000000110 .LEHB1
     /tmp/ccbaUYCt.s:180    .text:0000000000000118 .LEHE1
     /tmp/ccbaUYCt.s:223    .text:0000000000000158 .L16
     /tmp/ccbaUYCt.s:237    .text:0000000000000174 .LEHB2
     /tmp/ccbaUYCt.s:240    .text:000000000000017c .LEHE2
     /tmp/ccbaUYCt.s:569    .text:0000000000000338 .LEHB3
     /tmp/ccbaUYCt.s:547    .text:0000000000000318 .LFB42
     /tmp/ccbaUYCt.s:587    .text:0000000000000364 .LEHE3
     /tmp/ccbaUYCt.s:628    .text:00000000000003bc .LEHB4
GAS LISTING /tmp/ccbaUYCt.s 			page 29


     /tmp/ccbaUYCt.s:631    .text:00000000000003c4 .LEHE4
     /tmp/ccbaUYCt.s:756    .text:00000000000004b8 .L48
     /tmp/ccbaUYCt.s:652    .text:00000000000003e8 .LEHB5
     /tmp/ccbaUYCt.s:673    .text:000000000000041c .LEHE5
     /tmp/ccbaUYCt.s:711    .text:0000000000000468 .LEHB6
     /tmp/ccbaUYCt.s:714    .text:0000000000000470 .LEHE6
     /tmp/ccbaUYCt.s:774    .text:00000000000004dc .L49
     /tmp/ccbaUYCt.s:770    .text:00000000000004d4 .LEHB7
     /tmp/ccbaUYCt.s:773    .text:00000000000004dc .LEHE7
     /tmp/ccbaUYCt.s:789    .text:00000000000004f8 .LEHB8
     /tmp/ccbaUYCt.s:792    .text:0000000000000500 .LEHE8
     /tmp/ccbaUYCt.s:2850   .debug_abbrev:0000000000000000 .Ldebug_abbrev0
     /tmp/ccbaUYCt.s:4716   .debug_str:000000000000089d .LASF171
     /tmp/ccbaUYCt.s:4498   .debug_str:0000000000000248 .LASF172
     /tmp/ccbaUYCt.s:4638   .debug_str:0000000000000679 .LASF173
     /tmp/ccbaUYCt.s:5      .text:0000000000000000 .Ltext0
     /tmp/ccbaUYCt.s:853    .text:0000000000000500 .Letext0
     /tmp/ccbaUYCt.s:4418   .debug_line:0000000000000000 .Ldebug_line0
     /tmp/ccbaUYCt.s:4552   .debug_str:00000000000003f5 .LASF0
     /tmp/ccbaUYCt.s:4574   .debug_str:00000000000004b2 .LASF1
     /tmp/ccbaUYCt.s:4650   .debug_str:00000000000006ed .LASF2
     /tmp/ccbaUYCt.s:4660   .debug_str:000000000000073d .LASF4
     /tmp/ccbaUYCt.s:4554   .debug_str:0000000000000402 .LASF3
     /tmp/ccbaUYCt.s:4434   .debug_str:000000000000004d .LASF5
     /tmp/ccbaUYCt.s:4632   .debug_str:0000000000000651 .LASF6
     /tmp/ccbaUYCt.s:4622   .debug_str:0000000000000612 .LASF7
     /tmp/ccbaUYCt.s:4562   .debug_str:000000000000044e .LASF8
     /tmp/ccbaUYCt.s:4526   .debug_str:0000000000000332 .LASF9
     /tmp/ccbaUYCt.s:4534   .debug_str:0000000000000374 .LASF10
     /tmp/ccbaUYCt.s:4470   .debug_str:0000000000000184 .LASF11
     /tmp/ccbaUYCt.s:4512   .debug_str:00000000000002ee .LASF12
     /tmp/ccbaUYCt.s:4482   .debug_str:00000000000001d4 .LASF13
     /tmp/ccbaUYCt.s:4468   .debug_str:0000000000000174 .LASF14
     /tmp/ccbaUYCt.s:4696   .debug_str:000000000000081f .LASF15
     /tmp/ccbaUYCt.s:4700   .debug_str:0000000000000832 .LASF16
     /tmp/ccbaUYCt.s:4686   .debug_str:00000000000007d9 .LASF17
     /tmp/ccbaUYCt.s:4524   .debug_str:0000000000000328 .LASF19
     /tmp/ccbaUYCt.s:4544   .debug_str:00000000000003b6 .LASF52
     /tmp/ccbaUYCt.s:4774   .debug_str:0000000000000b14 .LASF174
     /tmp/ccbaUYCt.s:4666   .debug_str:0000000000000750 .LASF18
     /tmp/ccbaUYCt.s:4646   .debug_str:00000000000006ca .LASF28
     /tmp/ccbaUYCt.s:4508   .debug_str:00000000000002d4 .LASF47
     /tmp/ccbaUYCt.s:4704   .debug_str:0000000000000859 .LASF71
     /tmp/ccbaUYCt.s:4782   .debug_str:0000000000000b55 .LASF21
     /tmp/ccbaUYCt.s:4530   .debug_str:0000000000000358 .LASF23
     /tmp/ccbaUYCt.s:4428   .debug_str:0000000000000029 .LASF20
     /tmp/ccbaUYCt.s:4588   .debug_str:0000000000000506 .LASF116
     /tmp/ccbaUYCt.s:4662   .debug_str:0000000000000744 .LASF22
     /tmp/ccbaUYCt.s:4432   .debug_str:0000000000000041 .LASF24
     /tmp/ccbaUYCt.s:4694   .debug_str:0000000000000812 .LASF25
     /tmp/ccbaUYCt.s:4760   .debug_str:0000000000000a9f .LASF26
     /tmp/ccbaUYCt.s:4618   .debug_str:00000000000005fd .LASF88
     /tmp/ccbaUYCt.s:4492   .debug_str:0000000000000235 .LASF30
     /tmp/ccbaUYCt.s:4478   .debug_str:00000000000001b1 .LASF32
     /tmp/ccbaUYCt.s:4680   .debug_str:00000000000007c4 .LASF27
     /tmp/ccbaUYCt.s:4556   .debug_str:0000000000000414 .LASF29
     /tmp/ccbaUYCt.s:4600   .debug_str:0000000000000577 .LASF31
GAS LISTING /tmp/ccbaUYCt.s 			page 30


     /tmp/ccbaUYCt.s:4458   .debug_str:0000000000000103 .LASF33
     /tmp/ccbaUYCt.s:4706   .debug_str:0000000000000861 .LASF38
     /tmp/ccbaUYCt.s:4606   .debug_str:00000000000005a2 .LASF40
     /tmp/ccbaUYCt.s:4550   .debug_str:00000000000003ef .LASF34
     /tmp/ccbaUYCt.s:4436   .debug_str:0000000000000054 .LASF35
     /tmp/ccbaUYCt.s:4430   .debug_str:0000000000000039 .LASF36
     /tmp/ccbaUYCt.s:4616   .debug_str:00000000000005eb .LASF37
     /tmp/ccbaUYCt.s:4652   .debug_str:00000000000006fb .LASF39
     /tmp/ccbaUYCt.s:4462   .debug_str:000000000000013c .LASF41
     /tmp/ccbaUYCt.s:4580   .debug_str:00000000000004d1 .LASF42
     /tmp/ccbaUYCt.s:4744   .debug_str:0000000000000a3e .LASF43
     /tmp/ccbaUYCt.s:4714   .debug_str:0000000000000895 .LASF44
     /tmp/ccbaUYCt.s:4628   .debug_str:0000000000000635 .LASF45
     /tmp/ccbaUYCt.s:4452   .debug_str:00000000000000db .LASF46
     /tmp/ccbaUYCt.s:4516   .debug_str:000000000000030a .LASF48
     /tmp/ccbaUYCt.s:4768   .debug_str:0000000000000ae3 .LASF49
     /tmp/ccbaUYCt.s:4578   .debug_str:00000000000004cb .LASF50
     /tmp/ccbaUYCt.s:4658   .debug_str:000000000000072d .LASF51
     /tmp/ccbaUYCt.s:4770   .debug_str:0000000000000aef .LASF53
     /tmp/ccbaUYCt.s:4684   .debug_str:00000000000007d0 .LASF54
     /tmp/ccbaUYCt.s:4778   .debug_str:0000000000000b37 .LASF55
     /tmp/ccbaUYCt.s:4730   .debug_str:00000000000009dc .LASF56
     /tmp/ccbaUYCt.s:4426   .debug_str:0000000000000024 .LASF57
     /tmp/ccbaUYCt.s:4612   .debug_str:00000000000005c3 .LASF58
     /tmp/ccbaUYCt.s:4724   .debug_str:00000000000009b0 .LASF59
     /tmp/ccbaUYCt.s:4466   .debug_str:0000000000000169 .LASF175
     /tmp/ccbaUYCt.s:4440   .debug_str:0000000000000085 .LASF176
     /tmp/ccbaUYCt.s:4572   .debug_str:00000000000004a1 .LASF152
     /tmp/ccbaUYCt.s:4734   .debug_str:00000000000009f9 .LASF154
     /tmp/ccbaUYCt.s:4630   .debug_str:0000000000000642 .LASF177
     /tmp/ccbaUYCt.s:4484   .debug_str:00000000000001e4 .LASF178
     /tmp/ccbaUYCt.s:4752   .debug_str:0000000000000a73 .LASF60
     /tmp/ccbaUYCt.s:4742   .debug_str:0000000000000a39 .LASF179
     /tmp/ccbaUYCt.s:4692   .debug_str:000000000000080d .LASF61
     /tmp/ccbaUYCt.s:4608   .debug_str:00000000000005b9 .LASF62
     /tmp/ccbaUYCt.s:4604   .debug_str:000000000000059d .LASF63
     /tmp/ccbaUYCt.s:4688   .debug_str:00000000000007ef .LASF64
     /tmp/ccbaUYCt.s:4568   .debug_str:0000000000000489 .LASF65
     /tmp/ccbaUYCt.s:4460   .debug_str:000000000000011f .LASF66
     /tmp/ccbaUYCt.s:4674   .debug_str:000000000000079c .LASF67
     /tmp/ccbaUYCt.s:4560   .debug_str:0000000000000431 .LASF68
     /tmp/ccbaUYCt.s:4486   .debug_str:00000000000001ff .LASF69
     /tmp/ccbaUYCt.s:4620   .debug_str:0000000000000602 .LASF70
     /tmp/ccbaUYCt.s:4514   .debug_str:00000000000002fd .LASF72
     /tmp/ccbaUYCt.s:4472   .debug_str:0000000000000193 .LASF73
     /tmp/ccbaUYCt.s:4446   .debug_str:00000000000000ba .LASF74
     /tmp/ccbaUYCt.s:4636   .debug_str:0000000000000670 .LASF75
     /tmp/ccbaUYCt.s:4614   .debug_str:00000000000005cb .LASF76
     /tmp/ccbaUYCt.s:4596   .debug_str:000000000000054c .LASF77
     /tmp/ccbaUYCt.s:4438   .debug_str:0000000000000064 .LASF78
     /tmp/ccbaUYCt.s:4546   .debug_str:00000000000003ce .LASF79
     /tmp/ccbaUYCt.s:4598   .debug_str:0000000000000556 .LASF80
     /tmp/ccbaUYCt.s:4566   .debug_str:000000000000047a .LASF81
     /tmp/ccbaUYCt.s:4668   .debug_str:0000000000000758 .LASF82
     /tmp/ccbaUYCt.s:4510   .debug_str:00000000000002da .LASF83
     /tmp/ccbaUYCt.s:4504   .debug_str:00000000000002a0 .LASF84
     /tmp/ccbaUYCt.s:4444   .debug_str:00000000000000a1 .LASF85
GAS LISTING /tmp/ccbaUYCt.s 			page 31


     /tmp/ccbaUYCt.s:4590   .debug_str:0000000000000513 .LASF86
     /tmp/ccbaUYCt.s:4502   .debug_str:000000000000026a .LASF87
     /tmp/ccbaUYCt.s:4788   .debug_str:0000000000000b71 .LASF89
     /tmp/ccbaUYCt.s:4644   .debug_str:00000000000006c5 .LASF90
     /tmp/ccbaUYCt.s:4494   .debug_str:000000000000023e .LASF91
     /tmp/ccbaUYCt.s:4776   .debug_str:0000000000000b28 .LASF92
     /tmp/ccbaUYCt.s:4698   .debug_str:000000000000082b .LASF93
     /tmp/ccbaUYCt.s:4702   .debug_str:0000000000000848 .LASF94
     /tmp/ccbaUYCt.s:4610   .debug_str:00000000000005be .LASF95
     /tmp/ccbaUYCt.s:4740   .debug_str:0000000000000a2a .LASF96
     /tmp/ccbaUYCt.s:4442   .debug_str:000000000000009b .LASF97
     /tmp/ccbaUYCt.s:4450   .debug_str:00000000000000cb .LASF98
     /tmp/ccbaUYCt.s:4710   .debug_str:0000000000000871 .LASF99
     /tmp/ccbaUYCt.s:4754   .debug_str:0000000000000a7d .LASF100
     /tmp/ccbaUYCt.s:4736   .debug_str:0000000000000a16 .LASF101
     /tmp/ccbaUYCt.s:4766   .debug_str:0000000000000add .LASF102
     /tmp/ccbaUYCt.s:4474   .debug_str:0000000000000198 .LASF103
     /tmp/ccbaUYCt.s:4480   .debug_str:00000000000001c4 .LASF180
     /tmp/ccbaUYCt.s:4532   .debug_str:0000000000000364 .LASF181
     /tmp/ccbaUYCt.s:4558   .debug_str:0000000000000423 .LASF104
     /tmp/ccbaUYCt.s:4764   .debug_str:0000000000000ad6 .LASF105
     /tmp/ccbaUYCt.s:4536   .debug_str:0000000000000382 .LASF106
     /tmp/ccbaUYCt.s:4738   .debug_str:0000000000000a23 .LASF107
     /tmp/ccbaUYCt.s:4422   .debug_str:000000000000000b .LASF108
     /tmp/ccbaUYCt.s:4496   .debug_str:0000000000000243 .LASF109
     /tmp/ccbaUYCt.s:4576   .debug_str:00000000000004c5 .LASF110
     /tmp/ccbaUYCt.s:4786   .debug_str:0000000000000b6b .LASF111
     /tmp/ccbaUYCt.s:4424   .debug_str:000000000000001e .LASF112
     /tmp/ccbaUYCt.s:4708   .debug_str:000000000000086c .LASF113
     /tmp/ccbaUYCt.s:4756   .debug_str:0000000000000a84 .LASF114
     /tmp/ccbaUYCt.s:4642   .debug_str:00000000000006bb .LASF115
     /tmp/ccbaUYCt.s:4500   .debug_str:0000000000000254 .LASF117
     /tmp/ccbaUYCt.s:4784   .debug_str:0000000000000b62 .LASF118
     /tmp/ccbaUYCt.s:4672   .debug_str:0000000000000787 .LASF119
     /tmp/ccbaUYCt.s:4456   .debug_str:00000000000000fa .LASF120
     /tmp/ccbaUYCt.s:4762   .debug_str:0000000000000ac1 .LASF121
     /tmp/ccbaUYCt.s:4654   .debug_str:0000000000000705 .LASF122
     /tmp/ccbaUYCt.s:4564   .debug_str:0000000000000461 .LASF123
     /tmp/ccbaUYCt.s:4448   .debug_str:00000000000000bf .LASF124
     /tmp/ccbaUYCt.s:4490   .debug_str:000000000000021c .LASF125
     /tmp/ccbaUYCt.s:4690   .debug_str:0000000000000802 .LASF126
     /tmp/ccbaUYCt.s:4464   .debug_str:0000000000000151 .LASF127
     /tmp/ccbaUYCt.s:4538   .debug_str:0000000000000390 .LASF128
     /tmp/ccbaUYCt.s:4594   .debug_str:0000000000000536 .LASF129
     /tmp/ccbaUYCt.s:4420   .debug_str:0000000000000000 .LASF130
     /tmp/ccbaUYCt.s:4712   .debug_str:000000000000087d .LASF131
     /tmp/ccbaUYCt.s:4648   .debug_str:00000000000006e2 .LASF132
     /tmp/ccbaUYCt.s:4780   .debug_str:0000000000000b3d .LASF133
     /tmp/ccbaUYCt.s:4664   .debug_str:0000000000000749 .LASF134
     /tmp/ccbaUYCt.s:4476   .debug_str:000000000000019e .LASF135
     /tmp/ccbaUYCt.s:4682   .debug_str:00000000000007c9 .LASF136
     /tmp/ccbaUYCt.s:4584   .debug_str:00000000000004e4 .LASF137
     /tmp/ccbaUYCt.s:4520   .debug_str:0000000000000314 .LASF138
     /tmp/ccbaUYCt.s:4720   .debug_str:0000000000000975 .LASF139
     /tmp/ccbaUYCt.s:4570   .debug_str:0000000000000492 .LASF140
     /tmp/ccbaUYCt.s:4656   .debug_str:0000000000000711 .LASF141
     /tmp/ccbaUYCt.s:4542   .debug_str:00000000000003ab .LASF142
GAS LISTING /tmp/ccbaUYCt.s 			page 32


     /tmp/ccbaUYCt.s:4548   .debug_str:00000000000003d7 .LASF143
     /tmp/ccbaUYCt.s:4676   .debug_str:00000000000007a7 .LASF144
     /tmp/ccbaUYCt.s:4722   .debug_str:000000000000098d .LASF145
     /tmp/ccbaUYCt.s:4626   .debug_str:000000000000062a .LASF146
     /tmp/ccbaUYCt.s:4726   .debug_str:00000000000009ba .LASF147
     /tmp/ccbaUYCt.s:4678   .debug_str:00000000000007bd .LASF148
     /tmp/ccbaUYCt.s:4670   .debug_str:000000000000077f .LASF149
     /tmp/ccbaUYCt.s:4582   .debug_str:00000000000004de .LASF150
     /tmp/ccbaUYCt.s:4750   .debug_str:0000000000000a6e .LASF153
     /tmp/ccbaUYCt.s:4728   .debug_str:00000000000009d2 .LASF151
     /tmp/ccbaUYCt.s:4634   .debug_str:0000000000000658 .LASF155
     /tmp/ccbaUYCt.s:4732   .debug_str:00000000000009e4 .LASF156
     /tmp/ccbaUYCt.s:4506   .debug_str:00000000000002cc .LASF157
     /tmp/ccbaUYCt.s:4718   .debug_str:0000000000000961 .LASF158
     /tmp/ccbaUYCt.s:4454   .debug_str:00000000000000e6 .LASF159
     /tmp/ccbaUYCt.s:4540   .debug_str:000000000000039a .LASF160
     /tmp/ccbaUYCt.s:4592   .debug_str:000000000000051f .LASF161
     /tmp/ccbaUYCt.s:4602   .debug_str:0000000000000588 .LASF162
     /tmp/ccbaUYCt.s:4528   .debug_str:0000000000000342 .LASF163
     /tmp/ccbaUYCt.s:796    .text:0000000000000500 .LFE42
     /tmp/ccbaUYCt.s:578    .text:0000000000000350 .LBB51
     /tmp/ccbaUYCt.s:591    .text:0000000000000368 .LBE51
     /tmp/ccbaUYCt.s:3970   .debug_loc:0000000000000000 .LLST16
     /tmp/ccbaUYCt.s:583    .text:0000000000000358 .LVL49
     /tmp/ccbaUYCt.s:586    .text:0000000000000364 .LVL50
     /tmp/ccbaUYCt.s:592    .text:0000000000000368 .LBB53
     /tmp/ccbaUYCt.s:641    .text:00000000000003d0 .LBE53
     /tmp/ccbaUYCt.s:3979   .debug_loc:0000000000000025 .LLST17
     /tmp/ccbaUYCt.s:4008   .debug_loc:000000000000009c .LLST18
     /tmp/ccbaUYCt.s:4021   .debug_loc:00000000000000d4 .LLST19
     /tmp/ccbaUYCt.s:4036   .debug_loc:000000000000011c .LLST20
     /tmp/ccbaUYCt.s:630    .text:00000000000003c4 .LVL53
     /tmp/ccbaUYCt.s:664    .text:0000000000000408 .LBB55
     /tmp/ccbaUYCt.s:677    .text:0000000000000420 .LBE55
     /tmp/ccbaUYCt.s:4047   .debug_loc:0000000000000152 .LLST21
     /tmp/ccbaUYCt.s:669    .text:0000000000000410 .LVL60
     /tmp/ccbaUYCt.s:672    .text:000000000000041c .LVL61
     /tmp/ccbaUYCt.s:678    .text:0000000000000420 .LBB57
     /tmp/ccbaUYCt.s:724    .text:000000000000047c .LBE57
     /tmp/ccbaUYCt.s:4056   .debug_loc:0000000000000177 .LLST22
     /tmp/ccbaUYCt.s:4085   .debug_loc:00000000000001ee .LLST23
     /tmp/ccbaUYCt.s:4098   .debug_loc:0000000000000226 .LLST24
     /tmp/ccbaUYCt.s:4113   .debug_loc:000000000000026e .LLST25
     /tmp/ccbaUYCt.s:713    .text:0000000000000470 .LVL64
     /tmp/ccbaUYCt.s:760    .text:00000000000004bc .LBB59
     /tmp/ccbaUYCt.s:778    .text:00000000000004e0 .LBE59
     /tmp/ccbaUYCt.s:4124   .debug_loc:00000000000002a4 .LLST26
     /tmp/ccbaUYCt.s:765    .text:00000000000004c4 .LVL69
     /tmp/ccbaUYCt.s:768    .text:00000000000004d0 .LVL70
     /tmp/ccbaUYCt.s:779    .text:00000000000004e0 .LBB61
     /tmp/ccbaUYCt.s:794    .text:0000000000000500 .LBE61
     /tmp/ccbaUYCt.s:4131   .debug_loc:00000000000002c7 .LLST27
     /tmp/ccbaUYCt.s:784    .text:00000000000004e8 .LVL73
     /tmp/ccbaUYCt.s:787    .text:00000000000004f4 .LVL74
     /tmp/ccbaUYCt.s:572    .text:0000000000000340 .LVL46
     /tmp/ccbaUYCt.s:575    .text:000000000000034c .LVL47
     /tmp/ccbaUYCt.s:654    .text:00000000000003f0 .LVL56
GAS LISTING /tmp/ccbaUYCt.s 			page 33


     /tmp/ccbaUYCt.s:658    .text:00000000000003f8 .LVL57
     /tmp/ccbaUYCt.s:661    .text:0000000000000404 .LVL58
     /tmp/ccbaUYCt.s:772    .text:00000000000004dc .LVL71
     /tmp/ccbaUYCt.s:791    .text:0000000000000500 .LVL75
     /tmp/ccbaUYCt.s:10     .text:0000000000000000 .LFB41
     /tmp/ccbaUYCt.s:26     .text:0000000000000010 .LFE41
     /tmp/ccbaUYCt.s:32     .text:0000000000000010 .LFB40
     /tmp/ccbaUYCt.s:88     .text:0000000000000078 .LFE40
     /tmp/ccbaUYCt.s:4138   .debug_loc:00000000000002ea .LLST0
     /tmp/ccbaUYCt.s:49     .text:0000000000000024 .LBB28
     /tmp/ccbaUYCt.s:86     .text:0000000000000078 .LBE28
     /tmp/ccbaUYCt.s:4748   .debug_str:0000000000000a67 .LASF164
     /tmp/ccbaUYCt.s:66     .text:0000000000000048 .LBB29
     /tmp/ccbaUYCt.s:83     .text:0000000000000074 .LBE29
     /tmp/ccbaUYCt.s:72     .text:000000000000005c .LVL3
     /tmp/ccbaUYCt.s:484    .text:00000000000002c4 .LFB39
     /tmp/ccbaUYCt.s:541    .text:0000000000000318 .LFE39
     /tmp/ccbaUYCt.s:4624   .debug_str:0000000000000625 .LASF165
     /tmp/ccbaUYCt.s:4152   .debug_loc:0000000000000323 .LLST14
     /tmp/ccbaUYCt.s:504    .text:00000000000002e4 .LBB49
     /tmp/ccbaUYCt.s:512    .text:00000000000002ec .LBE49
     /tmp/ccbaUYCt.s:4181   .debug_loc:0000000000000398 .LLST15
     /tmp/ccbaUYCt.s:516    .text:00000000000002f4 .LVL42
     /tmp/ccbaUYCt.s:520    .text:00000000000002fc .LVL43
     /tmp/ccbaUYCt.s:437    .text:0000000000000278 .LFB38
     /tmp/ccbaUYCt.s:478    .text:00000000000002c4 .LFE38
     /tmp/ccbaUYCt.s:451    .text:0000000000000290 .LVL35
     /tmp/ccbaUYCt.s:455    .text:0000000000000298 .LVL36
     /tmp/ccbaUYCt.s:467    .text:00000000000002b4 .LVL38
     /tmp/ccbaUYCt.s:379    .text:000000000000022c .LFB37
     /tmp/ccbaUYCt.s:431    .text:0000000000000278 .LFE37
     /tmp/ccbaUYCt.s:386    .text:0000000000000234 .LBB47
     /tmp/ccbaUYCt.s:393    .text:0000000000000238 .LBE47
     /tmp/ccbaUYCt.s:4188   .debug_loc:00000000000003bb .LLST13
     /tmp/ccbaUYCt.s:412    .text:000000000000025c .LVL34
     /tmp/ccbaUYCt.s:270    .text:000000000000017c .LFB36
     /tmp/ccbaUYCt.s:373    .text:000000000000022c .LFE36
     /tmp/ccbaUYCt.s:4195   .debug_loc:00000000000003de .LLST10
     /tmp/ccbaUYCt.s:290    .text:000000000000019c .LBB43
     /tmp/ccbaUYCt.s:297    .text:00000000000001a0 .LBE43
     /tmp/ccbaUYCt.s:4206   .debug_loc:0000000000000414 .LLST11
     /tmp/ccbaUYCt.s:301    .text:00000000000001a4 .LBB45
     /tmp/ccbaUYCt.s:308    .text:00000000000001a8 .LBE45
     /tmp/ccbaUYCt.s:4213   .debug_loc:0000000000000437 .LLST12
     /tmp/ccbaUYCt.s:319    .text:00000000000001bc .LVL26
     /tmp/ccbaUYCt.s:332    .text:00000000000001dc .LVL27
     /tmp/ccbaUYCt.s:340    .text:00000000000001f0 .LVL28
     /tmp/ccbaUYCt.s:363    .text:0000000000000214 .LVL31
     /tmp/ccbaUYCt.s:244    .text:000000000000017c .LFE35
     /tmp/ccbaUYCt.s:4220   .debug_loc:000000000000045a .LLST1
     /tmp/ccbaUYCt.s:4242   .debug_loc:00000000000004b9 .LLST2
     /tmp/ccbaUYCt.s:4264   .debug_loc:0000000000000518 .LLST3
     /tmp/ccbaUYCt.s:121    .text:00000000000000a4 .LBB37
     /tmp/ccbaUYCt.s:136    .text:00000000000000bc .LBE37
     /tmp/ccbaUYCt.s:4303   .debug_loc:00000000000005b5 .LLST4
     /tmp/ccbaUYCt.s:128    .text:00000000000000ac .LVL6
     /tmp/ccbaUYCt.s:131    .text:00000000000000b8 .LVL7
GAS LISTING /tmp/ccbaUYCt.s 			page 34


     /tmp/ccbaUYCt.s:137    .text:00000000000000bc .LBB39
     /tmp/ccbaUYCt.s:199    .text:0000000000000134 .LBE39
     /tmp/ccbaUYCt.s:4312   .debug_loc:00000000000005da .LLST5
     /tmp/ccbaUYCt.s:4347   .debug_loc:0000000000000664 .LLST6
     /tmp/ccbaUYCt.s:4365   .debug_loc:00000000000006b0 .LLST7
     /tmp/ccbaUYCt.s:4383   .debug_loc:00000000000006fc .LLST8
     /tmp/ccbaUYCt.s:179    .text:0000000000000118 .LVL10
     /tmp/ccbaUYCt.s:227    .text:000000000000015c .LBB41
     /tmp/ccbaUYCt.s:242    .text:000000000000017c .LBE41
     /tmp/ccbaUYCt.s:4398   .debug_loc:0000000000000745 .LLST9
     /tmp/ccbaUYCt.s:232    .text:0000000000000164 .LVL19
     /tmp/ccbaUYCt.s:235    .text:0000000000000170 .LVL20
     /tmp/ccbaUYCt.s:239    .text:000000000000017c .LVL21
     /tmp/ccbaUYCt.s:4518   .debug_str:000000000000030f .LASF167
     /tmp/ccbaUYCt.s:4522   .debug_str:000000000000031f .LASF166
     /tmp/ccbaUYCt.s:4640   .debug_str:00000000000006a5 .LASF182
     /tmp/ccbaUYCt.s:4772   .debug_str:0000000000000b05 .LASF183
     /tmp/ccbaUYCt.s:4488   .debug_str:0000000000000204 .LASF184
     /tmp/ccbaUYCt.s:4758   .debug_str:0000000000000a8a .LASF168
     /tmp/ccbaUYCt.s:4746   .debug_str:0000000000000a57 .LASF170
     /tmp/ccbaUYCt.s:4586   .debug_str:00000000000004f7 .LASF169
     /tmp/ccbaUYCt.s:577    .text:0000000000000350 .LVL48
     /tmp/ccbaUYCt.s:589    .text:0000000000000368 .LVL51
     /tmp/ccbaUYCt.s:605    .text:0000000000000388 .LVL52
     /tmp/ccbaUYCt.s:633    .text:00000000000003c8 .LVL54
     /tmp/ccbaUYCt.s:638    .text:00000000000003d0 .LVL55
     /tmp/ccbaUYCt.s:755    .text:00000000000004b8 .LVL67
     /tmp/ccbaUYCt.s:759    .text:00000000000004bc .LVL68
     /tmp/ccbaUYCt.s:663    .text:0000000000000408 .LVL59
     /tmp/ccbaUYCt.s:675    .text:0000000000000420 .LVL62
     /tmp/ccbaUYCt.s:688    .text:0000000000000438 .LVL63
     /tmp/ccbaUYCt.s:716    .text:0000000000000474 .LVL65
     /tmp/ccbaUYCt.s:721    .text:000000000000047c .LVL66
     /tmp/ccbaUYCt.s:776    .text:00000000000004e0 .LVL72
     /tmp/ccbaUYCt.s:35     .text:0000000000000010 .LVL1
     /tmp/ccbaUYCt.s:46     .text:0000000000000024 .LVL2
     /tmp/ccbaUYCt.s:487    .text:00000000000002c4 .LVL39
     /tmp/ccbaUYCt.s:503    .text:00000000000002e4 .LVL40
     /tmp/ccbaUYCt.s:533    .text:0000000000000310 .LVL44
     /tmp/ccbaUYCt.s:537    .text:0000000000000314 .LVL45
     /tmp/ccbaUYCt.s:510    .text:00000000000002ec .LVL41
     /tmp/ccbaUYCt.s:385    .text:0000000000000234 .LVL32
     /tmp/ccbaUYCt.s:391    .text:0000000000000238 .LVL33
     /tmp/ccbaUYCt.s:288    .text:000000000000019c .LVL22
     /tmp/ccbaUYCt.s:350    .text:00000000000001fc .LVL29
     /tmp/ccbaUYCt.s:356    .text:0000000000000208 .LVL30
     /tmp/ccbaUYCt.s:295    .text:00000000000001a0 .LVL23
     /tmp/ccbaUYCt.s:300    .text:00000000000001a4 .LVL24
     /tmp/ccbaUYCt.s:306    .text:00000000000001a8 .LVL25
     /tmp/ccbaUYCt.s:99     .text:0000000000000078 .LVL4
     /tmp/ccbaUYCt.s:215    .text:000000000000014c .LVL15
     /tmp/ccbaUYCt.s:222    .text:0000000000000158 .LVL17
     /tmp/ccbaUYCt.s:218    .text:0000000000000150 .LVL16
     /tmp/ccbaUYCt.s:154    .text:00000000000000e4 .LVL9
     /tmp/ccbaUYCt.s:182    .text:000000000000011c .LVL11
     /tmp/ccbaUYCt.s:190    .text:0000000000000128 .LVL12
     /tmp/ccbaUYCt.s:196    .text:0000000000000134 .LVL13
GAS LISTING /tmp/ccbaUYCt.s 			page 35


     /tmp/ccbaUYCt.s:120    .text:00000000000000a4 .LVL5
     /tmp/ccbaUYCt.s:134    .text:00000000000000bc .LVL8
     /tmp/ccbaUYCt.s:210    .text:0000000000000144 .LVL14
     /tmp/ccbaUYCt.s:226    .text:000000000000015c .LVL18
     /tmp/ccbaUYCt.s:864    .debug_info:0000000000000000 .Ldebug_info0
     /tmp/ccbaUYCt.s:247    .gcc_except_table:0000000000000000 .LLSDA35
     /tmp/ccbaUYCt.s:798    .gcc_except_table:000000000000002b .LLSDA42

UNDEFINED SYMBOLS
CONSOLE_STATUS
_ZN5Riscv7OUTbuffE
_ZN5BBuff3getEv
CONSOLE_TX_DATA
_ZN15MemoryAllocator8InstanceEv
_ZN15MemoryAllocator9mem_allocEm
_ZN9Scheduler3putEP3TCB
_ZN15MemoryAllocator8mem_freeEPv
_Unwind_Resume
__gxx_personality_v0
_ZN9Scheduler3getEv
_ZN5Riscv10restoreSPPEv
context_switch
_Z15thread_dispatchv
_ZN5Riscv10popSppSpieEv
_ZN5SList3addEP3TCBm
