GAS LISTING /tmp/ccwIYAO0.s 			page 1


   1              		.file	"TCB.cpp"
   2              		.option pic
   3              		.option norelax
   4              		.text
   5              	.Ltext0:
   6              		.align	2
   7              		.globl	_ZN3TCB12createThreadEPFvPvES0_Pm
   9              	_ZN3TCB12createThreadEPFvPvES0_Pm:
  10              	.LFB29:
  11              		.file 1 "src/TCB.cpp"
   1:src/TCB.cpp   **** #include "../h/TCB.hpp"
   2:src/TCB.cpp   **** #include "../h/Scheduler.hpp"
   3:src/TCB.cpp   **** #include  "../h/print.hpp"
   4:src/TCB.cpp   **** #include "../h/syscall_c.hpp"
   5:src/TCB.cpp   **** 
   6:src/TCB.cpp   **** extern "C" void context_switch(TCB::Context* oldContext, TCB::Context* newContext);
   7:src/TCB.cpp   **** 
   8:src/TCB.cpp   **** TCB* TCB::running=nullptr;
   9:src/TCB.cpp   **** 
  10:src/TCB.cpp   **** TCB* TCB::createThread(Body body, void *arg, uint64 *stack) {
  12              		.loc 1 10 61
  13              		.cfi_startproc
  14              		.cfi_personality 0x9b,DW.ref.__gxx_personality_v0
  15              		.cfi_lsda 0x1b,.LLSDA29
  16              	.LVL0:
  17 0000 130101FD 		addi	sp,sp,-48
  18              		.cfi_def_cfa_offset 48
  19 0004 23341102 		sd	ra,40(sp)
  20 0008 23308102 		sd	s0,32(sp)
  21 000c 233C9100 		sd	s1,24(sp)
  22 0010 23382101 		sd	s2,16(sp)
  23 0014 23343101 		sd	s3,8(sp)
  24 0018 23304101 		sd	s4,0(sp)
  25              		.cfi_offset 1, -8
  26              		.cfi_offset 8, -16
  27              		.cfi_offset 9, -24
  28              		.cfi_offset 18, -32
  29              		.cfi_offset 19, -40
  30              		.cfi_offset 20, -48
  31 001c 13040103 		addi	s0,sp,48
  32              		.cfi_def_cfa 8, 0
  33 0020 93090500 		mv	s3,a0
  34 0024 138A0500 		mv	s4,a1
  35 0028 13090600 		mv	s2,a2
  11:src/TCB.cpp   ****     return new TCB(body, arg, stack);
  36              		.loc 1 11 5
  37              	.LVL1:
  38              	.LBB19:
  39              	.LBB20:
  40              		.file 2 "src/../h/TCB.hpp"
   1:src/../h/TCB.hpp **** //
   2:src/../h/TCB.hpp **** // Created by os on 9/23/25.
   3:src/../h/TCB.hpp **** //
   4:src/../h/TCB.hpp **** 
   5:src/../h/TCB.hpp **** #ifndef PROJECT_BASE_V1_1_COPY_TCB_HPP
   6:src/../h/TCB.hpp **** #define PROJECT_BASE_V1_1_COPY_TCB_HPP
   7:src/../h/TCB.hpp **** #include "../lib/hw.h"
GAS LISTING /tmp/ccwIYAO0.s 			page 2


   8:src/../h/TCB.hpp **** #include "../h/Scheduler.hpp"
   9:src/../h/TCB.hpp **** #include "../h/Riscv.hpp"
  10:src/../h/TCB.hpp **** #include "../h/MemoryAllocator.hpp"
  11:src/../h/TCB.hpp **** 
  12:src/../h/TCB.hpp **** class TCB
  13:src/../h/TCB.hpp **** {
  14:src/../h/TCB.hpp **** public:
  15:src/../h/TCB.hpp ****     void* operator new(size_t size)
  16:src/../h/TCB.hpp **** {
  17:src/../h/TCB.hpp ****     return MemoryAllocator::Instance()->mem_alloc(size);
  41              		.loc 2 17 5
  42              	.LEHB0:
  43              		.loc 2 17 50 is_stmt 0
  44 002c 97000000 		call	_ZN15MemoryAllocator8InstanceEv@plt
  44      E7800000 
  45              	.LVL2:
  46 0034 93058003 		li	a1,56
  47 0038 97000000 		call	_ZN15MemoryAllocator9mem_allocEm@plt
  47      E7800000 
  48              	.LVL3:
  49              	.LEHE0:
  50 0040 93040500 		mv	s1,a0
  51              	.LVL4:
  52              	.LBE20:
  53              	.LBE19:
  54              	.LBB21:
  55              	.LBB22:
  18:src/../h/TCB.hpp **** }
  19:src/../h/TCB.hpp **** 
  20:src/../h/TCB.hpp ****     void operator delete(void* ptr)
  21:src/../h/TCB.hpp ****     {
  22:src/../h/TCB.hpp ****         return MemoryAllocator::Instance()->mem_free(ptr);
  23:src/../h/TCB.hpp ****     }
  24:src/../h/TCB.hpp **** 
  25:src/../h/TCB.hpp **** 
  26:src/../h/TCB.hpp ****     using Body=void(*)(void*);
  27:src/../h/TCB.hpp **** 
  28:src/../h/TCB.hpp ****     ~TCB()
  29:src/../h/TCB.hpp ****     {
  30:src/../h/TCB.hpp ****         delete stack;
  31:src/../h/TCB.hpp ****     }
  32:src/../h/TCB.hpp **** 
  33:src/../h/TCB.hpp ****     static TCB* createThread(Body body, void* arg, uint64* stack);
  34:src/../h/TCB.hpp **** 
  35:src/../h/TCB.hpp ****     static void dispatch();
  36:src/../h/TCB.hpp ****     static int exit();
  37:src/../h/TCB.hpp **** 
  38:src/../h/TCB.hpp ****     bool isFinished() const { return finished;}
  39:src/../h/TCB.hpp **** 
  40:src/../h/TCB.hpp ****     void block() { this->blocked = true; }
  41:src/../h/TCB.hpp ****     void unblock() { this->blocked = false; }
  42:src/../h/TCB.hpp ****     bool isBlocked() const { return blocked; }
  43:src/../h/TCB.hpp **** 
  44:src/../h/TCB.hpp **** 
  45:src/../h/TCB.hpp **** 
  46:src/../h/TCB.hpp ****     static TCB* running;
  47:src/../h/TCB.hpp **** 
GAS LISTING /tmp/ccwIYAO0.s 			page 3


  48:src/../h/TCB.hpp ****     struct Context
  49:src/../h/TCB.hpp ****     {
  50:src/../h/TCB.hpp ****         uint64 ra;
  51:src/../h/TCB.hpp ****         uint64 sp;
  52:src/../h/TCB.hpp ****     };
  53:src/../h/TCB.hpp **** 
  54:src/../h/TCB.hpp **** private:
  55:src/../h/TCB.hpp ****     TCB(Body body, void* arg, uint64* stackMem)
  56:src/../h/TCB.hpp ****         : finished(false),
  57:src/../h/TCB.hpp ****           stack(stackMem),
  58:src/../h/TCB.hpp ****           arg(arg),   // now in correct order
  59:src/../h/TCB.hpp ****           context({
  60:src/../h/TCB.hpp ****               body != nullptr ? (uint64)&TCBWrapper : 0,
  61:src/../h/TCB.hpp ****               body != nullptr ? (uint64)((char*)stackMem + DEFAULT_STACK_SIZE) : 0
  62:src/../h/TCB.hpp ****           }),
  63:src/../h/TCB.hpp ****           body(body)
  56              		.loc 2 63 20
  57 0044 23000500 		sb	zero,0(a0)
  58 0048 23342501 		sd	s2,8(a0)
  59 004c 23384501 		sd	s4,16(a0)
  60:src/../h/TCB.hpp ****               body != nullptr ? (uint64)((char*)stackMem + DEFAULT_STACK_SIZE) : 0
  60              		.loc 2 60 31
  61 0050 63820904 		beqz	s3,.L7
  62 0054 97070000 		lla	a5,_ZN3TCB10TCBWrapperEv
  62      93870700 
  63              	.L2:
  64              		.loc 2 63 20
  65 005c 23B0F402 		sd	a5,32(s1)
  61:src/../h/TCB.hpp ****           }),
  66              		.loc 2 61 31
  67 0060 638E0902 		beqz	s3,.L8
  61:src/../h/TCB.hpp ****           }),
  68              		.loc 2 61 58
  69 0064 37160000 		li	a2,4096
  70 0068 3309C900 		add	s2,s2,a2
  71              	.LVL5:
  72              	.L3:
  73              		.loc 2 63 20
  74 006c 23B42403 		sd	s2,40(s1)
  75 0070 23B83403 		sd	s3,48(s1)
  64:src/../h/TCB.hpp ****     {
  65:src/../h/TCB.hpp ****         this->blocked = false;
  76              		.loc 2 65 9 is_stmt 1
  77              		.loc 2 65 23 is_stmt 0
  78 0074 238C0400 		sb	zero,24(s1)
  66:src/../h/TCB.hpp ****         if (running == nullptr) {
  79              		.loc 2 66 9 is_stmt 1
  80              		.loc 2 66 21 is_stmt 0
  81 0078 97070000 		ld	a5,.LANCHOR0
  81      83B70700 
  82              		.loc 2 66 9
  83 0080 63820702 		beqz	a5,.L11
  67:src/../h/TCB.hpp ****             running = this;
  68:src/../h/TCB.hpp ****         } else {
  69:src/../h/TCB.hpp ****             Scheduler::put(this);
  84              		.loc 2 69 13 is_stmt 1
  85              		.loc 2 69 27 is_stmt 0
GAS LISTING /tmp/ccwIYAO0.s 			page 4


  86 0084 13850400 		mv	a0,s1
  87              	.LEHB1:
  88 0088 97000000 		call	_ZN9Scheduler3putEP3TCB@plt
  88      E7800000 
  89              	.LVL6:
  90              	.LEHE1:
  91 0090 6F00C001 		j	.L1
  92              	.LVL7:
  93              	.L7:
  60:src/../h/TCB.hpp ****               body != nullptr ? (uint64)((char*)stackMem + DEFAULT_STACK_SIZE) : 0
  94              		.loc 2 60 31
  95 0094 93070000 		li	a5,0
  96 0098 6FF05FFC 		j	.L2
  97              	.L8:
  61:src/../h/TCB.hpp ****           }),
  98              		.loc 2 61 31
  99 009c 13090000 		li	s2,0
 100              	.LVL8:
 101 00a0 6FF0DFFC 		j	.L3
 102              	.L11:
  67:src/../h/TCB.hpp ****             running = this;
 103              		.loc 2 67 13 is_stmt 1
  67:src/../h/TCB.hpp ****             running = this;
 104              		.loc 2 67 21 is_stmt 0
 105 00a4 97070000 		sd	s1,.LANCHOR0,a5
 105      23B09700 
 106              	.LVL9:
 107              	.L1:
 108              	.LBE22:
 109              	.LBE21:
  12:src/TCB.cpp   **** }
 110              		.loc 1 12 1
 111 00ac 13850400 		mv	a0,s1
 112 00b0 83308102 		ld	ra,40(sp)
 113              		.cfi_remember_state
 114              		.cfi_restore 1
 115 00b4 03340102 		ld	s0,32(sp)
 116              		.cfi_restore 8
 117              		.cfi_def_cfa 2, 48
 118 00b8 83348101 		ld	s1,24(sp)
 119              		.cfi_restore 9
 120              	.LVL10:
 121 00bc 03390101 		ld	s2,16(sp)
 122              		.cfi_restore 18
 123 00c0 83398100 		ld	s3,8(sp)
 124              		.cfi_restore 19
 125              	.LVL11:
 126 00c4 033A0100 		ld	s4,0(sp)
 127              		.cfi_restore 20
 128              	.LVL12:
 129 00c8 13010103 		addi	sp,sp,48
 130              		.cfi_def_cfa_offset 0
 131 00cc 67800000 		jr	ra
 132              	.LVL13:
 133              	.L9:
 134              		.cfi_restore_state
 135 00d0 13090500 		mv	s2,a0
GAS LISTING /tmp/ccwIYAO0.s 			page 5


 136              	.LVL14:
 137              	.LBB23:
 138              	.LBB24:
  22:src/../h/TCB.hpp ****     }
 139              		.loc 2 22 9 is_stmt 1
  22:src/../h/TCB.hpp ****     }
 140              		.loc 2 22 53 is_stmt 0
 141 00d4 97000000 		call	_ZN15MemoryAllocator8InstanceEv@plt
 141      E7800000 
 142              	.LVL15:
 143 00dc 93850400 		mv	a1,s1
 144 00e0 97000000 		call	_ZN15MemoryAllocator8mem_freeEPv@plt
 144      E7800000 
 145              	.LVL16:
 146 00e8 13050900 		mv	a0,s2
 147              	.LEHB2:
 148 00ec 97000000 		call	_Unwind_Resume@plt
 148      E7800000 
 149              	.LVL17:
 150              	.LEHE2:
 151              	.LBE24:
 152              	.LBE23:
 153              		.cfi_endproc
 154              	.LFE29:
 155              		.globl	__gxx_personality_v0
 156              		.section	.gcc_except_table,"a",@progbits
 157              	.LLSDA29:
 158 0000 FF       		.byte	0xff
 159 0001 FF       		.byte	0xff
 160 0002 03       		.byte	0x3
 161 0003 27       		.byte	0x27
 162 0004 00000000 		.4byte	.LEHB0-.LFB29
 163 0008 00000000 		.4byte	.LEHE0-.LEHB0
 164 000c 00000000 		.4byte	0
 165 0010 00       		.byte	0
 166 0011 00000000 		.4byte	.LEHB1-.LFB29
 167 0015 00000000 		.4byte	.LEHE1-.LEHB1
 168 0019 00000000 		.4byte	.L9-.LFB29
 169 001d 00       		.byte	0
 170 001e 00000000 		.4byte	.LEHB2-.LFB29
 171 0022 00000000 		.4byte	.LEHE2-.LEHB2
 172 0026 00000000 		.4byte	0
 173 002a 00       		.byte	0
 174              		.text
 176              		.align	2
 177              		.globl	_ZN3TCB8dispatchEv
 179              	_ZN3TCB8dispatchEv:
 180              	.LFB30:
  13:src/TCB.cpp   **** 
  14:src/TCB.cpp   **** void TCB::dispatch() {
 181              		.loc 1 14 22 is_stmt 1
 182              		.cfi_startproc
 183 00f4 130101FE 		addi	sp,sp,-32
 184              		.cfi_def_cfa_offset 32
 185 00f8 233C1100 		sd	ra,24(sp)
 186 00fc 23388100 		sd	s0,16(sp)
 187 0100 23349100 		sd	s1,8(sp)
GAS LISTING /tmp/ccwIYAO0.s 			page 6


 188              		.cfi_offset 1, -8
 189              		.cfi_offset 8, -16
 190              		.cfi_offset 9, -24
 191 0104 13040102 		addi	s0,sp,32
 192              		.cfi_def_cfa 8, 0
  15:src/TCB.cpp   ****     //printString("TCB::dispatch()\n");
  16:src/TCB.cpp   ****     TCB *old=running;
 193              		.loc 1 16 5
 194              		.loc 1 16 10 is_stmt 0
 195 0108 97040000 		ld	s1,.LANCHOR0
 195      83B40400 
 196              	.LVL18:
  17:src/TCB.cpp   ****     if (!old->isFinished() && !old->isBlocked()) {
 197              		.loc 1 17 5 is_stmt 1
 198              	.LBB25:
 199              	.LBB26:
  38:src/../h/TCB.hpp **** 
 200              		.loc 2 38 31
  38:src/../h/TCB.hpp **** 
 201              		.loc 2 38 38 is_stmt 0
 202 0110 83C70400 		lbu	a5,0(s1)
 203              	.LVL19:
 204              	.LBE26:
 205              	.LBE25:
 206              		.loc 1 17 28
 207 0114 63960700 		bnez	a5,.L13
 208              	.LVL20:
 209              	.LBB27:
 210              	.LBB28:
  42:src/../h/TCB.hpp **** 
 211              		.loc 2 42 30 is_stmt 1
  42:src/../h/TCB.hpp **** 
 212              		.loc 2 42 37 is_stmt 0
 213 0118 83C78401 		lbu	a5,24(s1)
 214              	.LVL21:
 215              	.LBE28:
 216              	.LBE27:
 217              		.loc 1 17 28
 218 011c 638C0702 		beqz	a5,.L15
 219              	.L13:
  18:src/TCB.cpp   ****         Scheduler::put(old);
  19:src/TCB.cpp   ****     }
  20:src/TCB.cpp   ****     running=Scheduler::get();
 220              		.loc 1 20 5 is_stmt 1
 221              		.loc 1 20 27 is_stmt 0
 222 0120 97000000 		call	_ZN9Scheduler3getEv@plt
 222      E7800000 
 223              	.LVL22:
 224              		.loc 1 20 12
 225 0128 97070000 		sd	a0,.LANCHOR0,a5
 225      23B0A700 
  21:src/TCB.cpp   **** 
  22:src/TCB.cpp   **** 
  23:src/TCB.cpp   ****     //Riscv::restorePrivilege();
  24:src/TCB.cpp   ****     context_switch(&old->context, &running->context);
 226              		.loc 1 24 5 is_stmt 1
 227              		.loc 1 24 19 is_stmt 0
GAS LISTING /tmp/ccwIYAO0.s 			page 7


 228 0130 93050502 		addi	a1,a0,32
 229 0134 13850402 		addi	a0,s1,32
 230 0138 97000000 		call	context_switch@plt
 230      E7800000 
 231              	.LVL23:
  25:src/TCB.cpp   **** }
 232              		.loc 1 25 1
 233 0140 83308101 		ld	ra,24(sp)
 234              		.cfi_remember_state
 235              		.cfi_restore 1
 236 0144 03340101 		ld	s0,16(sp)
 237              		.cfi_restore 8
 238              		.cfi_def_cfa 2, 32
 239 0148 83348100 		ld	s1,8(sp)
 240              		.cfi_restore 9
 241              	.LVL24:
 242 014c 13010102 		addi	sp,sp,32
 243              		.cfi_def_cfa_offset 0
 244 0150 67800000 		jr	ra
 245              	.LVL25:
 246              	.L15:
 247              		.cfi_restore_state
  18:src/TCB.cpp   ****         Scheduler::put(old);
 248              		.loc 1 18 9 is_stmt 1
  18:src/TCB.cpp   ****         Scheduler::put(old);
 249              		.loc 1 18 23 is_stmt 0
 250 0154 13850400 		mv	a0,s1
 251 0158 97000000 		call	_ZN9Scheduler3putEP3TCB@plt
 251      E7800000 
 252              	.LVL26:
 253 0160 6FF01FFC 		j	.L13
 254              		.cfi_endproc
 255              	.LFE30:
 257              		.align	2
 258              		.globl	_ZN3TCB4exitEv
 260              	_ZN3TCB4exitEv:
 261              	.LFB31:
  26:src/TCB.cpp   **** 
  27:src/TCB.cpp   **** 
  28:src/TCB.cpp   **** 
  29:src/TCB.cpp   **** int TCB::exit() {
 262              		.loc 1 29 17 is_stmt 1
 263              		.cfi_startproc
  30:src/TCB.cpp   ****     if (running->isFinished()) {
 264              		.loc 1 30 5
 265              		.loc 1 30 28 is_stmt 0
 266 0164 97070000 		ld	a5,.LANCHOR0
 266      83B70700 
 267              	.LVL27:
 268              	.LBB29:
 269              	.LBB30:
  38:src/../h/TCB.hpp **** 
 270              		.loc 2 38 31 is_stmt 1
  38:src/../h/TCB.hpp **** 
 271              		.loc 2 38 38 is_stmt 0
 272 016c 03C70700 		lbu	a4,0(a5)
 273              	.LVL28:
GAS LISTING /tmp/ccwIYAO0.s 			page 8


 274              	.LBE30:
 275              	.LBE29:
 276              		.loc 1 30 5
 277 0170 631C0702 		bnez	a4,.L18
  29:src/TCB.cpp   ****     if (running->isFinished()) {
 278              		.loc 1 29 17
 279 0174 130101FF 		addi	sp,sp,-16
 280              		.cfi_def_cfa_offset 16
 281 0178 23341100 		sd	ra,8(sp)
 282 017c 23308100 		sd	s0,0(sp)
 283              		.cfi_offset 1, -8
 284              		.cfi_offset 8, -16
 285 0180 13040101 		addi	s0,sp,16
 286              		.cfi_def_cfa 8, 0
  31:src/TCB.cpp   ****         return -1;
  32:src/TCB.cpp   ****     }
  33:src/TCB.cpp   ****     running->finished=true;
 287              		.loc 1 33 5 is_stmt 1
 288              		.loc 1 33 22 is_stmt 0
 289 0184 13071000 		li	a4,1
 290 0188 2380E700 		sb	a4,0(a5)
  34:src/TCB.cpp   ****     thread_dispatch();
 291              		.loc 1 34 5 is_stmt 1
 292              		.loc 1 34 20 is_stmt 0
 293 018c 97000000 		call	_Z15thread_dispatchv@plt
 293      E7800000 
 294              	.LVL29:
  35:src/TCB.cpp   ****     return 0;
 295              		.loc 1 35 5 is_stmt 1
 296              		.loc 1 35 12 is_stmt 0
 297 0194 13050000 		li	a0,0
  36:src/TCB.cpp   **** }
 298              		.loc 1 36 1
 299 0198 83308100 		ld	ra,8(sp)
 300              		.cfi_restore 1
 301 019c 03340100 		ld	s0,0(sp)
 302              		.cfi_restore 8
 303              		.cfi_def_cfa 2, 16
 304 01a0 13010101 		addi	sp,sp,16
 305              		.cfi_def_cfa_offset 0
 306 01a4 67800000 		jr	ra
 307              	.L18:
  31:src/TCB.cpp   ****     }
 308              		.loc 1 31 17
 309 01a8 1305F0FF 		li	a0,-1
 310              		.loc 1 36 1
 311 01ac 67800000 		ret
 312              		.cfi_endproc
 313              	.LFE31:
 315              		.align	2
 316              		.globl	_ZN3TCB10TCBWrapperEv
 318              	_ZN3TCB10TCBWrapperEv:
 319              	.LFB32:
  37:src/TCB.cpp   **** 
  38:src/TCB.cpp   **** void TCB::TCBWrapper() {
 320              		.loc 1 38 24 is_stmt 1
 321              		.cfi_startproc
GAS LISTING /tmp/ccwIYAO0.s 			page 9


 322 01b0 130101FF 		addi	sp,sp,-16
 323              		.cfi_def_cfa_offset 16
 324 01b4 23341100 		sd	ra,8(sp)
 325 01b8 23308100 		sd	s0,0(sp)
 326              		.cfi_offset 1, -8
 327              		.cfi_offset 8, -16
 328 01bc 13040101 		addi	s0,sp,16
 329              		.cfi_def_cfa 8, 0
  39:src/TCB.cpp   ****     //printString("Entered wrapper\n");
  40:src/TCB.cpp   ****     //Riscv::restorePrivilege();
  41:src/TCB.cpp   ****     Riscv::popSppSpie();
 330              		.loc 1 41 5
 331              		.loc 1 41 22 is_stmt 0
 332 01c0 97000000 		call	_ZN5Riscv10popSppSpieEv@plt
 332      E7800000 
 333              	.LVL30:
  42:src/TCB.cpp   ****     running->body(running->arg);
 334              		.loc 1 42 5 is_stmt 1
 335              		.loc 1 42 14 is_stmt 0
 336 01c8 97070000 		ld	a5,.LANCHOR0
 336      83B70700 
 337 01d0 03B70703 		ld	a4,48(a5)
 338              		.loc 1 42 18
 339 01d4 03B50701 		ld	a0,16(a5)
 340 01d8 E7000700 		jalr	a4
 341              	.LVL31:
  43:src/TCB.cpp   ****     exit();
 342              		.loc 1 43 5 is_stmt 1
 343              		.loc 1 43 9 is_stmt 0
 344 01dc 97000000 		call	_ZN3TCB4exitEv
 344      E7800000 
 345              	.LVL32:
  44:src/TCB.cpp   **** }...
 346              		.loc 1 44 1
 347 01e4 83308100 		ld	ra,8(sp)
 348              		.cfi_restore 1
 349 01e8 03340100 		ld	s0,0(sp)
 350              		.cfi_restore 8
 351              		.cfi_def_cfa 2, 16
 352 01ec 13010101 		addi	sp,sp,16
 353              		.cfi_def_cfa_offset 0
 354 01f0 67800000 		jr	ra
 355              		.cfi_endproc
 356              	.LFE32:
 358              		.globl	_ZN3TCB7runningE
 359              		.bss
 360              		.align	3
 361              		.set	.LANCHOR0,. + 0
 364              	_ZN3TCB7runningE:
 365 0000 00000000 		.zero	8
 365      00000000 
 366              		.text
 367              	.Letext0:
 368              		.file 3 "src/../h/../lib/hw.h"
 369              		.file 4 "src/../h/../h/Scheduler.hpp"
 370              		.file 5 "src/../h/../h/List.hpp"
 371              		.file 6 "src/../h/../h/Riscv.hpp"
GAS LISTING /tmp/ccwIYAO0.s 			page 10


 372              		.file 7 "src/../h/../h/MemoryAllocator.hpp"
 373              		.file 8 "src/../h/syscall_c.hpp"
 2896              		.align	3
 2899              	DW.ref.__gxx_personality_v0:
 2900 0000 00000000 		.dword	__gxx_personality_v0
 2900      00000000 
 2901              		.ident	"GCC: (Ubuntu 9.4.0-1ubuntu1~20.04) 9.4.0"
 2902              		.section	.note.GNU-stack,"",@progbits
GAS LISTING /tmp/ccwIYAO0.s 			page 11


DEFINED SYMBOLS
                            *ABS*:0000000000000000 TCB.cpp
     /tmp/ccwIYAO0.s:9      .text:0000000000000000 _ZN3TCB12createThreadEPFvPvES0_Pm
     /tmp/ccwIYAO0.s:13     .text:0000000000000000 .L0 
     /tmp/ccwIYAO0.s:2899   .data.rel.local.DW.ref.__gxx_personality_v0:0000000000000000 DW.ref.__gxx_personality_v0
     /tmp/ccwIYAO0.s:17     .text:0000000000000000 .L0 
     /tmp/ccwIYAO0.s:18     .text:0000000000000004 .L0 
     /tmp/ccwIYAO0.s:25     .text:000000000000001c .L0 
     /tmp/ccwIYAO0.s:26     .text:000000000000001c .L0 
     /tmp/ccwIYAO0.s:27     .text:000000000000001c .L0 
     /tmp/ccwIYAO0.s:28     .text:000000000000001c .L0 
     /tmp/ccwIYAO0.s:29     .text:000000000000001c .L0 
     /tmp/ccwIYAO0.s:30     .text:000000000000001c .L0 
     /tmp/ccwIYAO0.s:32     .text:0000000000000020 .L0 
     /tmp/ccwIYAO0.s:41     .text:000000000000002c .L0 
     /tmp/ccwIYAO0.s:43     .text:000000000000002c .L0 
     /tmp/ccwIYAO0.s:44     .text:000000000000002c .L0 
     /tmp/ccwIYAO0.s:57     .text:0000000000000044 .L0 
     /tmp/ccwIYAO0.s:61     .text:0000000000000050 .L0 
     /tmp/ccwIYAO0.s:318    .text:00000000000001b0 _ZN3TCB10TCBWrapperEv
     /tmp/ccwIYAO0.s:65     .text:000000000000005c .L0 
     /tmp/ccwIYAO0.s:67     .text:0000000000000060 .L0 
     /tmp/ccwIYAO0.s:69     .text:0000000000000064 .L0 
     /tmp/ccwIYAO0.s:74     .text:000000000000006c .L0 
     /tmp/ccwIYAO0.s:77     .text:0000000000000074 .L0 
     /tmp/ccwIYAO0.s:78     .text:0000000000000074 .L0 
     /tmp/ccwIYAO0.s:80     .text:0000000000000078 .L0 
     /tmp/ccwIYAO0.s:81     .text:0000000000000078 .L0 
     /tmp/ccwIYAO0.s:83     .text:0000000000000080 .L0 
     /tmp/ccwIYAO0.s:85     .text:0000000000000084 .L0 
     /tmp/ccwIYAO0.s:86     .text:0000000000000084 .L0 
     /tmp/ccwIYAO0.s:95     .text:0000000000000094 .L0 
     /tmp/ccwIYAO0.s:99     .text:000000000000009c .L0 
     /tmp/ccwIYAO0.s:104    .text:00000000000000a4 .L0 
     /tmp/ccwIYAO0.s:105    .text:00000000000000a4 .L0 
     /tmp/ccwIYAO0.s:111    .text:00000000000000ac .L0 
     /tmp/ccwIYAO0.s:113    .text:00000000000000b4 .L0 
     /tmp/ccwIYAO0.s:114    .text:00000000000000b4 .L0 
     /tmp/ccwIYAO0.s:116    .text:00000000000000b8 .L0 
     /tmp/ccwIYAO0.s:117    .text:00000000000000b8 .L0 
     /tmp/ccwIYAO0.s:119    .text:00000000000000bc .L0 
     /tmp/ccwIYAO0.s:122    .text:00000000000000c0 .L0 
     /tmp/ccwIYAO0.s:124    .text:00000000000000c4 .L0 
     /tmp/ccwIYAO0.s:127    .text:00000000000000c8 .L0 
     /tmp/ccwIYAO0.s:130    .text:00000000000000cc .L0 
     /tmp/ccwIYAO0.s:134    .text:00000000000000d0 .L0 
     /tmp/ccwIYAO0.s:140    .text:00000000000000d4 .L0 
     /tmp/ccwIYAO0.s:141    .text:00000000000000d4 .L0 
     /tmp/ccwIYAO0.s:153    .text:00000000000000f4 .L0 
     /tmp/ccwIYAO0.s:179    .text:00000000000000f4 _ZN3TCB8dispatchEv
     /tmp/ccwIYAO0.s:182    .text:00000000000000f4 .L0 
     /tmp/ccwIYAO0.s:183    .text:00000000000000f4 .L0 
     /tmp/ccwIYAO0.s:184    .text:00000000000000f8 .L0 
     /tmp/ccwIYAO0.s:188    .text:0000000000000104 .L0 
     /tmp/ccwIYAO0.s:189    .text:0000000000000104 .L0 
     /tmp/ccwIYAO0.s:190    .text:0000000000000104 .L0 
     /tmp/ccwIYAO0.s:192    .text:0000000000000108 .L0 
GAS LISTING /tmp/ccwIYAO0.s 			page 12


     /tmp/ccwIYAO0.s:194    .text:0000000000000108 .L0 
     /tmp/ccwIYAO0.s:195    .text:0000000000000108 .L0 
     /tmp/ccwIYAO0.s:200    .text:0000000000000110 .L0 
     /tmp/ccwIYAO0.s:201    .text:0000000000000110 .L0 
     /tmp/ccwIYAO0.s:202    .text:0000000000000110 .L0 
     /tmp/ccwIYAO0.s:207    .text:0000000000000114 .L0 
     /tmp/ccwIYAO0.s:212    .text:0000000000000118 .L0 
     /tmp/ccwIYAO0.s:213    .text:0000000000000118 .L0 
     /tmp/ccwIYAO0.s:218    .text:000000000000011c .L0 
     /tmp/ccwIYAO0.s:221    .text:0000000000000120 .L0 
     /tmp/ccwIYAO0.s:222    .text:0000000000000120 .L0 
     /tmp/ccwIYAO0.s:225    .text:0000000000000128 .L0 
     /tmp/ccwIYAO0.s:227    .text:0000000000000130 .L0 
     /tmp/ccwIYAO0.s:228    .text:0000000000000130 .L0 
     /tmp/ccwIYAO0.s:233    .text:0000000000000140 .L0 
     /tmp/ccwIYAO0.s:234    .text:0000000000000144 .L0 
     /tmp/ccwIYAO0.s:235    .text:0000000000000144 .L0 
     /tmp/ccwIYAO0.s:237    .text:0000000000000148 .L0 
     /tmp/ccwIYAO0.s:238    .text:0000000000000148 .L0 
     /tmp/ccwIYAO0.s:240    .text:000000000000014c .L0 
     /tmp/ccwIYAO0.s:243    .text:0000000000000150 .L0 
     /tmp/ccwIYAO0.s:247    .text:0000000000000154 .L0 
     /tmp/ccwIYAO0.s:249    .text:0000000000000154 .L0 
     /tmp/ccwIYAO0.s:250    .text:0000000000000154 .L0 
     /tmp/ccwIYAO0.s:254    .text:0000000000000164 .L0 
     /tmp/ccwIYAO0.s:260    .text:0000000000000164 _ZN3TCB4exitEv
     /tmp/ccwIYAO0.s:263    .text:0000000000000164 .L0 
     /tmp/ccwIYAO0.s:264    .text:0000000000000164 .L0 
     /tmp/ccwIYAO0.s:265    .text:0000000000000164 .L0 
     /tmp/ccwIYAO0.s:266    .text:0000000000000164 .L0 
     /tmp/ccwIYAO0.s:271    .text:000000000000016c .L0 
     /tmp/ccwIYAO0.s:272    .text:000000000000016c .L0 
     /tmp/ccwIYAO0.s:277    .text:0000000000000170 .L0 
     /tmp/ccwIYAO0.s:279    .text:0000000000000174 .L0 
     /tmp/ccwIYAO0.s:280    .text:0000000000000178 .L0 
     /tmp/ccwIYAO0.s:283    .text:0000000000000180 .L0 
     /tmp/ccwIYAO0.s:284    .text:0000000000000180 .L0 
     /tmp/ccwIYAO0.s:286    .text:0000000000000184 .L0 
     /tmp/ccwIYAO0.s:288    .text:0000000000000184 .L0 
     /tmp/ccwIYAO0.s:289    .text:0000000000000184 .L0 
     /tmp/ccwIYAO0.s:292    .text:000000000000018c .L0 
     /tmp/ccwIYAO0.s:293    .text:000000000000018c .L0 
     /tmp/ccwIYAO0.s:296    .text:0000000000000194 .L0 
     /tmp/ccwIYAO0.s:297    .text:0000000000000194 .L0 
     /tmp/ccwIYAO0.s:299    .text:0000000000000198 .L0 
     /tmp/ccwIYAO0.s:300    .text:000000000000019c .L0 
     /tmp/ccwIYAO0.s:302    .text:00000000000001a0 .L0 
     /tmp/ccwIYAO0.s:303    .text:00000000000001a0 .L0 
     /tmp/ccwIYAO0.s:305    .text:00000000000001a4 .L0 
     /tmp/ccwIYAO0.s:309    .text:00000000000001a8 .L0 
     /tmp/ccwIYAO0.s:311    .text:00000000000001ac .L0 
     /tmp/ccwIYAO0.s:312    .text:00000000000001b0 .L0 
     /tmp/ccwIYAO0.s:321    .text:00000000000001b0 .L0 
     /tmp/ccwIYAO0.s:322    .text:00000000000001b0 .L0 
     /tmp/ccwIYAO0.s:323    .text:00000000000001b4 .L0 
     /tmp/ccwIYAO0.s:326    .text:00000000000001bc .L0 
     /tmp/ccwIYAO0.s:327    .text:00000000000001bc .L0 
GAS LISTING /tmp/ccwIYAO0.s 			page 13


     /tmp/ccwIYAO0.s:329    .text:00000000000001c0 .L0 
     /tmp/ccwIYAO0.s:331    .text:00000000000001c0 .L0 
     /tmp/ccwIYAO0.s:332    .text:00000000000001c0 .L0 
     /tmp/ccwIYAO0.s:335    .text:00000000000001c8 .L0 
     /tmp/ccwIYAO0.s:336    .text:00000000000001c8 .L0 
     /tmp/ccwIYAO0.s:339    .text:00000000000001d4 .L0 
     /tmp/ccwIYAO0.s:343    .text:00000000000001dc .L0 
     /tmp/ccwIYAO0.s:344    .text:00000000000001dc .L0 
     /tmp/ccwIYAO0.s:347    .text:00000000000001e4 .L0 
     /tmp/ccwIYAO0.s:348    .text:00000000000001e8 .L0 
     /tmp/ccwIYAO0.s:350    .text:00000000000001ec .L0 
     /tmp/ccwIYAO0.s:351    .text:00000000000001ec .L0 
     /tmp/ccwIYAO0.s:353    .text:00000000000001f0 .L0 
     /tmp/ccwIYAO0.s:355    .text:00000000000001f4 .L0 
     /tmp/ccwIYAO0.s:364    .bss:0000000000000000 _ZN3TCB7runningE
     /tmp/ccwIYAO0.s:361    .bss:0000000000000000 .LANCHOR0
     /tmp/ccwIYAO0.s:374    .text:00000000000001f4 .L0 
     /tmp/ccwIYAO0.s:62     .text:0000000000000054 .L0 
     /tmp/ccwIYAO0.s:81     .text:0000000000000078 .L0 
     /tmp/ccwIYAO0.s:105    .text:00000000000000a4 .L0 
     /tmp/ccwIYAO0.s:195    .text:0000000000000108 .L0 
     /tmp/ccwIYAO0.s:225    .text:0000000000000128 .L0 
     /tmp/ccwIYAO0.s:266    .text:0000000000000164 .L0 
     /tmp/ccwIYAO0.s:336    .text:00000000000001c8 .L0 
     /tmp/ccwIYAO0.s:93     .text:0000000000000094 .L7
     /tmp/ccwIYAO0.s:97     .text:000000000000009c .L8
     /tmp/ccwIYAO0.s:102    .text:00000000000000a4 .L11
     /tmp/ccwIYAO0.s:107    .text:00000000000000ac .L1
     /tmp/ccwIYAO0.s:63     .text:000000000000005c .L2
     /tmp/ccwIYAO0.s:72     .text:000000000000006c .L3
     /tmp/ccwIYAO0.s:219    .text:0000000000000120 .L13
     /tmp/ccwIYAO0.s:246    .text:0000000000000154 .L15
     /tmp/ccwIYAO0.s:307    .text:00000000000001a8 .L18
     /tmp/ccwIYAO0.s:42     .text:000000000000002c .LEHB0
     /tmp/ccwIYAO0.s:10     .text:0000000000000000 .LFB29
     /tmp/ccwIYAO0.s:49     .text:0000000000000040 .LEHE0
     /tmp/ccwIYAO0.s:87     .text:0000000000000088 .LEHB1
     /tmp/ccwIYAO0.s:90     .text:0000000000000090 .LEHE1
     /tmp/ccwIYAO0.s:133    .text:00000000000000d0 .L9
     /tmp/ccwIYAO0.s:147    .text:00000000000000ec .LEHB2
     /tmp/ccwIYAO0.s:150    .text:00000000000000f4 .LEHE2
     /tmp/ccwIYAO0.s:1520   .debug_abbrev:0000000000000000 .Ldebug_abbrev0
     /tmp/ccwIYAO0.s:2849   .debug_str:000000000000065f .LASF115
     /tmp/ccwIYAO0.s:2663   .debug_str:000000000000009a .LASF116
     /tmp/ccwIYAO0.s:2763   .debug_str:00000000000003b9 .LASF117
     /tmp/ccwIYAO0.s:5      .text:0000000000000000 .Ltext0
     /tmp/ccwIYAO0.s:367    .text:00000000000001f4 .Letext0
     /tmp/ccwIYAO0.s:2637   .debug_line:0000000000000000 .Ldebug_line0
     /tmp/ccwIYAO0.s:2771   .debug_str:0000000000000424 .LASF0
     /tmp/ccwIYAO0.s:2787   .debug_str:0000000000000471 .LASF1
     /tmp/ccwIYAO0.s:2761   .debug_str:00000000000003ab .LASF2
     /tmp/ccwIYAO0.s:2729   .debug_str:00000000000002d9 .LASF4
     /tmp/ccwIYAO0.s:2827   .debug_str:0000000000000599 .LASF3
     /tmp/ccwIYAO0.s:2659   .debug_str:000000000000008b .LASF5
     /tmp/ccwIYAO0.s:2793   .debug_str:00000000000004a6 .LASF6
     /tmp/ccwIYAO0.s:2769   .debug_str:0000000000000411 .LASF7
     /tmp/ccwIYAO0.s:2863   .debug_str:0000000000000786 .LASF8
GAS LISTING /tmp/ccwIYAO0.s 			page 14


     /tmp/ccwIYAO0.s:2719   .debug_str:0000000000000291 .LASF9
     /tmp/ccwIYAO0.s:2803   .debug_str:00000000000004eb .LASF10
     /tmp/ccwIYAO0.s:2851   .debug_str:0000000000000723 .LASF11
     /tmp/ccwIYAO0.s:2747   .debug_str:000000000000034b .LASF12
     /tmp/ccwIYAO0.s:2643   .debug_str:0000000000000017 .LASF13
     /tmp/ccwIYAO0.s:2671   .debug_str:00000000000000d8 .LASF14
     /tmp/ccwIYAO0.s:2823   .debug_str:000000000000056b .LASF15
     /tmp/ccwIYAO0.s:2679   .debug_str:0000000000000113 .LASF16
     /tmp/ccwIYAO0.s:2801   .debug_str:00000000000004e1 .LASF18
     /tmp/ccwIYAO0.s:2669   .debug_str:00000000000000c0 .LASF37
     /tmp/ccwIYAO0.s:2725   .debug_str:00000000000002c0 .LASF118
     /tmp/ccwIYAO0.s:2817   .debug_str:0000000000000549 .LASF17
     /tmp/ccwIYAO0.s:2697   .debug_str:00000000000001b6 .LASF27
     /tmp/ccwIYAO0.s:2749   .debug_str:000000000000035b .LASF53
     /tmp/ccwIYAO0.s:2647   .debug_str:0000000000000031 .LASF90
     /tmp/ccwIYAO0.s:2871   .debug_str:00000000000007ed .LASF20
     /tmp/ccwIYAO0.s:2843   .debug_str:000000000000063e .LASF22
     /tmp/ccwIYAO0.s:2835   .debug_str:00000000000005d7 .LASF19
     /tmp/ccwIYAO0.s:2829   .debug_str:00000000000005ab .LASF57
     /tmp/ccwIYAO0.s:2693   .debug_str:00000000000001a9 .LASF21
     /tmp/ccwIYAO0.s:2811   .debug_str:0000000000000533 .LASF23
     /tmp/ccwIYAO0.s:2743   .debug_str:0000000000000329 .LASF24
     /tmp/ccwIYAO0.s:2879   .debug_str:0000000000000817 .LASF25
     /tmp/ccwIYAO0.s:2813   .debug_str:000000000000053f .LASF107
     /tmp/ccwIYAO0.s:2773   .debug_str:0000000000000431 .LASF79
     /tmp/ccwIYAO0.s:2701   .debug_str:00000000000001e2 .LASF81
     /tmp/ccwIYAO0.s:2751   .debug_str:0000000000000361 .LASF26
     /tmp/ccwIYAO0.s:2667   .debug_str:00000000000000b1 .LASF28
     /tmp/ccwIYAO0.s:2795   .debug_str:00000000000004b9 .LASF33
     /tmp/ccwIYAO0.s:2717   .debug_str:000000000000027a .LASF35
     /tmp/ccwIYAO0.s:2741   .debug_str:0000000000000323 .LASF29
     /tmp/ccwIYAO0.s:2715   .debug_str:000000000000026a .LASF30
     /tmp/ccwIYAO0.s:2661   .debug_str:0000000000000092 .LASF31
     /tmp/ccwIYAO0.s:2721   .debug_str:000000000000029f .LASF32
     /tmp/ccwIYAO0.s:2645   .debug_str:0000000000000027 .LASF34
     /tmp/ccwIYAO0.s:2745   .debug_str:0000000000000336 .LASF36
     /tmp/ccwIYAO0.s:2695   .debug_str:00000000000001ae .LASF119
     /tmp/ccwIYAO0.s:2883   .debug_str:0000000000000851 .LASF38
     /tmp/ccwIYAO0.s:2735   .debug_str:000000000000030a .LASF39
     /tmp/ccwIYAO0.s:2775   .debug_str:000000000000043a .LASF40
     /tmp/ccwIYAO0.s:2639   .debug_str:0000000000000000 .LASF41
     /tmp/ccwIYAO0.s:2779   .debug_str:0000000000000449 .LASF42
     /tmp/ccwIYAO0.s:2737   .debug_str:0000000000000313 .LASF43
     /tmp/ccwIYAO0.s:2757   .debug_str:0000000000000380 .LASF120
     /tmp/ccwIYAO0.s:2859   .debug_str:000000000000075d .LASF121
     /tmp/ccwIYAO0.s:2707   .debug_str:0000000000000218 .LASF44
     /tmp/ccwIYAO0.s:2853   .debug_str:0000000000000732 .LASF122
     /tmp/ccwIYAO0.s:2685   .debug_str:0000000000000147 .LASF45
     /tmp/ccwIYAO0.s:2753   .debug_str:0000000000000366 .LASF46
     /tmp/ccwIYAO0.s:2727   .debug_str:00000000000002d4 .LASF47
     /tmp/ccwIYAO0.s:2861   .debug_str:0000000000000773 .LASF48
     /tmp/ccwIYAO0.s:2847   .debug_str:0000000000000656 .LASF49
     /tmp/ccwIYAO0.s:2691   .debug_str:000000000000018c .LASF50
     /tmp/ccwIYAO0.s:2683   .debug_str:000000000000013c .LASF51
     /tmp/ccwIYAO0.s:2651   .debug_str:0000000000000045 .LASF52
     /tmp/ccwIYAO0.s:2815   .debug_str:0000000000000544 .LASF54
     /tmp/ccwIYAO0.s:2785   .debug_str:000000000000046b .LASF55
GAS LISTING /tmp/ccwIYAO0.s 			page 15


     /tmp/ccwIYAO0.s:2781   .debug_str:0000000000000451 .LASF56
     /tmp/ccwIYAO0.s:2767   .debug_str:00000000000003fb .LASF58
     /tmp/ccwIYAO0.s:2873   .debug_str:00000000000007fa .LASF59
     /tmp/ccwIYAO0.s:2711   .debug_str:0000000000000232 .LASF60
     /tmp/ccwIYAO0.s:2841   .debug_str:0000000000000635 .LASF61
     /tmp/ccwIYAO0.s:2755   .debug_str:000000000000036b .LASF62
     /tmp/ccwIYAO0.s:2789   .debug_str:0000000000000484 .LASF63
     /tmp/ccwIYAO0.s:2655   .debug_str:0000000000000069 .LASF64
     /tmp/ccwIYAO0.s:2833   .debug_str:00000000000005cb .LASF65
     /tmp/ccwIYAO0.s:2885   .debug_str:0000000000000867 .LASF66
     /tmp/ccwIYAO0.s:2665   .debug_str:00000000000000a6 .LASF67
     /tmp/ccwIYAO0.s:2807   .debug_str:0000000000000516 .LASF68
     /tmp/ccwIYAO0.s:2675   .debug_str:00000000000000f1 .LASF69
     /tmp/ccwIYAO0.s:2799   .debug_str:00000000000004cb .LASF70
     /tmp/ccwIYAO0.s:2887   .debug_str:0000000000000880 .LASF71
     /tmp/ccwIYAO0.s:2825   .debug_str:0000000000000581 .LASF72
     /tmp/ccwIYAO0.s:2739   .debug_str:0000000000000318 .LASF73
     /tmp/ccwIYAO0.s:2839   .debug_str:000000000000061d .LASF74
     /tmp/ccwIYAO0.s:2653   .debug_str:0000000000000062 .LASF75
     /tmp/ccwIYAO0.s:2831   .debug_str:00000000000005b8 .LASF76
     /tmp/ccwIYAO0.s:2797   .debug_str:00000000000004c4 .LASF77
     /tmp/ccwIYAO0.s:2681   .debug_str:0000000000000129 .LASF78
     /tmp/ccwIYAO0.s:2875   .debug_str:0000000000000803 .LASF80
     /tmp/ccwIYAO0.s:2805   .debug_str:00000000000004fa .LASF82
     /tmp/ccwIYAO0.s:2857   .debug_str:000000000000074c .LASF83
     /tmp/ccwIYAO0.s:2705   .debug_str:00000000000001fa .LASF84
     /tmp/ccwIYAO0.s:2819   .debug_str:0000000000000551 .LASF85
     /tmp/ccwIYAO0.s:2881   .debug_str:0000000000000839 .LASF86
     /tmp/ccwIYAO0.s:2791   .debug_str:0000000000000490 .LASF87
     /tmp/ccwIYAO0.s:2713   .debug_str:0000000000000247 .LASF88
     /tmp/ccwIYAO0.s:2783   .debug_str:000000000000045b .LASF89
     /tmp/ccwIYAO0.s:2673   .debug_str:00000000000000e4 .LASF91
     /tmp/ccwIYAO0.s:2889   .debug_str:000000000000088b .LASF92
     /tmp/ccwIYAO0.s:2877   .debug_str:0000000000000812 .LASF93
     /tmp/ccwIYAO0.s:2777   .debug_str:0000000000000440 .LASF94
     /tmp/ccwIYAO0.s:2759   .debug_str:000000000000038b .LASF95
     /tmp/ccwIYAO0.s:2865   .debug_str:0000000000000796 .LASF96
     /tmp/ccwIYAO0.s:2867   .debug_str:00000000000007a0 .LASF97
     /tmp/ccwIYAO0.s:2733   .debug_str:0000000000000301 .LASF98
     /tmp/ccwIYAO0.s:2731   .debug_str:00000000000002e0 .LASF99
     /tmp/ccwIYAO0.s:2641   .debug_str:0000000000000008 .LASF100
     /tmp/ccwIYAO0.s:2687   .debug_str:000000000000014c .LASF101
     /tmp/ccwIYAO0.s:2699   .debug_str:00000000000001ce .LASF102
     /tmp/ccwIYAO0.s:2869   .debug_str:00000000000007c1 .LASF103
     /tmp/ccwIYAO0.s:2689   .debug_str:0000000000000173 .LASF104
     /tmp/ccwIYAO0.s:2845   .debug_str:000000000000064a .LASF105
     /tmp/ccwIYAO0.s:2837   .debug_str:00000000000005e7 .LASF106
     /tmp/ccwIYAO0.s:2649   .debug_str:0000000000000039 .LASF108
     /tmp/ccwIYAO0.s:2703   .debug_str:00000000000001f5 .LASF109
     /tmp/ccwIYAO0.s:2891   .debug_str:0000000000000890 .LASF123
     /tmp/ccwIYAO0.s:319    .text:00000000000001b0 .LFB32
     /tmp/ccwIYAO0.s:356    .text:00000000000001f4 .LFE32
     /tmp/ccwIYAO0.s:333    .text:00000000000001c8 .LVL30
     /tmp/ccwIYAO0.s:345    .text:00000000000001e4 .LVL32
     /tmp/ccwIYAO0.s:261    .text:0000000000000164 .LFB31
     /tmp/ccwIYAO0.s:313    .text:00000000000001b0 .LFE31
     /tmp/ccwIYAO0.s:268    .text:000000000000016c .LBB29
GAS LISTING /tmp/ccwIYAO0.s 			page 16


     /tmp/ccwIYAO0.s:275    .text:0000000000000170 .LBE29
     /tmp/ccwIYAO0.s:2407   .debug_loc:0000000000000000 .LLST12
     /tmp/ccwIYAO0.s:294    .text:0000000000000194 .LVL29
     /tmp/ccwIYAO0.s:180    .text:00000000000000f4 .LFB30
     /tmp/ccwIYAO0.s:255    .text:0000000000000164 .LFE30
     /tmp/ccwIYAO0.s:2414   .debug_loc:0000000000000023 .LLST9
     /tmp/ccwIYAO0.s:198    .text:0000000000000110 .LBB25
     /tmp/ccwIYAO0.s:205    .text:0000000000000114 .LBE25
     /tmp/ccwIYAO0.s:2425   .debug_loc:0000000000000059 .LLST10
     /tmp/ccwIYAO0.s:209    .text:0000000000000118 .LBB27
     /tmp/ccwIYAO0.s:216    .text:000000000000011c .LBE27
     /tmp/ccwIYAO0.s:2432   .debug_loc:000000000000007c .LLST11
     /tmp/ccwIYAO0.s:223    .text:0000000000000128 .LVL22
     /tmp/ccwIYAO0.s:231    .text:0000000000000140 .LVL23
     /tmp/ccwIYAO0.s:252    .text:0000000000000160 .LVL26
     /tmp/ccwIYAO0.s:154    .text:00000000000000f4 .LFE29
     /tmp/ccwIYAO0.s:2439   .debug_loc:000000000000009f .LLST0
     /tmp/ccwIYAO0.s:2461   .debug_loc:00000000000000fe .LLST1
     /tmp/ccwIYAO0.s:2483   .debug_loc:000000000000015d .LLST2
     /tmp/ccwIYAO0.s:38     .text:000000000000002c .LBB19
     /tmp/ccwIYAO0.s:53     .text:0000000000000044 .LBE19
     /tmp/ccwIYAO0.s:2522   .debug_loc:00000000000001fa .LLST3
     /tmp/ccwIYAO0.s:45     .text:0000000000000034 .LVL2
     /tmp/ccwIYAO0.s:48     .text:0000000000000040 .LVL3
     /tmp/ccwIYAO0.s:54     .text:0000000000000044 .LBB21
     /tmp/ccwIYAO0.s:109    .text:00000000000000ac .LBE21
     /tmp/ccwIYAO0.s:2531   .debug_loc:000000000000021f .LLST4
     /tmp/ccwIYAO0.s:2566   .debug_loc:00000000000002a9 .LLST5
     /tmp/ccwIYAO0.s:2584   .debug_loc:00000000000002f5 .LLST6
     /tmp/ccwIYAO0.s:2602   .debug_loc:0000000000000341 .LLST7
     /tmp/ccwIYAO0.s:89     .text:0000000000000090 .LVL6
     /tmp/ccwIYAO0.s:137    .text:00000000000000d4 .LBB23
     /tmp/ccwIYAO0.s:152    .text:00000000000000f4 .LBE23
     /tmp/ccwIYAO0.s:2617   .debug_loc:000000000000038a .LLST8
     /tmp/ccwIYAO0.s:142    .text:00000000000000dc .LVL15
     /tmp/ccwIYAO0.s:145    .text:00000000000000e8 .LVL16
     /tmp/ccwIYAO0.s:149    .text:00000000000000f4 .LVL17
     /tmp/ccwIYAO0.s:2809   .debug_str:000000000000052e .LASF111
     /tmp/ccwIYAO0.s:2657   .debug_str:0000000000000082 .LASF110
     /tmp/ccwIYAO0.s:2765   .debug_str:00000000000003e5 .LASF124
     /tmp/ccwIYAO0.s:2855   .debug_str:0000000000000737 .LASF112
     /tmp/ccwIYAO0.s:2709   .debug_str:0000000000000222 .LASF114
     /tmp/ccwIYAO0.s:2821   .debug_str:000000000000055c .LASF113
     /tmp/ccwIYAO0.s:2723   .debug_str:00000000000002b1 .LASF125
     /tmp/ccwIYAO0.s:2677   .debug_str:00000000000000fb .LASF126
     /tmp/ccwIYAO0.s:267    .text:000000000000016c .LVL27
     /tmp/ccwIYAO0.s:273    .text:0000000000000170 .LVL28
     /tmp/ccwIYAO0.s:196    .text:0000000000000110 .LVL18
     /tmp/ccwIYAO0.s:241    .text:000000000000014c .LVL24
     /tmp/ccwIYAO0.s:245    .text:0000000000000154 .LVL25
     /tmp/ccwIYAO0.s:203    .text:0000000000000114 .LVL19
     /tmp/ccwIYAO0.s:208    .text:0000000000000118 .LVL20
     /tmp/ccwIYAO0.s:214    .text:000000000000011c .LVL21
     /tmp/ccwIYAO0.s:16     .text:0000000000000000 .LVL0
     /tmp/ccwIYAO0.s:125    .text:00000000000000c4 .LVL11
     /tmp/ccwIYAO0.s:132    .text:00000000000000d0 .LVL13
     /tmp/ccwIYAO0.s:128    .text:00000000000000c8 .LVL12
GAS LISTING /tmp/ccwIYAO0.s 			page 17


     /tmp/ccwIYAO0.s:71     .text:000000000000006c .LVL5
     /tmp/ccwIYAO0.s:92     .text:0000000000000094 .LVL7
     /tmp/ccwIYAO0.s:100    .text:00000000000000a0 .LVL8
     /tmp/ccwIYAO0.s:106    .text:00000000000000ac .LVL9
     /tmp/ccwIYAO0.s:37     .text:000000000000002c .LVL1
     /tmp/ccwIYAO0.s:51     .text:0000000000000044 .LVL4
     /tmp/ccwIYAO0.s:120    .text:00000000000000bc .LVL10
     /tmp/ccwIYAO0.s:136    .text:00000000000000d4 .LVL14
     /tmp/ccwIYAO0.s:375    .debug_info:0000000000000000 .Ldebug_info0
     /tmp/ccwIYAO0.s:157    .gcc_except_table:0000000000000000 .LLSDA29

UNDEFINED SYMBOLS
_ZN15MemoryAllocator8InstanceEv
_ZN15MemoryAllocator9mem_allocEm
_ZN9Scheduler3putEP3TCB
_ZN15MemoryAllocator8mem_freeEPv
_Unwind_Resume
__gxx_personality_v0
_ZN9Scheduler3getEv
context_switch
_Z15thread_dispatchv
_ZN5Riscv10popSppSpieEv
