GAS LISTING /tmp/ccOzn4md.s 			page 1


   1              		.file	"workers.cpp"
   2              		.option pic
   3              		.option norelax
   4              		.text
   5              	.Ltext0:
   6              		.align	2
   7              		.globl	_Z9fibonaccim
   9              	_Z9fibonaccim:
  10              	.LFB29:
  11              		.file 1 "src/workers.cpp"
   1:src/workers.cpp **** //
   2:src/workers.cpp **** // Created by os on 9/24/25.
   3:src/workers.cpp **** //
   4:src/workers.cpp **** #include "../h/workers.hpp"
   5:src/workers.cpp **** #include "../lib/hw.h"
   6:src/workers.cpp **** 
   7:src/workers.cpp **** #include "../h/print.hpp"
   8:src/workers.cpp **** #include "../h/syscall_c.hpp"
   9:src/workers.cpp **** #include "../h/syscall_cpp.hpp"
  10:src/workers.cpp **** 
  11:src/workers.cpp **** uint64 fibonacci(uint64 n) {
  12              		.loc 1 11 28
  13              		.cfi_startproc
  14              	.LVL0:
  15 0000 130101FE 		addi	sp,sp,-32
  16              		.cfi_def_cfa_offset 32
  17 0004 233C1100 		sd	ra,24(sp)
  18 0008 23388100 		sd	s0,16(sp)
  19 000c 23349100 		sd	s1,8(sp)
  20 0010 23302101 		sd	s2,0(sp)
  21              		.cfi_offset 1, -8
  22              		.cfi_offset 8, -16
  23              		.cfi_offset 9, -24
  24              		.cfi_offset 18, -32
  25 0014 13040102 		addi	s0,sp,32
  26              		.cfi_def_cfa 8, 0
  27 0018 93040500 		mv	s1,a0
  12:src/workers.cpp ****     if (n == 0 || n == 1) { return n; }
  28              		.loc 1 12 5
  29 001c 93071000 		li	a5,1
  30 0020 63F6A702 		bleu	a0,a5,.L1
  13:src/workers.cpp ****     if (n % 4 == 0) thread_dispatch();
  31              		.loc 1 13 5
  32              		.loc 1 13 11 is_stmt 0
  33 0024 93773500 		andi	a5,a0,3
  34              		.loc 1 13 5
  35 0028 638E0702 		beqz	a5,.L6
  36              	.LVL1:
  37              	.L3:
  14:src/workers.cpp ****     return fibonacci(n - 1) + fibonacci(n - 2);
  38              		.loc 1 14 5 is_stmt 1
  39              		.loc 1 14 21 is_stmt 0
  40 002c 1385F4FF 		addi	a0,s1,-1
  41 0030 97000000 		call	_Z9fibonaccim
  41      E7800000 
  42              	.LVL2:
  43 0038 13090500 		mv	s2,a0
GAS LISTING /tmp/ccOzn4md.s 			page 2


  44              		.loc 1 14 40
  45 003c 1385E4FF 		addi	a0,s1,-2
  46 0040 97000000 		call	_Z9fibonaccim
  46      E7800000 
  47              	.LVL3:
  48              		.loc 1 14 46
  49 0048 3305A900 		add	a0,s2,a0
  50              	.L1:
  15:src/workers.cpp **** }
  51              		.loc 1 15 1
  52 004c 83308101 		ld	ra,24(sp)
  53              		.cfi_remember_state
  54              		.cfi_restore 1
  55 0050 03340101 		ld	s0,16(sp)
  56              		.cfi_restore 8
  57              		.cfi_def_cfa 2, 32
  58 0054 83348100 		ld	s1,8(sp)
  59              		.cfi_restore 9
  60              	.LVL4:
  61 0058 03390100 		ld	s2,0(sp)
  62              		.cfi_restore 18
  63 005c 13010102 		addi	sp,sp,32
  64              		.cfi_def_cfa_offset 0
  65 0060 67800000 		jr	ra
  66              	.LVL5:
  67              	.L6:
  68              		.cfi_restore_state
  13:src/workers.cpp ****     if (n % 4 == 0) thread_dispatch();
  69              		.loc 1 13 21 is_stmt 1 discriminator 1
  13:src/workers.cpp ****     if (n % 4 == 0) thread_dispatch();
  70              		.loc 1 13 36 is_stmt 0 discriminator 1
  71 0064 97000000 		call	_Z15thread_dispatchv@plt
  71      E7800000 
  72              	.LVL6:
  73 006c 6FF01FFC 		j	.L3
  74              		.cfi_endproc
  75              	.LFE29:
  77              		.section	.rodata.str1.8,"aMS",@progbits,1
  78              		.align	3
  79              	.LC0:
  80 0000 4661696C 		.string	"Failed\n"
  80      65640A00 
  81              		.text
  82              		.align	2
  83              		.globl	_Z13initSemaphorev
  85              	_Z13initSemaphorev:
  86              	.LFB30:
  16:src/workers.cpp **** 
  17:src/workers.cpp **** Semaphore* semaphore;
  18:src/workers.cpp **** 
  19:src/workers.cpp **** void initSemaphore() {
  87              		.loc 1 19 22 is_stmt 1
  88              		.cfi_startproc
  89              		.cfi_personality 0x9b,DW.ref.__gxx_personality_v0
  90              		.cfi_lsda 0x1b,.LLSDA30
  20:src/workers.cpp ****     if (semaphore) {
  91              		.loc 1 20 5
GAS LISTING /tmp/ccOzn4md.s 			page 3


  92              		.loc 1 20 18 is_stmt 0
  93 0070 97070000 		ld	a5,.LANCHOR0
  93      83B70700 
  94              		.loc 1 20 5
  95 0078 63840700 		beqz	a5,.L15
  96 007c 67800000 		ret
  97              	.L15:
  19:src/workers.cpp ****     if (semaphore) {
  98              		.loc 1 19 22
  99 0080 130101FE 		addi	sp,sp,-32
 100              		.cfi_def_cfa_offset 32
 101 0084 233C1100 		sd	ra,24(sp)
 102 0088 23388100 		sd	s0,16(sp)
 103 008c 23349100 		sd	s1,8(sp)
 104 0090 23302101 		sd	s2,0(sp)
 105              		.cfi_offset 1, -8
 106              		.cfi_offset 8, -16
 107              		.cfi_offset 9, -24
 108              		.cfi_offset 18, -32
 109 0094 13040102 		addi	s0,sp,32
 110              		.cfi_def_cfa 8, 0
  21:src/workers.cpp ****         return;
  22:src/workers.cpp ****     }
  23:src/workers.cpp ****     semaphore = new Semaphore(2);
 111              		.loc 1 23 5 is_stmt 1
 112              		.loc 1 23 32 is_stmt 0
 113 0098 13050001 		li	a0,16
 114              	.LEHB0:
 115 009c 97000000 		call	_Znwm@plt
 115      E7800000 
 116              	.LVL7:
 117              	.LEHE0:
 118 00a4 93040500 		mv	s1,a0
 119 00a8 93052000 		li	a1,2
 120              	.LEHB1:
 121 00ac 97000000 		call	_ZN9SemaphoreC1Ej@plt
 121      E7800000 
 122              	.LVL8:
 123              	.LEHE1:
 124              		.loc 1 23 15 discriminator 2
 125 00b4 97070000 		sd	s1,.LANCHOR0,a5
 125      23B09700 
  24:src/workers.cpp ****     if (semaphore == nullptr) {
 126              		.loc 1 24 5 is_stmt 1 discriminator 2
 127 00bc 638E0400 		beqz	s1,.L16
 128              	.L7:
  25:src/workers.cpp ****         pprintString("Failed\n");
  26:src/workers.cpp **** 
  27:src/workers.cpp ****     }
  28:src/workers.cpp **** }
 129              		.loc 1 28 1 is_stmt 0
 130 00c0 83308101 		ld	ra,24(sp)
 131              		.cfi_remember_state
 132              		.cfi_restore 1
 133 00c4 03340101 		ld	s0,16(sp)
 134              		.cfi_restore 8
 135              		.cfi_def_cfa 2, 32
GAS LISTING /tmp/ccOzn4md.s 			page 4


 136 00c8 83348100 		ld	s1,8(sp)
 137              		.cfi_restore 9
 138 00cc 03390100 		ld	s2,0(sp)
 139              		.cfi_restore 18
 140 00d0 13010102 		addi	sp,sp,32
 141              		.cfi_def_cfa_offset 0
 142 00d4 67800000 		jr	ra
 143              	.L16:
 144              		.cfi_restore_state
  25:src/workers.cpp ****         pprintString("Failed\n");
 145              		.loc 1 25 9 is_stmt 1
  25:src/workers.cpp ****         pprintString("Failed\n");
 146              		.loc 1 25 21 is_stmt 0
 147 00d8 17050000 		lla	a0,.LC0
 147      13050500 
 148              	.LEHB2:
 149 00e0 97000000 		call	_Z12pprintStringPKc@plt
 149      E7800000 
 150              	.LVL9:
 151              	.LEHE2:
 152 00e8 6FF09FFD 		j	.L7
 153              	.L10:
 154 00ec 13090500 		mv	s2,a0
  23:src/workers.cpp ****     if (semaphore == nullptr) {
 155              		.loc 1 23 32
 156 00f0 13850400 		mv	a0,s1
 157 00f4 97000000 		call	_ZdlPv@plt
 157      E7800000 
 158              	.LVL10:
 159 00fc 13050900 		mv	a0,s2
 160              	.LEHB3:
 161 0100 97000000 		call	_Unwind_Resume@plt
 161      E7800000 
 162              	.LVL11:
 163              	.LEHE3:
 164              		.cfi_endproc
 165              	.LFE30:
 166              		.globl	__gxx_personality_v0
 167              		.section	.gcc_except_table,"a",@progbits
 168              	.LLSDA30:
 169 0000 FF       		.byte	0xff
 170 0001 FF       		.byte	0xff
 171 0002 03       		.byte	0x3
 172 0003 34       		.byte	0x34
 173 0004 00000000 		.4byte	.LEHB0-.LFB30
 174 0008 00000000 		.4byte	.LEHE0-.LEHB0
 175 000c 00000000 		.4byte	0
 176 0010 00       		.byte	0
 177 0011 00000000 		.4byte	.LEHB1-.LFB30
 178 0015 00000000 		.4byte	.LEHE1-.LEHB1
 179 0019 00000000 		.4byte	.L10-.LFB30
 180 001d 00       		.byte	0
 181 001e 00000000 		.4byte	.LEHB2-.LFB30
 182 0022 00000000 		.4byte	.LEHE2-.LEHB2
 183 0026 00000000 		.4byte	0
 184 002a 00       		.byte	0
 185 002b 00000000 		.4byte	.LEHB3-.LFB30
GAS LISTING /tmp/ccOzn4md.s 			page 5


 186 002f 00000000 		.4byte	.LEHE3-.LEHB3
 187 0033 00000000 		.4byte	0
 188 0037 00       		.byte	0
 189              		.text
 191              		.section	.rodata.str1.8
 192              		.align	3
 193              	.LC1:
 194 0008 413A2069 		.string	"A: i="
 194      3D00
 195 000e 0000     		.align	3
 196              	.LC2:
 197 0010 0A00     		.string	"\n"
 198 0012 00000000 		.align	3
 198      0000
 199              	.LC3:
 200 0018 41206669 		.string	"A finished!\n"
 200      6E697368 
 200      6564210A 
 200      00
 201              		.text
 202              		.align	2
 203              		.globl	_Z11workerBodyAv
 205              	_Z11workerBodyAv:
 206              	.LFB31:
  29:src/workers.cpp **** 
  30:src/workers.cpp **** void workerBodyA() {
 207              		.loc 1 30 20 is_stmt 1
 208              		.cfi_startproc
 209 0108 130101FE 		addi	sp,sp,-32
 210              		.cfi_def_cfa_offset 32
 211 010c 233C1100 		sd	ra,24(sp)
 212 0110 23388100 		sd	s0,16(sp)
 213 0114 23349100 		sd	s1,8(sp)
 214              		.cfi_offset 1, -8
 215              		.cfi_offset 8, -16
 216              		.cfi_offset 9, -24
 217 0118 13040102 		addi	s0,sp,32
 218              		.cfi_def_cfa 8, 0
  31:src/workers.cpp ****    initSemaphore();
 219              		.loc 1 31 4
 220              		.loc 1 31 17 is_stmt 0
 221 011c 97000000 		call	_Z13initSemaphorev
 221      E7800000 
 222              	.LVL12:
  32:src/workers.cpp ****    //semaphore->wait();
  33:src/workers.cpp ****     // uint8 i = 0;
  34:src/workers.cpp ****     // for (; i < 3; i++) { pprintString("A: i="); printInteger(i); pprintString("\n"); }
  35:src/workers.cpp **** 
  36:src/workers.cpp ****     // pprintString("A: yield\n");
  37:src/workers.cpp ****     // __asm__ ("li t1, 7");
  38:src/workers.cpp ****     // thread_dispatch();
  39:src/workers.cpp **** 
  40:src/workers.cpp ****     // uint64 t1 = 0;
  41:src/workers.cpp ****     // __asm__ ("mv %[t1], t1" : [t1] "=r"(t1));
  42:src/workers.cpp ****     // pprintString("A: t1="); printInteger(t1); pprintString("\n");
  43:src/workers.cpp **** 
  44:src/workers.cpp ****     // uint64 result = fibonacci(20);
GAS LISTING /tmp/ccOzn4md.s 			page 6


  45:src/workers.cpp ****     // pprintString("A: fibonaci="); printInteger(result); pprintString("\n");
  46:src/workers.cpp **** 
  47:src/workers.cpp ****     //for (; i < 6; i++) { pprintString("A: i="); printInteger(i); pprintString("\n"); }
  48:src/workers.cpp ****     time_sleep(40);
 223              		.loc 1 48 5 is_stmt 1
 224              		.loc 1 48 15 is_stmt 0
 225 0124 13058002 		li	a0,40
 226 0128 97000000 		call	_Z10time_sleepm@plt
 226      E7800000 
 227              	.LVL13:
  49:src/workers.cpp ****     for (uint64 i = 0; i < 10; i++) {
 228              		.loc 1 49 5 is_stmt 1
 229              	.LBB2:
 230              		.loc 1 49 17 is_stmt 0
 231 0130 93040000 		li	s1,0
 232 0134 6F000003 		j	.L23
 233              	.LVL14:
 234              	.L20:
 235              	.LBB3:
 236              	.LBB4:
  50:src/workers.cpp ****         pprintString("A: i="); printInteger(i); pprintString("\n");
  51:src/workers.cpp ****         for (uint64 j = 0; j < 10000; j++) {
 237              		.loc 1 51 9 is_stmt 1 discriminator 2
 238 0138 93861600 		addi	a3,a3,1
 239              	.LVL15:
 240              	.L22:
 241              		.loc 1 51 30 discriminator 1
 242 013c B7270000 		li	a5,8192
 243 0140 9387F770 		addi	a5,a5,1807
 244 0144 63EED700 		bgtu	a3,a5,.L19
 245              	.LBB5:
  52:src/workers.cpp ****             for (uint64 k = 0; k < 30000; k++) { /* busy wait */ }
 246              		.loc 1 52 25 is_stmt 0
 247 0148 13070000 		li	a4,0
 248              	.L21:
 249              	.LVL16:
 250              		.loc 1 52 34 is_stmt 1 discriminator 3
 251 014c B7770000 		li	a5,28672
 252 0150 9387F752 		addi	a5,a5,1327
 253 0154 E3E2E7FE 		bgtu	a4,a5,.L20
 254              		.loc 1 52 13 discriminator 2
 255 0158 13071700 		addi	a4,a4,1
 256              	.LVL17:
 257 015c 6FF01FFF 		j	.L21
 258              	.LVL18:
 259              	.L19:
 260              	.LBE5:
 261              	.LBE4:
 262              	.LBE3:
  49:src/workers.cpp ****     for (uint64 i = 0; i < 10; i++) {
 263              		.loc 1 49 5 discriminator 2
 264 0160 93841400 		addi	s1,s1,1
 265              	.LVL19:
 266              	.L23:
  49:src/workers.cpp ****     for (uint64 i = 0; i < 10; i++) {
 267              		.loc 1 49 26 discriminator 1
 268 0164 93079000 		li	a5,9
GAS LISTING /tmp/ccOzn4md.s 			page 7


 269 0168 63EC9702 		bgtu	s1,a5,.L18
 270              	.LBB7:
  50:src/workers.cpp ****         pprintString("A: i="); printInteger(i); pprintString("\n");
 271              		.loc 1 50 9
  50:src/workers.cpp ****         pprintString("A: i="); printInteger(i); pprintString("\n");
 272              		.loc 1 50 21 is_stmt 0
 273 016c 17050000 		lla	a0,.LC1
 273      13050500 
 274 0174 97000000 		call	_Z12pprintStringPKc@plt
 274      E7800000 
 275              	.LVL20:
  50:src/workers.cpp ****         pprintString("A: i="); printInteger(i); pprintString("\n");
 276              		.loc 1 50 32 is_stmt 1
  50:src/workers.cpp ****         pprintString("A: i="); printInteger(i); pprintString("\n");
 277              		.loc 1 50 44 is_stmt 0
 278 017c 13850400 		mv	a0,s1
 279 0180 97000000 		call	_Z12printIntegerm@plt
 279      E7800000 
 280              	.LVL21:
  50:src/workers.cpp ****         pprintString("A: i="); printInteger(i); pprintString("\n");
 281              		.loc 1 50 49 is_stmt 1
  50:src/workers.cpp ****         pprintString("A: i="); printInteger(i); pprintString("\n");
 282              		.loc 1 50 61 is_stmt 0
 283 0188 17050000 		lla	a0,.LC2
 283      13050500 
 284 0190 97000000 		call	_Z12pprintStringPKc@plt
 284      E7800000 
 285              	.LVL22:
  51:src/workers.cpp ****             for (uint64 k = 0; k < 30000; k++) { /* busy wait */ }
 286              		.loc 1 51 9 is_stmt 1
 287              	.LBB6:
  51:src/workers.cpp ****             for (uint64 k = 0; k < 30000; k++) { /* busy wait */ }
 288              		.loc 1 51 21 is_stmt 0
 289 0198 93060000 		li	a3,0
 290 019c 6FF01FFA 		j	.L22
 291              	.LVL23:
 292              	.L18:
 293              	.LBE6:
 294              	.LBE7:
 295              	.LBE2:
  53:src/workers.cpp ****             // TCB::yield();
  54:src/workers.cpp ****         }
  55:src/workers.cpp ****     }
  56:src/workers.cpp ****     pprintString("A finished!\n");
 296              		.loc 1 56 5 is_stmt 1
 297              		.loc 1 56 17 is_stmt 0
 298 01a0 17050000 		lla	a0,.LC3
 298      13050500 
 299 01a8 97000000 		call	_Z12pprintStringPKc@plt
 299      E7800000 
 300              	.LVL24:
  57:src/workers.cpp ****     //semaphore->signal();
  58:src/workers.cpp **** 
  59:src/workers.cpp **** }
 301              		.loc 1 59 1
 302 01b0 83308101 		ld	ra,24(sp)
 303              		.cfi_restore 1
GAS LISTING /tmp/ccOzn4md.s 			page 8


 304 01b4 03340101 		ld	s0,16(sp)
 305              		.cfi_restore 8
 306              		.cfi_def_cfa 2, 32
 307 01b8 83348100 		ld	s1,8(sp)
 308              		.cfi_restore 9
 309              	.LVL25:
 310 01bc 13010102 		addi	sp,sp,32
 311              		.cfi_def_cfa_offset 0
 312 01c0 67800000 		jr	ra
 313              		.cfi_endproc
 314              	.LFE31:
 316              		.section	.rodata.str1.8
 317 0025 000000   		.align	3
 318              	.LC4:
 319 0028 423A2069 		.string	"B: i="
 319      3D00
 320 002e 0000     		.align	3
 321              	.LC5:
 322 0030 42206669 		.string	"B finished!\n"
 322      6E697368 
 322      6564210A 
 322      00
 323              		.text
 324              		.align	2
 325              		.globl	_Z11workerBodyBv
 327              	_Z11workerBodyBv:
 328              	.LFB32:
  60:src/workers.cpp **** 
  61:src/workers.cpp **** void workerBodyB() {
 329              		.loc 1 61 20 is_stmt 1
 330              		.cfi_startproc
 331 01c4 130101FE 		addi	sp,sp,-32
 332              		.cfi_def_cfa_offset 32
 333 01c8 233C1100 		sd	ra,24(sp)
 334 01cc 23388100 		sd	s0,16(sp)
 335 01d0 23349100 		sd	s1,8(sp)
 336              		.cfi_offset 1, -8
 337              		.cfi_offset 8, -16
 338              		.cfi_offset 9, -24
 339 01d4 13040102 		addi	s0,sp,32
 340              		.cfi_def_cfa 8, 0
  62:src/workers.cpp ****     initSemaphore();
 341              		.loc 1 62 5
 342              		.loc 1 62 18 is_stmt 0
 343 01d8 97000000 		call	_Z13initSemaphorev
 343      E7800000 
 344              	.LVL26:
  63:src/workers.cpp ****     //semaphore->wait();
  64:src/workers.cpp ****     // uint8 i = 10;
  65:src/workers.cpp ****     // for (; i < 13; i++) { pprintString("B: i="); printInteger(i); pprintString("\n"); }
  66:src/workers.cpp **** 
  67:src/workers.cpp ****     // pprintString("B: yield\n");
  68:src/workers.cpp ****     // __asm__ ("li t1, 5");
  69:src/workers.cpp ****     // thread_dispatch();
  70:src/workers.cpp **** 
  71:src/workers.cpp ****     // uint64 result = fibonacci(23);
  72:src/workers.cpp ****     // pprintString("B: fibonaci="); printInteger(result); pprintString("\n");
GAS LISTING /tmp/ccOzn4md.s 			page 9


  73:src/workers.cpp **** 
  74:src/workers.cpp ****     //for (; i < 16; i++) { pprintString("B: i="); printInteger(i); pprintString("\n"); }
  75:src/workers.cpp ****     time_sleep(10);
 345              		.loc 1 75 5 is_stmt 1
 346              		.loc 1 75 15 is_stmt 0
 347 01e0 1305A000 		li	a0,10
 348 01e4 97000000 		call	_Z10time_sleepm@plt
 348      E7800000 
 349              	.LVL27:
  76:src/workers.cpp ****     for (uint64 i = 0; i < 16; i++) {
 350              		.loc 1 76 5 is_stmt 1
 351              	.LBB8:
 352              		.loc 1 76 17 is_stmt 0
 353 01ec 93040000 		li	s1,0
 354 01f0 6F000003 		j	.L31
 355              	.LVL28:
 356              	.L28:
 357              	.LBB9:
 358              	.LBB10:
  77:src/workers.cpp ****         pprintString("B: i="); printInteger(i); pprintString("\n");
  78:src/workers.cpp ****         for (uint64 j = 0; j < 10000; j++) {
 359              		.loc 1 78 9 is_stmt 1 discriminator 2
 360 01f4 93861600 		addi	a3,a3,1
 361              	.LVL29:
 362              	.L30:
 363              		.loc 1 78 30 discriminator 1
 364 01f8 B7270000 		li	a5,8192
 365 01fc 9387F770 		addi	a5,a5,1807
 366 0200 63EED700 		bgtu	a3,a5,.L27
 367              	.LBB11:
  79:src/workers.cpp ****             for (uint64 k = 0; k < 30000; k++) { /* busy wait */ }
 368              		.loc 1 79 25 is_stmt 0
 369 0204 13070000 		li	a4,0
 370              	.L29:
 371              	.LVL30:
 372              		.loc 1 79 34 is_stmt 1 discriminator 3
 373 0208 B7770000 		li	a5,28672
 374 020c 9387F752 		addi	a5,a5,1327
 375 0210 E3E2E7FE 		bgtu	a4,a5,.L28
 376              		.loc 1 79 13 discriminator 2
 377 0214 13071700 		addi	a4,a4,1
 378              	.LVL31:
 379 0218 6FF01FFF 		j	.L29
 380              	.LVL32:
 381              	.L27:
 382              	.LBE11:
 383              	.LBE10:
 384              	.LBE9:
  76:src/workers.cpp ****     for (uint64 i = 0; i < 16; i++) {
 385              		.loc 1 76 5 discriminator 2
 386 021c 93841400 		addi	s1,s1,1
 387              	.LVL33:
 388              	.L31:
  76:src/workers.cpp ****     for (uint64 i = 0; i < 16; i++) {
 389              		.loc 1 76 26 discriminator 1
 390 0220 9307F000 		li	a5,15
 391 0224 63EC9702 		bgtu	s1,a5,.L26
GAS LISTING /tmp/ccOzn4md.s 			page 10


 392              	.LBB13:
  77:src/workers.cpp ****         pprintString("B: i="); printInteger(i); pprintString("\n");
 393              		.loc 1 77 9
  77:src/workers.cpp ****         pprintString("B: i="); printInteger(i); pprintString("\n");
 394              		.loc 1 77 21 is_stmt 0
 395 0228 17050000 		lla	a0,.LC4
 395      13050500 
 396 0230 97000000 		call	_Z12pprintStringPKc@plt
 396      E7800000 
 397              	.LVL34:
  77:src/workers.cpp ****         pprintString("B: i="); printInteger(i); pprintString("\n");
 398              		.loc 1 77 32 is_stmt 1
  77:src/workers.cpp ****         pprintString("B: i="); printInteger(i); pprintString("\n");
 399              		.loc 1 77 44 is_stmt 0
 400 0238 13850400 		mv	a0,s1
 401 023c 97000000 		call	_Z12printIntegerm@plt
 401      E7800000 
 402              	.LVL35:
  77:src/workers.cpp ****         pprintString("B: i="); printInteger(i); pprintString("\n");
 403              		.loc 1 77 49 is_stmt 1
  77:src/workers.cpp ****         pprintString("B: i="); printInteger(i); pprintString("\n");
 404              		.loc 1 77 61 is_stmt 0
 405 0244 17050000 		lla	a0,.LC2
 405      13050500 
 406 024c 97000000 		call	_Z12pprintStringPKc@plt
 406      E7800000 
 407              	.LVL36:
  78:src/workers.cpp ****             for (uint64 k = 0; k < 30000; k++) { /* busy wait */ }
 408              		.loc 1 78 9 is_stmt 1
 409              	.LBB12:
  78:src/workers.cpp ****             for (uint64 k = 0; k < 30000; k++) { /* busy wait */ }
 410              		.loc 1 78 21 is_stmt 0
 411 0254 93060000 		li	a3,0
 412 0258 6FF01FFA 		j	.L30
 413              	.LVL37:
 414              	.L26:
 415              	.LBE12:
 416              	.LBE13:
 417              	.LBE8:
  80:src/workers.cpp ****             // TCB::yield();
  81:src/workers.cpp ****         }
  82:src/workers.cpp ****     }
  83:src/workers.cpp ****     pprintString("B finished!\n");
 418              		.loc 1 83 5 is_stmt 1
 419              		.loc 1 83 17 is_stmt 0
 420 025c 17050000 		lla	a0,.LC5
 420      13050500 
 421 0264 97000000 		call	_Z12pprintStringPKc@plt
 421      E7800000 
 422              	.LVL38:
  84:src/workers.cpp ****     //semaphore->signal();
  85:src/workers.cpp **** }
 423              		.loc 1 85 1
 424 026c 83308101 		ld	ra,24(sp)
 425              		.cfi_restore 1
 426 0270 03340101 		ld	s0,16(sp)
 427              		.cfi_restore 8
GAS LISTING /tmp/ccOzn4md.s 			page 11


 428              		.cfi_def_cfa 2, 32
 429 0274 83348100 		ld	s1,8(sp)
 430              		.cfi_restore 9
 431              	.LVL39:
 432 0278 13010102 		addi	sp,sp,32
 433              		.cfi_def_cfa_offset 0
 434 027c 67800000 		jr	ra
 435              		.cfi_endproc
 436              	.LFE32:
 438              		.section	.rodata.str1.8
 439 003d 000000   		.align	3
 440              	.LC6:
 441 0040 433A2069 		.string	"C: i="
 441      3D00
 442 0046 0000     		.align	3
 443              	.LC7:
 444 0048 43206669 		.string	"C finished!\n"
 444      6E697368 
 444      6564210A 
 444      00
 445              		.text
 446              		.align	2
 447              		.globl	_Z11workerBodyCv
 449              	_Z11workerBodyCv:
 450              	.LFB33:
  86:src/workers.cpp **** 
  87:src/workers.cpp **** void workerBodyC() {
 451              		.loc 1 87 20 is_stmt 1
 452              		.cfi_startproc
 453 0280 130101FE 		addi	sp,sp,-32
 454              		.cfi_def_cfa_offset 32
 455 0284 233C1100 		sd	ra,24(sp)
 456 0288 23388100 		sd	s0,16(sp)
 457 028c 23349100 		sd	s1,8(sp)
 458              		.cfi_offset 1, -8
 459              		.cfi_offset 8, -16
 460              		.cfi_offset 9, -24
 461 0290 13040102 		addi	s0,sp,32
 462              		.cfi_def_cfa 8, 0
  88:src/workers.cpp ****     initSemaphore();
 463              		.loc 1 88 5
 464              		.loc 1 88 18 is_stmt 0
 465 0294 97000000 		call	_Z13initSemaphorev
 465      E7800000 
 466              	.LVL40:
  89:src/workers.cpp ****     //semaphore->wait();
  90:src/workers.cpp ****     time_sleep(80);
 467              		.loc 1 90 5 is_stmt 1
 468              		.loc 1 90 15 is_stmt 0
 469 029c 13050005 		li	a0,80
 470 02a0 97000000 		call	_Z10time_sleepm@plt
 470      E7800000 
 471              	.LVL41:
  91:src/workers.cpp ****     for (uint64 i = 0; i < 5; i++) {
 472              		.loc 1 91 5 is_stmt 1
 473              	.LBB14:
 474              		.loc 1 91 17 is_stmt 0
GAS LISTING /tmp/ccOzn4md.s 			page 12


 475 02a8 93040000 		li	s1,0
 476 02ac 6F000003 		j	.L39
 477              	.LVL42:
 478              	.L36:
 479              	.LBB15:
 480              	.LBB16:
  92:src/workers.cpp ****         pprintString("C: i="); printInteger(i); pprintString("\n");
  93:src/workers.cpp ****         for (uint64 j = 0; j < 10000; j++) {
 481              		.loc 1 93 9 is_stmt 1 discriminator 2
 482 02b0 93861600 		addi	a3,a3,1
 483              	.LVL43:
 484              	.L38:
 485              		.loc 1 93 30 discriminator 1
 486 02b4 B7270000 		li	a5,8192
 487 02b8 9387F770 		addi	a5,a5,1807
 488 02bc 63EED700 		bgtu	a3,a5,.L35
 489              	.LBB17:
  94:src/workers.cpp ****             for (uint64 k = 0; k < 30000; k++) { /* busy wait */ }
 490              		.loc 1 94 25 is_stmt 0
 491 02c0 13070000 		li	a4,0
 492              	.L37:
 493              	.LVL44:
 494              		.loc 1 94 34 is_stmt 1 discriminator 3
 495 02c4 B7770000 		li	a5,28672
 496 02c8 9387F752 		addi	a5,a5,1327
 497 02cc E3E2E7FE 		bgtu	a4,a5,.L36
 498              		.loc 1 94 13 discriminator 2
 499 02d0 13071700 		addi	a4,a4,1
 500              	.LVL45:
 501 02d4 6FF01FFF 		j	.L37
 502              	.LVL46:
 503              	.L35:
 504              	.LBE17:
 505              	.LBE16:
 506              	.LBE15:
  91:src/workers.cpp ****     for (uint64 i = 0; i < 5; i++) {
 507              		.loc 1 91 5 discriminator 2
 508 02d8 93841400 		addi	s1,s1,1
 509              	.LVL47:
 510              	.L39:
  91:src/workers.cpp ****     for (uint64 i = 0; i < 5; i++) {
 511              		.loc 1 91 26 discriminator 1
 512 02dc 93074000 		li	a5,4
 513 02e0 63EC9702 		bgtu	s1,a5,.L34
 514              	.LBB19:
  92:src/workers.cpp ****         pprintString("C: i="); printInteger(i); pprintString("\n");
 515              		.loc 1 92 9
  92:src/workers.cpp ****         pprintString("C: i="); printInteger(i); pprintString("\n");
 516              		.loc 1 92 21 is_stmt 0
 517 02e4 17050000 		lla	a0,.LC6
 517      13050500 
 518 02ec 97000000 		call	_Z12pprintStringPKc@plt
 518      E7800000 
 519              	.LVL48:
  92:src/workers.cpp ****         pprintString("C: i="); printInteger(i); pprintString("\n");
 520              		.loc 1 92 32 is_stmt 1
  92:src/workers.cpp ****         pprintString("C: i="); printInteger(i); pprintString("\n");
GAS LISTING /tmp/ccOzn4md.s 			page 13


 521              		.loc 1 92 44 is_stmt 0
 522 02f4 13850400 		mv	a0,s1
 523 02f8 97000000 		call	_Z12printIntegerm@plt
 523      E7800000 
 524              	.LVL49:
  92:src/workers.cpp ****         pprintString("C: i="); printInteger(i); pprintString("\n");
 525              		.loc 1 92 49 is_stmt 1
  92:src/workers.cpp ****         pprintString("C: i="); printInteger(i); pprintString("\n");
 526              		.loc 1 92 61 is_stmt 0
 527 0300 17050000 		lla	a0,.LC2
 527      13050500 
 528 0308 97000000 		call	_Z12pprintStringPKc@plt
 528      E7800000 
 529              	.LVL50:
  93:src/workers.cpp ****             for (uint64 k = 0; k < 30000; k++) { /* busy wait */ }
 530              		.loc 1 93 9 is_stmt 1
 531              	.LBB18:
  93:src/workers.cpp ****             for (uint64 k = 0; k < 30000; k++) { /* busy wait */ }
 532              		.loc 1 93 21 is_stmt 0
 533 0310 93060000 		li	a3,0
 534 0314 6FF01FFA 		j	.L38
 535              	.LVL51:
 536              	.L34:
 537              	.LBE18:
 538              	.LBE19:
 539              	.LBE14:
  95:src/workers.cpp ****             // TCB::yield();
  96:src/workers.cpp ****         }
  97:src/workers.cpp ****     }
  98:src/workers.cpp ****     pprintString("C finished!\n");
 540              		.loc 1 98 5 is_stmt 1
 541              		.loc 1 98 17 is_stmt 0
 542 0318 17050000 		lla	a0,.LC7
 542      13050500 
 543 0320 97000000 		call	_Z12pprintStringPKc@plt
 543      E7800000 
 544              	.LVL52:
  99:src/workers.cpp ****     // uint8 i = 20;
 100:src/workers.cpp ****     // for (; i < 28; i++) {
 101:src/workers.cpp ****     //     pprintString("C: i="); printInteger(i); pprintString("\n");
 102:src/workers.cpp ****     //     for (uint64 j = 0; j < 10000; j++) {
 103:src/workers.cpp ****     //         for (uint64 k = 0; k < 30000; k++) { /* busy wait */ }
 104:src/workers.cpp ****     //         // TCB::yield();
 105:src/workers.cpp ****     //     }
 106:src/workers.cpp ****     // }
 107:src/workers.cpp ****     //
 108:src/workers.cpp ****     // pprintString("C: yield\n");
 109:src/workers.cpp ****     // __asm__ ("li t1, 9");
 110:src/workers.cpp ****     // thread_dispatch();
 111:src/workers.cpp ****     //
 112:src/workers.cpp ****     // uint64 result = fibonacci(35);
 113:src/workers.cpp ****     // pprintString("C: fibonaci="); printInteger(result); pprintString("\n");
 114:src/workers.cpp ****     //
 115:src/workers.cpp ****     // for (; i < 26; i++) { pprintString("C: i="); printInteger(i); pprintString("\n"); }
 116:src/workers.cpp ****     // pprintString("C finished!\n");
 117:src/workers.cpp ****     //semaphore->signal();
 118:src/workers.cpp **** }
GAS LISTING /tmp/ccOzn4md.s 			page 14


 545              		.loc 1 118 1
 546 0328 83308101 		ld	ra,24(sp)
 547              		.cfi_restore 1
 548 032c 03340101 		ld	s0,16(sp)
 549              		.cfi_restore 8
 550              		.cfi_def_cfa 2, 32
 551 0330 83348100 		ld	s1,8(sp)
 552              		.cfi_restore 9
 553              	.LVL53:
 554 0334 13010102 		addi	sp,sp,32
 555              		.cfi_def_cfa_offset 0
 556 0338 67800000 		jr	ra
 557              		.cfi_endproc
 558              	.LFE33:
 560              		.section	.rodata.str1.8
 561 0055 000000   		.align	3
 562              	.LC8:
 563 0058 4D727A69 		.string	"Mrzim boga\n"
 563      6D20626F 
 563      67610A00 
 564              		.text
 565              		.align	2
 566              		.globl	_ZN7WorkerP11workerBodyPEPv
 568              	_ZN7WorkerP11workerBodyPEPv:
 569              	.LFB34:
 119:src/workers.cpp **** 
 120:src/workers.cpp **** 
 121:src/workers.cpp **** 
 122:src/workers.cpp **** 
 123:src/workers.cpp **** void WorkerP::workerBodyP(void* arg) {
 570              		.loc 1 123 38 is_stmt 1
 571              		.cfi_startproc
 572              	.LVL54:
 573 033c 130101FF 		addi	sp,sp,-16
 574              		.cfi_def_cfa_offset 16
 575 0340 23341100 		sd	ra,8(sp)
 576 0344 23308100 		sd	s0,0(sp)
 577              		.cfi_offset 1, -8
 578              		.cfi_offset 8, -16
 579 0348 13040101 		addi	s0,sp,16
 580              		.cfi_def_cfa 8, 0
 124:src/workers.cpp **** 
 125:src/workers.cpp ****     pprintString("Mrzim boga\n");
 581              		.loc 1 125 5
 582              		.loc 1 125 17 is_stmt 0
 583 034c 17050000 		lla	a0,.LC8
 583      13050500 
 584              	.LVL55:
 585 0354 97000000 		call	_Z12pprintStringPKc@plt
 585      E7800000 
 586              	.LVL56:
 126:src/workers.cpp **** 
 127:src/workers.cpp **** }
 587              		.loc 1 127 1
 588 035c 83308100 		ld	ra,8(sp)
 589              		.cfi_restore 1
 590 0360 03340100 		ld	s0,0(sp)
GAS LISTING /tmp/ccOzn4md.s 			page 15


 591              		.cfi_restore 8
 592              		.cfi_def_cfa 2, 16
 593 0364 13010101 		addi	sp,sp,16
 594              		.cfi_def_cfa_offset 0
 595 0368 67800000 		jr	ra
 596              		.cfi_endproc
 597              	.LFE34:
 599              		.globl	semaphore
 600              		.bss
 601              		.align	3
 602              		.set	.LANCHOR0,. + 0
 605              	semaphore:
 606 0000 00000000 		.zero	8
 606      00000000 
 607              		.text
 608              	.Letext0:
 609              		.file 2 "src/../h/../lib/hw.h"
 610              		.file 3 "src/../h/print.hpp"
 611              		.file 4 "src/../h/syscall_c.hpp"
 612              		.file 5 "src/../h/../h/syscall_cpp.hpp"
 613              		.file 6 "src/../h/workers.hpp"
 2192              		.align	3
 2195              	DW.ref.__gxx_personality_v0:
 2196 0000 00000000 		.dword	__gxx_personality_v0
 2196      00000000 
 2197              		.ident	"GCC: (Ubuntu 9.4.0-1ubuntu1~20.04) 9.4.0"
 2198              		.section	.note.GNU-stack,"",@progbits
GAS LISTING /tmp/ccOzn4md.s 			page 16


DEFINED SYMBOLS
                            *ABS*:0000000000000000 workers.cpp
     /tmp/ccOzn4md.s:9      .text:0000000000000000 _Z9fibonaccim
     /tmp/ccOzn4md.s:13     .text:0000000000000000 .L0 
     /tmp/ccOzn4md.s:15     .text:0000000000000000 .L0 
     /tmp/ccOzn4md.s:16     .text:0000000000000004 .L0 
     /tmp/ccOzn4md.s:21     .text:0000000000000014 .L0 
     /tmp/ccOzn4md.s:22     .text:0000000000000014 .L0 
     /tmp/ccOzn4md.s:23     .text:0000000000000014 .L0 
     /tmp/ccOzn4md.s:24     .text:0000000000000014 .L0 
     /tmp/ccOzn4md.s:26     .text:0000000000000018 .L0 
     /tmp/ccOzn4md.s:29     .text:000000000000001c .L0 
     /tmp/ccOzn4md.s:32     .text:0000000000000024 .L0 
     /tmp/ccOzn4md.s:33     .text:0000000000000024 .L0 
     /tmp/ccOzn4md.s:35     .text:0000000000000028 .L0 
     /tmp/ccOzn4md.s:39     .text:000000000000002c .L0 
     /tmp/ccOzn4md.s:40     .text:000000000000002c .L0 
     /tmp/ccOzn4md.s:45     .text:000000000000003c .L0 
     /tmp/ccOzn4md.s:49     .text:0000000000000048 .L0 
     /tmp/ccOzn4md.s:52     .text:000000000000004c .L0 
     /tmp/ccOzn4md.s:53     .text:0000000000000050 .L0 
     /tmp/ccOzn4md.s:54     .text:0000000000000050 .L0 
     /tmp/ccOzn4md.s:56     .text:0000000000000054 .L0 
     /tmp/ccOzn4md.s:57     .text:0000000000000054 .L0 
     /tmp/ccOzn4md.s:59     .text:0000000000000058 .L0 
     /tmp/ccOzn4md.s:62     .text:000000000000005c .L0 
     /tmp/ccOzn4md.s:64     .text:0000000000000060 .L0 
     /tmp/ccOzn4md.s:68     .text:0000000000000064 .L0 
     /tmp/ccOzn4md.s:70     .text:0000000000000064 .L0 
     /tmp/ccOzn4md.s:71     .text:0000000000000064 .L0 
     /tmp/ccOzn4md.s:74     .text:0000000000000070 .L0 
     /tmp/ccOzn4md.s:85     .text:0000000000000070 _Z13initSemaphorev
     /tmp/ccOzn4md.s:88     .text:0000000000000070 .L0 
     /tmp/ccOzn4md.s:2195   .data.rel.local.DW.ref.__gxx_personality_v0:0000000000000000 DW.ref.__gxx_personality_v0
     /tmp/ccOzn4md.s:91     .text:0000000000000070 .L0 
     /tmp/ccOzn4md.s:92     .text:0000000000000070 .L0 
     /tmp/ccOzn4md.s:93     .text:0000000000000070 .L0 
     /tmp/ccOzn4md.s:95     .text:0000000000000078 .L0 
     /tmp/ccOzn4md.s:99     .text:0000000000000080 .L0 
     /tmp/ccOzn4md.s:100    .text:0000000000000084 .L0 
     /tmp/ccOzn4md.s:105    .text:0000000000000094 .L0 
     /tmp/ccOzn4md.s:106    .text:0000000000000094 .L0 
     /tmp/ccOzn4md.s:107    .text:0000000000000094 .L0 
     /tmp/ccOzn4md.s:108    .text:0000000000000094 .L0 
     /tmp/ccOzn4md.s:110    .text:0000000000000098 .L0 
     /tmp/ccOzn4md.s:112    .text:0000000000000098 .L0 
     /tmp/ccOzn4md.s:113    .text:0000000000000098 .L0 
     /tmp/ccOzn4md.s:125    .text:00000000000000b4 .L0 
     /tmp/ccOzn4md.s:127    .text:00000000000000bc .L0 
     /tmp/ccOzn4md.s:130    .text:00000000000000c0 .L0 
     /tmp/ccOzn4md.s:131    .text:00000000000000c4 .L0 
     /tmp/ccOzn4md.s:132    .text:00000000000000c4 .L0 
     /tmp/ccOzn4md.s:134    .text:00000000000000c8 .L0 
     /tmp/ccOzn4md.s:135    .text:00000000000000c8 .L0 
     /tmp/ccOzn4md.s:137    .text:00000000000000cc .L0 
     /tmp/ccOzn4md.s:139    .text:00000000000000d0 .L0 
     /tmp/ccOzn4md.s:141    .text:00000000000000d4 .L0 
GAS LISTING /tmp/ccOzn4md.s 			page 17


     /tmp/ccOzn4md.s:144    .text:00000000000000d8 .L0 
     /tmp/ccOzn4md.s:146    .text:00000000000000d8 .L0 
     /tmp/ccOzn4md.s:147    .text:00000000000000d8 .L0 
     /tmp/ccOzn4md.s:156    .text:00000000000000f0 .L0 
     /tmp/ccOzn4md.s:164    .text:0000000000000108 .L0 
     /tmp/ccOzn4md.s:205    .text:0000000000000108 _Z11workerBodyAv
     /tmp/ccOzn4md.s:208    .text:0000000000000108 .L0 
     /tmp/ccOzn4md.s:209    .text:0000000000000108 .L0 
     /tmp/ccOzn4md.s:210    .text:000000000000010c .L0 
     /tmp/ccOzn4md.s:214    .text:0000000000000118 .L0 
     /tmp/ccOzn4md.s:215    .text:0000000000000118 .L0 
     /tmp/ccOzn4md.s:216    .text:0000000000000118 .L0 
     /tmp/ccOzn4md.s:218    .text:000000000000011c .L0 
     /tmp/ccOzn4md.s:220    .text:000000000000011c .L0 
     /tmp/ccOzn4md.s:221    .text:000000000000011c .L0 
     /tmp/ccOzn4md.s:224    .text:0000000000000124 .L0 
     /tmp/ccOzn4md.s:225    .text:0000000000000124 .L0 
     /tmp/ccOzn4md.s:230    .text:0000000000000130 .L0 
     /tmp/ccOzn4md.s:231    .text:0000000000000130 .L0 
     /tmp/ccOzn4md.s:238    .text:0000000000000138 .L0 
     /tmp/ccOzn4md.s:242    .text:000000000000013c .L0 
     /tmp/ccOzn4md.s:247    .text:0000000000000148 .L0 
     /tmp/ccOzn4md.s:251    .text:000000000000014c .L0 
     /tmp/ccOzn4md.s:255    .text:0000000000000158 .L0 
     /tmp/ccOzn4md.s:264    .text:0000000000000160 .L0 
     /tmp/ccOzn4md.s:268    .text:0000000000000164 .L0 
     /tmp/ccOzn4md.s:272    .text:000000000000016c .L0 
     /tmp/ccOzn4md.s:273    .text:000000000000016c .L0 
     /tmp/ccOzn4md.s:277    .text:000000000000017c .L0 
     /tmp/ccOzn4md.s:278    .text:000000000000017c .L0 
     /tmp/ccOzn4md.s:282    .text:0000000000000188 .L0 
     /tmp/ccOzn4md.s:283    .text:0000000000000188 .L0 
     /tmp/ccOzn4md.s:288    .text:0000000000000198 .L0 
     /tmp/ccOzn4md.s:289    .text:0000000000000198 .L0 
     /tmp/ccOzn4md.s:297    .text:00000000000001a0 .L0 
     /tmp/ccOzn4md.s:298    .text:00000000000001a0 .L0 
     /tmp/ccOzn4md.s:302    .text:00000000000001b0 .L0 
     /tmp/ccOzn4md.s:303    .text:00000000000001b4 .L0 
     /tmp/ccOzn4md.s:305    .text:00000000000001b8 .L0 
     /tmp/ccOzn4md.s:306    .text:00000000000001b8 .L0 
     /tmp/ccOzn4md.s:308    .text:00000000000001bc .L0 
     /tmp/ccOzn4md.s:311    .text:00000000000001c0 .L0 
     /tmp/ccOzn4md.s:313    .text:00000000000001c4 .L0 
     /tmp/ccOzn4md.s:327    .text:00000000000001c4 _Z11workerBodyBv
     /tmp/ccOzn4md.s:330    .text:00000000000001c4 .L0 
     /tmp/ccOzn4md.s:331    .text:00000000000001c4 .L0 
     /tmp/ccOzn4md.s:332    .text:00000000000001c8 .L0 
     /tmp/ccOzn4md.s:336    .text:00000000000001d4 .L0 
     /tmp/ccOzn4md.s:337    .text:00000000000001d4 .L0 
     /tmp/ccOzn4md.s:338    .text:00000000000001d4 .L0 
     /tmp/ccOzn4md.s:340    .text:00000000000001d8 .L0 
     /tmp/ccOzn4md.s:342    .text:00000000000001d8 .L0 
     /tmp/ccOzn4md.s:343    .text:00000000000001d8 .L0 
     /tmp/ccOzn4md.s:346    .text:00000000000001e0 .L0 
     /tmp/ccOzn4md.s:347    .text:00000000000001e0 .L0 
     /tmp/ccOzn4md.s:352    .text:00000000000001ec .L0 
     /tmp/ccOzn4md.s:353    .text:00000000000001ec .L0 
GAS LISTING /tmp/ccOzn4md.s 			page 18


     /tmp/ccOzn4md.s:360    .text:00000000000001f4 .L0 
     /tmp/ccOzn4md.s:364    .text:00000000000001f8 .L0 
     /tmp/ccOzn4md.s:369    .text:0000000000000204 .L0 
     /tmp/ccOzn4md.s:373    .text:0000000000000208 .L0 
     /tmp/ccOzn4md.s:377    .text:0000000000000214 .L0 
     /tmp/ccOzn4md.s:386    .text:000000000000021c .L0 
     /tmp/ccOzn4md.s:390    .text:0000000000000220 .L0 
     /tmp/ccOzn4md.s:394    .text:0000000000000228 .L0 
     /tmp/ccOzn4md.s:395    .text:0000000000000228 .L0 
     /tmp/ccOzn4md.s:399    .text:0000000000000238 .L0 
     /tmp/ccOzn4md.s:400    .text:0000000000000238 .L0 
     /tmp/ccOzn4md.s:404    .text:0000000000000244 .L0 
     /tmp/ccOzn4md.s:405    .text:0000000000000244 .L0 
     /tmp/ccOzn4md.s:410    .text:0000000000000254 .L0 
     /tmp/ccOzn4md.s:411    .text:0000000000000254 .L0 
     /tmp/ccOzn4md.s:419    .text:000000000000025c .L0 
     /tmp/ccOzn4md.s:420    .text:000000000000025c .L0 
     /tmp/ccOzn4md.s:424    .text:000000000000026c .L0 
     /tmp/ccOzn4md.s:425    .text:0000000000000270 .L0 
     /tmp/ccOzn4md.s:427    .text:0000000000000274 .L0 
     /tmp/ccOzn4md.s:428    .text:0000000000000274 .L0 
     /tmp/ccOzn4md.s:430    .text:0000000000000278 .L0 
     /tmp/ccOzn4md.s:433    .text:000000000000027c .L0 
     /tmp/ccOzn4md.s:435    .text:0000000000000280 .L0 
     /tmp/ccOzn4md.s:449    .text:0000000000000280 _Z11workerBodyCv
     /tmp/ccOzn4md.s:452    .text:0000000000000280 .L0 
     /tmp/ccOzn4md.s:453    .text:0000000000000280 .L0 
     /tmp/ccOzn4md.s:454    .text:0000000000000284 .L0 
     /tmp/ccOzn4md.s:458    .text:0000000000000290 .L0 
     /tmp/ccOzn4md.s:459    .text:0000000000000290 .L0 
     /tmp/ccOzn4md.s:460    .text:0000000000000290 .L0 
     /tmp/ccOzn4md.s:462    .text:0000000000000294 .L0 
     /tmp/ccOzn4md.s:464    .text:0000000000000294 .L0 
     /tmp/ccOzn4md.s:465    .text:0000000000000294 .L0 
     /tmp/ccOzn4md.s:468    .text:000000000000029c .L0 
     /tmp/ccOzn4md.s:469    .text:000000000000029c .L0 
     /tmp/ccOzn4md.s:474    .text:00000000000002a8 .L0 
     /tmp/ccOzn4md.s:475    .text:00000000000002a8 .L0 
     /tmp/ccOzn4md.s:482    .text:00000000000002b0 .L0 
     /tmp/ccOzn4md.s:486    .text:00000000000002b4 .L0 
     /tmp/ccOzn4md.s:491    .text:00000000000002c0 .L0 
     /tmp/ccOzn4md.s:495    .text:00000000000002c4 .L0 
     /tmp/ccOzn4md.s:499    .text:00000000000002d0 .L0 
     /tmp/ccOzn4md.s:508    .text:00000000000002d8 .L0 
     /tmp/ccOzn4md.s:512    .text:00000000000002dc .L0 
     /tmp/ccOzn4md.s:516    .text:00000000000002e4 .L0 
     /tmp/ccOzn4md.s:517    .text:00000000000002e4 .L0 
     /tmp/ccOzn4md.s:521    .text:00000000000002f4 .L0 
     /tmp/ccOzn4md.s:522    .text:00000000000002f4 .L0 
     /tmp/ccOzn4md.s:526    .text:0000000000000300 .L0 
     /tmp/ccOzn4md.s:527    .text:0000000000000300 .L0 
     /tmp/ccOzn4md.s:532    .text:0000000000000310 .L0 
     /tmp/ccOzn4md.s:533    .text:0000000000000310 .L0 
     /tmp/ccOzn4md.s:541    .text:0000000000000318 .L0 
     /tmp/ccOzn4md.s:542    .text:0000000000000318 .L0 
     /tmp/ccOzn4md.s:546    .text:0000000000000328 .L0 
     /tmp/ccOzn4md.s:547    .text:000000000000032c .L0 
GAS LISTING /tmp/ccOzn4md.s 			page 19


     /tmp/ccOzn4md.s:549    .text:0000000000000330 .L0 
     /tmp/ccOzn4md.s:550    .text:0000000000000330 .L0 
     /tmp/ccOzn4md.s:552    .text:0000000000000334 .L0 
     /tmp/ccOzn4md.s:555    .text:0000000000000338 .L0 
     /tmp/ccOzn4md.s:557    .text:000000000000033c .L0 
     /tmp/ccOzn4md.s:568    .text:000000000000033c _ZN7WorkerP11workerBodyPEPv
     /tmp/ccOzn4md.s:571    .text:000000000000033c .L0 
     /tmp/ccOzn4md.s:573    .text:000000000000033c .L0 
     /tmp/ccOzn4md.s:574    .text:0000000000000340 .L0 
     /tmp/ccOzn4md.s:577    .text:0000000000000348 .L0 
     /tmp/ccOzn4md.s:578    .text:0000000000000348 .L0 
     /tmp/ccOzn4md.s:580    .text:000000000000034c .L0 
     /tmp/ccOzn4md.s:582    .text:000000000000034c .L0 
     /tmp/ccOzn4md.s:583    .text:000000000000034c .L0 
     /tmp/ccOzn4md.s:588    .text:000000000000035c .L0 
     /tmp/ccOzn4md.s:589    .text:0000000000000360 .L0 
     /tmp/ccOzn4md.s:591    .text:0000000000000364 .L0 
     /tmp/ccOzn4md.s:592    .text:0000000000000364 .L0 
     /tmp/ccOzn4md.s:594    .text:0000000000000368 .L0 
     /tmp/ccOzn4md.s:596    .text:000000000000036c .L0 
     /tmp/ccOzn4md.s:605    .bss:0000000000000000 semaphore
     /tmp/ccOzn4md.s:602    .bss:0000000000000000 .LANCHOR0
     /tmp/ccOzn4md.s:614    .text:000000000000036c .L0 
     /tmp/ccOzn4md.s:93     .text:0000000000000070 .L0 
     /tmp/ccOzn4md.s:125    .text:00000000000000b4 .L0 
     /tmp/ccOzn4md.s:79     .rodata.str1.8:0000000000000000 .LC0
     /tmp/ccOzn4md.s:147    .text:00000000000000d8 .L0 
     /tmp/ccOzn4md.s:193    .rodata.str1.8:0000000000000008 .LC1
     /tmp/ccOzn4md.s:273    .text:000000000000016c .L0 
     /tmp/ccOzn4md.s:196    .rodata.str1.8:0000000000000010 .LC2
     /tmp/ccOzn4md.s:283    .text:0000000000000188 .L0 
     /tmp/ccOzn4md.s:199    .rodata.str1.8:0000000000000018 .LC3
     /tmp/ccOzn4md.s:298    .text:00000000000001a0 .L0 
     /tmp/ccOzn4md.s:318    .rodata.str1.8:0000000000000028 .LC4
     /tmp/ccOzn4md.s:395    .text:0000000000000228 .L0 
     /tmp/ccOzn4md.s:405    .text:0000000000000244 .L0 
     /tmp/ccOzn4md.s:321    .rodata.str1.8:0000000000000030 .LC5
     /tmp/ccOzn4md.s:420    .text:000000000000025c .L0 
     /tmp/ccOzn4md.s:440    .rodata.str1.8:0000000000000040 .LC6
     /tmp/ccOzn4md.s:517    .text:00000000000002e4 .L0 
     /tmp/ccOzn4md.s:527    .text:0000000000000300 .L0 
     /tmp/ccOzn4md.s:443    .rodata.str1.8:0000000000000048 .LC7
     /tmp/ccOzn4md.s:542    .text:0000000000000318 .L0 
     /tmp/ccOzn4md.s:562    .rodata.str1.8:0000000000000058 .LC8
     /tmp/ccOzn4md.s:583    .text:000000000000034c .L0 
     /tmp/ccOzn4md.s:50     .text:000000000000004c .L1
     /tmp/ccOzn4md.s:67     .text:0000000000000064 .L6
     /tmp/ccOzn4md.s:37     .text:000000000000002c .L3
     /tmp/ccOzn4md.s:97     .text:0000000000000080 .L15
     /tmp/ccOzn4md.s:143    .text:00000000000000d8 .L16
     /tmp/ccOzn4md.s:128    .text:00000000000000c0 .L7
     /tmp/ccOzn4md.s:266    .text:0000000000000164 .L23
     /tmp/ccOzn4md.s:259    .text:0000000000000160 .L19
     /tmp/ccOzn4md.s:234    .text:0000000000000138 .L20
     /tmp/ccOzn4md.s:248    .text:000000000000014c .L21
     /tmp/ccOzn4md.s:292    .text:00000000000001a0 .L18
     /tmp/ccOzn4md.s:240    .text:000000000000013c .L22
GAS LISTING /tmp/ccOzn4md.s 			page 20


     /tmp/ccOzn4md.s:388    .text:0000000000000220 .L31
     /tmp/ccOzn4md.s:381    .text:000000000000021c .L27
     /tmp/ccOzn4md.s:356    .text:00000000000001f4 .L28
     /tmp/ccOzn4md.s:370    .text:0000000000000208 .L29
     /tmp/ccOzn4md.s:414    .text:000000000000025c .L26
     /tmp/ccOzn4md.s:362    .text:00000000000001f8 .L30
     /tmp/ccOzn4md.s:510    .text:00000000000002dc .L39
     /tmp/ccOzn4md.s:503    .text:00000000000002d8 .L35
     /tmp/ccOzn4md.s:478    .text:00000000000002b0 .L36
     /tmp/ccOzn4md.s:492    .text:00000000000002c4 .L37
     /tmp/ccOzn4md.s:536    .text:0000000000000318 .L34
     /tmp/ccOzn4md.s:484    .text:00000000000002b4 .L38
     /tmp/ccOzn4md.s:114    .text:000000000000009c .LEHB0
     /tmp/ccOzn4md.s:86     .text:0000000000000070 .LFB30
     /tmp/ccOzn4md.s:117    .text:00000000000000a4 .LEHE0
     /tmp/ccOzn4md.s:120    .text:00000000000000ac .LEHB1
     /tmp/ccOzn4md.s:123    .text:00000000000000b4 .LEHE1
     /tmp/ccOzn4md.s:153    .text:00000000000000ec .L10
     /tmp/ccOzn4md.s:148    .text:00000000000000e0 .LEHB2
     /tmp/ccOzn4md.s:151    .text:00000000000000e8 .LEHE2
     /tmp/ccOzn4md.s:160    .text:0000000000000100 .LEHB3
     /tmp/ccOzn4md.s:163    .text:0000000000000108 .LEHE3
     /tmp/ccOzn4md.s:1334   .debug_abbrev:0000000000000000 .Ldebug_abbrev0
     /tmp/ccOzn4md.s:2169   .debug_str:00000000000002fa .LASF45
     /tmp/ccOzn4md.s:2095   .debug_str:000000000000009b .LASF46
     /tmp/ccOzn4md.s:2137   .debug_str:00000000000001d9 .LASF47
     /tmp/ccOzn4md.s:5      .text:0000000000000000 .Ltext0
     /tmp/ccOzn4md.s:608    .text:000000000000036c .Letext0
     /tmp/ccOzn4md.s:2069   .debug_line:0000000000000000 .Ldebug_line0
     /tmp/ccOzn4md.s:2141   .debug_str:0000000000000218 .LASF0
     /tmp/ccOzn4md.s:2145   .debug_str:0000000000000239 .LASF1
     /tmp/ccOzn4md.s:2135   .debug_str:00000000000001cb .LASF2
     /tmp/ccOzn4md.s:2127   .debug_str:000000000000019b .LASF4
     /tmp/ccOzn4md.s:2163   .debug_str:00000000000002c7 .LASF3
     /tmp/ccOzn4md.s:2087   .debug_str:000000000000006e .LASF5
     /tmp/ccOzn4md.s:2107   .debug_str:0000000000000102 .LASF6
     /tmp/ccOzn4md.s:2147   .debug_str:000000000000024c .LASF7
     /tmp/ccOzn4md.s:2139   .debug_str:0000000000000205 .LASF8
     /tmp/ccOzn4md.s:2179   .debug_str:00000000000003f4 .LASF9
     /tmp/ccOzn4md.s:2121   .debug_str:0000000000000171 .LASF10
     /tmp/ccOzn4md.s:2151   .debug_str:000000000000026e .LASF11
     /tmp/ccOzn4md.s:2171   .debug_str:00000000000003be .LASF12
     /tmp/ccOzn4md.s:2089   .debug_str:0000000000000075 .LASF13
     /tmp/ccOzn4md.s:2079   .debug_str:000000000000002e .LASF14
     /tmp/ccOzn4md.s:2093   .debug_str:000000000000008f .LASF15
     /tmp/ccOzn4md.s:2159   .debug_str:00000000000002a6 .LASF16
     /tmp/ccOzn4md.s:2105   .debug_str:00000000000000ec .LASF17
     /tmp/ccOzn4md.s:2111   .debug_str:0000000000000117 .LASF18
     /tmp/ccOzn4md.s:2071   .debug_str:0000000000000000 .LASF22
     /tmp/ccOzn4md.s:2091   .debug_str:0000000000000085 .LASF19
     /tmp/ccOzn4md.s:2157   .debug_str:000000000000029e .LASF48
     /tmp/ccOzn4md.s:2085   .debug_str:0000000000000062 .LASF20
     /tmp/ccOzn4md.s:2155   .debug_str:0000000000000282 .LASF49
     /tmp/ccOzn4md.s:2131   .debug_str:00000000000001b5 .LASF50
     /tmp/ccOzn4md.s:2129   .debug_str:00000000000001a2 .LASF51
     /tmp/ccOzn4md.s:2117   .debug_str:000000000000013e .LASF52
     /tmp/ccOzn4md.s:2103   .debug_str:00000000000000e3 .LASF21
GAS LISTING /tmp/ccOzn4md.s 			page 21


     /tmp/ccOzn4md.s:2099   .debug_str:00000000000000bb .LASF53
     /tmp/ccOzn4md.s:2149   .debug_str:000000000000025f .LASF23
     /tmp/ccOzn4md.s:2175   .debug_str:00000000000003df .LASF24
     /tmp/ccOzn4md.s:569    .text:000000000000033c .LFB34
     /tmp/ccOzn4md.s:597    .text:000000000000036c .LFE34
     /tmp/ccOzn4md.s:2153   .debug_str:000000000000027d .LASF54
     /tmp/ccOzn4md.s:1881   .debug_loc:0000000000000000 .LLST10
     /tmp/ccOzn4md.s:1895   .debug_loc:0000000000000039 .LLST11
     /tmp/ccOzn4md.s:586    .text:000000000000035c .LVL56
     /tmp/ccOzn4md.s:2077   .debug_str:0000000000000022 .LASF25
     /tmp/ccOzn4md.s:2119   .debug_str:0000000000000160 .LASF27
     /tmp/ccOzn4md.s:450    .text:0000000000000280 .LFB33
     /tmp/ccOzn4md.s:558    .text:000000000000033c .LFE33
     /tmp/ccOzn4md.s:473    .text:00000000000002a8 .LBB14
     /tmp/ccOzn4md.s:539    .text:0000000000000318 .LBE14
     /tmp/ccOzn4md.s:1909   .debug_loc:0000000000000072 .LLST7
     /tmp/ccOzn4md.s:2049   .debug_ranges:0000000000000000 .Ldebug_ranges0
     /tmp/ccOzn4md.s:1921   .debug_loc:00000000000000a9 .LLST8
     /tmp/ccOzn4md.s:489    .text:00000000000002c0 .LBB17
     /tmp/ccOzn4md.s:504    .text:00000000000002d8 .LBE17
     /tmp/ccOzn4md.s:1933   .debug_loc:00000000000000e0 .LLST9
     /tmp/ccOzn4md.s:519    .text:00000000000002f4 .LVL48
     /tmp/ccOzn4md.s:524    .text:0000000000000300 .LVL49
     /tmp/ccOzn4md.s:529    .text:0000000000000310 .LVL50
     /tmp/ccOzn4md.s:466    .text:000000000000029c .LVL40
     /tmp/ccOzn4md.s:471    .text:00000000000002a8 .LVL41
     /tmp/ccOzn4md.s:544    .text:0000000000000328 .LVL52
     /tmp/ccOzn4md.s:2075   .debug_str:0000000000000016 .LASF26
     /tmp/ccOzn4md.s:2083   .debug_str:0000000000000051 .LASF28
     /tmp/ccOzn4md.s:328    .text:00000000000001c4 .LFB32
     /tmp/ccOzn4md.s:436    .text:0000000000000280 .LFE32
     /tmp/ccOzn4md.s:351    .text:00000000000001ec .LBB8
     /tmp/ccOzn4md.s:417    .text:000000000000025c .LBE8
     /tmp/ccOzn4md.s:1944   .debug_loc:0000000000000116 .LLST4
     /tmp/ccOzn4md.s:1956   .debug_loc:000000000000014d .LLST5
     /tmp/ccOzn4md.s:367    .text:0000000000000204 .LBB11
     /tmp/ccOzn4md.s:382    .text:000000000000021c .LBE11
     /tmp/ccOzn4md.s:1968   .debug_loc:0000000000000184 .LLST6
     /tmp/ccOzn4md.s:397    .text:0000000000000238 .LVL34
     /tmp/ccOzn4md.s:402    .text:0000000000000244 .LVL35
     /tmp/ccOzn4md.s:407    .text:0000000000000254 .LVL36
     /tmp/ccOzn4md.s:344    .text:00000000000001e0 .LVL26
     /tmp/ccOzn4md.s:349    .text:00000000000001ec .LVL27
     /tmp/ccOzn4md.s:422    .text:000000000000026c .LVL38
     /tmp/ccOzn4md.s:2073   .debug_str:000000000000000a .LASF29
     /tmp/ccOzn4md.s:2167   .debug_str:00000000000002e9 .LASF30
     /tmp/ccOzn4md.s:206    .text:0000000000000108 .LFB31
     /tmp/ccOzn4md.s:314    .text:00000000000001c4 .LFE31
     /tmp/ccOzn4md.s:229    .text:0000000000000130 .LBB2
     /tmp/ccOzn4md.s:295    .text:00000000000001a0 .LBE2
     /tmp/ccOzn4md.s:1979   .debug_loc:00000000000001ba .LLST1
     /tmp/ccOzn4md.s:1991   .debug_loc:00000000000001f1 .LLST2
     /tmp/ccOzn4md.s:245    .text:0000000000000148 .LBB5
     /tmp/ccOzn4md.s:260    .text:0000000000000160 .LBE5
     /tmp/ccOzn4md.s:2003   .debug_loc:0000000000000228 .LLST3
     /tmp/ccOzn4md.s:275    .text:000000000000017c .LVL20
     /tmp/ccOzn4md.s:280    .text:0000000000000188 .LVL21
GAS LISTING /tmp/ccOzn4md.s 			page 22


     /tmp/ccOzn4md.s:285    .text:0000000000000198 .LVL22
     /tmp/ccOzn4md.s:222    .text:0000000000000124 .LVL12
     /tmp/ccOzn4md.s:227    .text:0000000000000130 .LVL13
     /tmp/ccOzn4md.s:300    .text:00000000000001b0 .LVL24
     /tmp/ccOzn4md.s:2109   .debug_str:0000000000000109 .LASF31
     /tmp/ccOzn4md.s:2081   .debug_str:000000000000003e .LASF32
     /tmp/ccOzn4md.s:165    .text:0000000000000108 .LFE30
     /tmp/ccOzn4md.s:116    .text:00000000000000a4 .LVL7
     /tmp/ccOzn4md.s:122    .text:00000000000000b4 .LVL8
     /tmp/ccOzn4md.s:150    .text:00000000000000e8 .LVL9
     /tmp/ccOzn4md.s:158    .text:00000000000000fc .LVL10
     /tmp/ccOzn4md.s:162    .text:0000000000000108 .LVL11
     /tmp/ccOzn4md.s:2181   .debug_str:0000000000000404 .LASF55
     /tmp/ccOzn4md.s:2177   .debug_str:00000000000003e6 .LASF56
     /tmp/ccOzn4md.s:10     .text:0000000000000000 .LFB29
     /tmp/ccOzn4md.s:75     .text:0000000000000070 .LFE29
     /tmp/ccOzn4md.s:2014   .debug_loc:000000000000025e .LLST0
     /tmp/ccOzn4md.s:42     .text:0000000000000038 .LVL2
     /tmp/ccOzn4md.s:47     .text:0000000000000048 .LVL3
     /tmp/ccOzn4md.s:72     .text:000000000000006c .LVL6
     /tmp/ccOzn4md.s:2143   .debug_str:0000000000000225 .LASF33
     /tmp/ccOzn4md.s:2125   .debug_str:000000000000018e .LASF35
     /tmp/ccOzn4md.s:2173   .debug_str:00000000000003cd .LASF34
     /tmp/ccOzn4md.s:2115   .debug_str:0000000000000131 .LASF36
     /tmp/ccOzn4md.s:2185   .debug_str:000000000000041b .LASF37
     /tmp/ccOzn4md.s:2161   .debug_str:00000000000002bc .LASF38
     /tmp/ccOzn4md.s:2133   .debug_str:00000000000001c5 .LASF39
     /tmp/ccOzn4md.s:2183   .debug_str:000000000000040e .LASF40
     /tmp/ccOzn4md.s:2187   .debug_str:000000000000042b .LASF41
     /tmp/ccOzn4md.s:2165   .debug_str:00000000000002d9 .LASF42
     /tmp/ccOzn4md.s:2123   .debug_str:000000000000017f .LASF57
     /tmp/ccOzn4md.s:2101   .debug_str:00000000000000cb .LASF58
     /tmp/ccOzn4md.s:2113   .debug_str:000000000000011c .LASF43
     /tmp/ccOzn4md.s:2097   .debug_str:00000000000000ab .LASF44
     /tmp/ccOzn4md.s:572    .text:000000000000033c .LVL54
     /tmp/ccOzn4md.s:584    .text:0000000000000354 .LVL55
     /tmp/ccOzn4md.s:477    .text:00000000000002b0 .LVL42
     /tmp/ccOzn4md.s:553    .text:0000000000000334 .LVL53
     /tmp/ccOzn4md.s:509    .text:00000000000002dc .LVL47
     /tmp/ccOzn4md.s:535    .text:0000000000000318 .LVL51
     /tmp/ccOzn4md.s:483    .text:00000000000002b4 .LVL43
     /tmp/ccOzn4md.s:493    .text:00000000000002c4 .LVL44
     /tmp/ccOzn4md.s:502    .text:00000000000002d8 .LVL46
     /tmp/ccOzn4md.s:355    .text:00000000000001f4 .LVL28
     /tmp/ccOzn4md.s:431    .text:0000000000000278 .LVL39
     /tmp/ccOzn4md.s:387    .text:0000000000000220 .LVL33
     /tmp/ccOzn4md.s:413    .text:000000000000025c .LVL37
     /tmp/ccOzn4md.s:361    .text:00000000000001f8 .LVL29
     /tmp/ccOzn4md.s:371    .text:0000000000000208 .LVL30
     /tmp/ccOzn4md.s:380    .text:000000000000021c .LVL32
     /tmp/ccOzn4md.s:233    .text:0000000000000138 .LVL14
     /tmp/ccOzn4md.s:309    .text:00000000000001bc .LVL25
     /tmp/ccOzn4md.s:265    .text:0000000000000164 .LVL19
     /tmp/ccOzn4md.s:291    .text:00000000000001a0 .LVL23
     /tmp/ccOzn4md.s:239    .text:000000000000013c .LVL15
     /tmp/ccOzn4md.s:249    .text:000000000000014c .LVL16
     /tmp/ccOzn4md.s:258    .text:0000000000000160 .LVL18
GAS LISTING /tmp/ccOzn4md.s 			page 23


     /tmp/ccOzn4md.s:14     .text:0000000000000000 .LVL0
     /tmp/ccOzn4md.s:36     .text:000000000000002c .LVL1
     /tmp/ccOzn4md.s:60     .text:0000000000000058 .LVL4
     /tmp/ccOzn4md.s:66     .text:0000000000000064 .LVL5
     /tmp/ccOzn4md.s:615    .debug_info:0000000000000000 .Ldebug_info0
     /tmp/ccOzn4md.s:236    .text:0000000000000138 .LBB4
     /tmp/ccOzn4md.s:261    .text:0000000000000160 .LBE4
     /tmp/ccOzn4md.s:287    .text:0000000000000198 .LBB6
     /tmp/ccOzn4md.s:293    .text:00000000000001a0 .LBE6
     /tmp/ccOzn4md.s:358    .text:00000000000001f4 .LBB10
     /tmp/ccOzn4md.s:383    .text:000000000000021c .LBE10
     /tmp/ccOzn4md.s:409    .text:0000000000000254 .LBB12
     /tmp/ccOzn4md.s:415    .text:000000000000025c .LBE12
     /tmp/ccOzn4md.s:480    .text:00000000000002b0 .LBB16
     /tmp/ccOzn4md.s:505    .text:00000000000002d8 .LBE16
     /tmp/ccOzn4md.s:531    .text:0000000000000310 .LBB18
     /tmp/ccOzn4md.s:537    .text:0000000000000318 .LBE18
     /tmp/ccOzn4md.s:168    .gcc_except_table:0000000000000000 .LLSDA30

UNDEFINED SYMBOLS
_Z15thread_dispatchv
_Znwm
_ZN9SemaphoreC1Ej
_Z12pprintStringPKc
_ZdlPv
_Unwind_Resume
__gxx_personality_v0
_Z10time_sleepm
_Z12printIntegerm
