GAS LISTING /tmp/ccLfy504.s 			page 1


   1              		.file	"workers.cpp"
   2              		.option pic
   3              		.option norelax
   4              		.text
   5              	.Ltext0:
   6              		.align	2
   7              		.globl	_Z9fibonaccim
   9              	_Z9fibonaccim:
  10              	.LFB20:
  11              		.file 1 "src/workers.cpp"
   1:src/workers.cpp **** //
   2:src/workers.cpp **** // Created by os on 9/24/25.
   3:src/workers.cpp **** //
   4:src/workers.cpp **** #include "../h/workers.hpp"
   5:src/workers.cpp **** #include "../lib/hw.h"
   6:src/workers.cpp **** 
   7:src/workers.cpp **** #include "../h/print.hpp"
   8:src/workers.cpp **** #include "../h/syscall_c.hpp"
   9:src/workers.cpp **** #include "../h/syscall_cpp.hpp"
  10:src/workers.cpp **** 
  11:src/workers.cpp **** uint64 fibonacci(uint64 n) {
  12              		.loc 1 11 28
  13              		.cfi_startproc
  14              	.LVL0:
  15 0000 130101FE 		addi	sp,sp,-32
  16              		.cfi_def_cfa_offset 32
  17 0004 233C1100 		sd	ra,24(sp)
  18 0008 23388100 		sd	s0,16(sp)
  19 000c 23349100 		sd	s1,8(sp)
  20 0010 23302101 		sd	s2,0(sp)
  21              		.cfi_offset 1, -8
  22              		.cfi_offset 8, -16
  23              		.cfi_offset 9, -24
  24              		.cfi_offset 18, -32
  25 0014 13040102 		addi	s0,sp,32
  26              		.cfi_def_cfa 8, 0
  27 0018 93040500 		mv	s1,a0
  12:src/workers.cpp ****     if (n == 0 || n == 1) { return n; }
  28              		.loc 1 12 5
  29 001c 93071000 		li	a5,1
  30 0020 63F6A702 		bleu	a0,a5,.L1
  13:src/workers.cpp ****     if (n % 4 == 0) thread_dispatch();
  31              		.loc 1 13 5
  32              		.loc 1 13 11 is_stmt 0
  33 0024 93773500 		andi	a5,a0,3
  34              		.loc 1 13 5
  35 0028 638E0702 		beqz	a5,.L6
  36              	.LVL1:
  37              	.L3:
  14:src/workers.cpp ****     return fibonacci(n - 1) + fibonacci(n - 2);
  38              		.loc 1 14 5 is_stmt 1
  39              		.loc 1 14 21 is_stmt 0
  40 002c 1385F4FF 		addi	a0,s1,-1
  41 0030 97000000 		call	_Z9fibonaccim
  41      E7800000 
  42              	.LVL2:
  43 0038 13090500 		mv	s2,a0
GAS LISTING /tmp/ccLfy504.s 			page 2


  44              		.loc 1 14 40
  45 003c 1385E4FF 		addi	a0,s1,-2
  46 0040 97000000 		call	_Z9fibonaccim
  46      E7800000 
  47              	.LVL3:
  48              		.loc 1 14 46
  49 0048 3305A900 		add	a0,s2,a0
  50              	.L1:
  15:src/workers.cpp **** }
  51              		.loc 1 15 1
  52 004c 83308101 		ld	ra,24(sp)
  53              		.cfi_remember_state
  54              		.cfi_restore 1
  55 0050 03340101 		ld	s0,16(sp)
  56              		.cfi_restore 8
  57              		.cfi_def_cfa 2, 32
  58 0054 83348100 		ld	s1,8(sp)
  59              		.cfi_restore 9
  60              	.LVL4:
  61 0058 03390100 		ld	s2,0(sp)
  62              		.cfi_restore 18
  63 005c 13010102 		addi	sp,sp,32
  64              		.cfi_def_cfa_offset 0
  65 0060 67800000 		jr	ra
  66              	.LVL5:
  67              	.L6:
  68              		.cfi_restore_state
  13:src/workers.cpp ****     if (n % 4 == 0) thread_dispatch();
  69              		.loc 1 13 21 is_stmt 1 discriminator 1
  13:src/workers.cpp ****     if (n % 4 == 0) thread_dispatch();
  70              		.loc 1 13 36 is_stmt 0 discriminator 1
  71 0064 97000000 		call	_Z15thread_dispatchv@plt
  71      E7800000 
  72              	.LVL6:
  73 006c 6FF01FFC 		j	.L3
  74              		.cfi_endproc
  75              	.LFE20:
  77              		.section	.rodata.str1.8,"aMS",@progbits,1
  78              		.align	3
  79              	.LC0:
  80 0000 4661696C 		.string	"Failed\n"
  80      65640A00 
  81              		.text
  82              		.align	2
  83              		.globl	_Z13initSemaphorev
  85              	_Z13initSemaphorev:
  86              	.LFB21:
  16:src/workers.cpp **** 
  17:src/workers.cpp **** Semaphore* semaphore;
  18:src/workers.cpp **** 
  19:src/workers.cpp **** void initSemaphore() {
  87              		.loc 1 19 22 is_stmt 1
  88              		.cfi_startproc
  89              		.cfi_personality 0x9b,DW.ref.__gxx_personality_v0
  90              		.cfi_lsda 0x1b,.LLSDA21
  20:src/workers.cpp ****     if (semaphore) {
  91              		.loc 1 20 5
GAS LISTING /tmp/ccLfy504.s 			page 3


  92              		.loc 1 20 18 is_stmt 0
  93 0070 97070000 		ld	a5,.LANCHOR0
  93      83B70700 
  94              		.loc 1 20 5
  95 0078 63840700 		beqz	a5,.L15
  96 007c 67800000 		ret
  97              	.L15:
  19:src/workers.cpp ****     if (semaphore) {
  98              		.loc 1 19 22
  99 0080 130101FE 		addi	sp,sp,-32
 100              		.cfi_def_cfa_offset 32
 101 0084 233C1100 		sd	ra,24(sp)
 102 0088 23388100 		sd	s0,16(sp)
 103 008c 23349100 		sd	s1,8(sp)
 104 0090 23302101 		sd	s2,0(sp)
 105              		.cfi_offset 1, -8
 106              		.cfi_offset 8, -16
 107              		.cfi_offset 9, -24
 108              		.cfi_offset 18, -32
 109 0094 13040102 		addi	s0,sp,32
 110              		.cfi_def_cfa 8, 0
  21:src/workers.cpp ****         return;
  22:src/workers.cpp ****     }
  23:src/workers.cpp ****     semaphore = new Semaphore(2);
 111              		.loc 1 23 5 is_stmt 1
 112              		.loc 1 23 32 is_stmt 0
 113 0098 13050001 		li	a0,16
 114              	.LEHB0:
 115 009c 97000000 		call	_Znwm@plt
 115      E7800000 
 116              	.LVL7:
 117              	.LEHE0:
 118 00a4 93040500 		mv	s1,a0
 119 00a8 93052000 		li	a1,2
 120              	.LEHB1:
 121 00ac 97000000 		call	_ZN9SemaphoreC1Ej@plt
 121      E7800000 
 122              	.LVL8:
 123              	.LEHE1:
 124              		.loc 1 23 15 discriminator 2
 125 00b4 97070000 		sd	s1,.LANCHOR0,a5
 125      23B09700 
  24:src/workers.cpp ****     if (semaphore == nullptr) {
 126              		.loc 1 24 5 is_stmt 1 discriminator 2
 127 00bc 638E0400 		beqz	s1,.L16
 128              	.L7:
  25:src/workers.cpp ****         pprintString("Failed\n");
  26:src/workers.cpp **** 
  27:src/workers.cpp ****     }
  28:src/workers.cpp **** }
 129              		.loc 1 28 1 is_stmt 0
 130 00c0 83308101 		ld	ra,24(sp)
 131              		.cfi_remember_state
 132              		.cfi_restore 1
 133 00c4 03340101 		ld	s0,16(sp)
 134              		.cfi_restore 8
 135              		.cfi_def_cfa 2, 32
GAS LISTING /tmp/ccLfy504.s 			page 4


 136 00c8 83348100 		ld	s1,8(sp)
 137              		.cfi_restore 9
 138 00cc 03390100 		ld	s2,0(sp)
 139              		.cfi_restore 18
 140 00d0 13010102 		addi	sp,sp,32
 141              		.cfi_def_cfa_offset 0
 142 00d4 67800000 		jr	ra
 143              	.L16:
 144              		.cfi_restore_state
  25:src/workers.cpp ****         pprintString("Failed\n");
 145              		.loc 1 25 9 is_stmt 1
  25:src/workers.cpp ****         pprintString("Failed\n");
 146              		.loc 1 25 21 is_stmt 0
 147 00d8 17050000 		lla	a0,.LC0
 147      13050500 
 148              	.LEHB2:
 149 00e0 97000000 		call	_Z12pprintStringPKc@plt
 149      E7800000 
 150              	.LVL9:
 151              	.LEHE2:
 152 00e8 6FF09FFD 		j	.L7
 153              	.L10:
 154 00ec 13090500 		mv	s2,a0
  23:src/workers.cpp ****     if (semaphore == nullptr) {
 155              		.loc 1 23 32
 156 00f0 13850400 		mv	a0,s1
 157 00f4 97000000 		call	_ZdlPv@plt
 157      E7800000 
 158              	.LVL10:
 159 00fc 13050900 		mv	a0,s2
 160              	.LEHB3:
 161 0100 97000000 		call	_Unwind_Resume@plt
 161      E7800000 
 162              	.LVL11:
 163              	.LEHE3:
 164              		.cfi_endproc
 165              	.LFE21:
 166              		.globl	__gxx_personality_v0
 167              		.section	.gcc_except_table,"a",@progbits
 168              	.LLSDA21:
 169 0000 FF       		.byte	0xff
 170 0001 FF       		.byte	0xff
 171 0002 03       		.byte	0x3
 172 0003 34       		.byte	0x34
 173 0004 00000000 		.4byte	.LEHB0-.LFB21
 174 0008 00000000 		.4byte	.LEHE0-.LEHB0
 175 000c 00000000 		.4byte	0
 176 0010 00       		.byte	0
 177 0011 00000000 		.4byte	.LEHB1-.LFB21
 178 0015 00000000 		.4byte	.LEHE1-.LEHB1
 179 0019 00000000 		.4byte	.L10-.LFB21
 180 001d 00       		.byte	0
 181 001e 00000000 		.4byte	.LEHB2-.LFB21
 182 0022 00000000 		.4byte	.LEHE2-.LEHB2
 183 0026 00000000 		.4byte	0
 184 002a 00       		.byte	0
 185 002b 00000000 		.4byte	.LEHB3-.LFB21
GAS LISTING /tmp/ccLfy504.s 			page 5


 186 002f 00000000 		.4byte	.LEHE3-.LEHB3
 187 0033 00000000 		.4byte	0
 188 0037 00       		.byte	0
 189              		.text
 191              		.section	.rodata.str1.8
 192              		.align	3
 193              	.LC1:
 194 0008 413A2069 		.string	"A: i="
 194      3D00
 195 000e 0000     		.align	3
 196              	.LC2:
 197 0010 0A00     		.string	"\n"
 198 0012 00000000 		.align	3
 198      0000
 199              	.LC3:
 200 0018 41206669 		.string	"A finished!\n"
 200      6E697368 
 200      6564210A 
 200      00
 201              		.text
 202              		.align	2
 203              		.globl	_Z11workerBodyAv
 205              	_Z11workerBodyAv:
 206              	.LFB22:
  29:src/workers.cpp **** 
  30:src/workers.cpp **** void workerBodyA() {
 207              		.loc 1 30 20 is_stmt 1
 208              		.cfi_startproc
 209 0108 130101FE 		addi	sp,sp,-32
 210              		.cfi_def_cfa_offset 32
 211 010c 233C1100 		sd	ra,24(sp)
 212 0110 23388100 		sd	s0,16(sp)
 213 0114 23349100 		sd	s1,8(sp)
 214              		.cfi_offset 1, -8
 215              		.cfi_offset 8, -16
 216              		.cfi_offset 9, -24
 217 0118 13040102 		addi	s0,sp,32
 218              		.cfi_def_cfa 8, 0
  31:src/workers.cpp ****    initSemaphore();
 219              		.loc 1 31 4
 220              		.loc 1 31 17 is_stmt 0
 221 011c 97000000 		call	_Z13initSemaphorev
 221      E7800000 
 222              	.LVL12:
  32:src/workers.cpp ****    semaphore->wait();
 223              		.loc 1 32 4 is_stmt 1
 224              		.loc 1 32 19 is_stmt 0
 225 0124 17050000 		ld	a0,.LANCHOR0
 225      03350500 
 226 012c 97000000 		call	_ZN9Semaphore4waitEv@plt
 226      E7800000 
 227              	.LVL13:
  33:src/workers.cpp ****     // uint8 i = 0;
  34:src/workers.cpp ****     // for (; i < 3; i++) { pprintString("A: i="); printInteger(i); pprintString("\n"); }
  35:src/workers.cpp **** 
  36:src/workers.cpp ****     // pprintString("A: yield\n");
  37:src/workers.cpp ****     // __asm__ ("li t1, 7");
GAS LISTING /tmp/ccLfy504.s 			page 6


  38:src/workers.cpp ****     // thread_dispatch();
  39:src/workers.cpp **** 
  40:src/workers.cpp ****     // uint64 t1 = 0;
  41:src/workers.cpp ****     // __asm__ ("mv %[t1], t1" : [t1] "=r"(t1));
  42:src/workers.cpp ****     // pprintString("A: t1="); printInteger(t1); pprintString("\n");
  43:src/workers.cpp **** 
  44:src/workers.cpp ****     // uint64 result = fibonacci(20);
  45:src/workers.cpp ****     // pprintString("A: fibonaci="); printInteger(result); pprintString("\n");
  46:src/workers.cpp **** 
  47:src/workers.cpp ****     //for (; i < 6; i++) { pprintString("A: i="); printInteger(i); pprintString("\n"); }
  48:src/workers.cpp ****     for (uint64 i = 0; i < 10; i++) {
 228              		.loc 1 48 5 is_stmt 1
 229              	.LBB2:
 230              		.loc 1 48 17 is_stmt 0
 231 0134 93040000 		li	s1,0
 232 0138 6F000003 		j	.L23
 233              	.LVL14:
 234              	.L20:
 235              	.LBB3:
 236              	.LBB4:
  49:src/workers.cpp ****         pprintString("A: i="); printInteger(i); pprintString("\n");
  50:src/workers.cpp ****         for (uint64 j = 0; j < 10000; j++) {
 237              		.loc 1 50 9 is_stmt 1 discriminator 2
 238 013c 93861600 		addi	a3,a3,1
 239              	.LVL15:
 240              	.L22:
 241              		.loc 1 50 30 discriminator 1
 242 0140 B7270000 		li	a5,8192
 243 0144 9387F770 		addi	a5,a5,1807
 244 0148 63EED700 		bgtu	a3,a5,.L19
 245              	.LBB5:
  51:src/workers.cpp ****             for (uint64 k = 0; k < 30000; k++) { /* busy wait */ }
 246              		.loc 1 51 25 is_stmt 0
 247 014c 13070000 		li	a4,0
 248              	.L21:
 249              	.LVL16:
 250              		.loc 1 51 34 is_stmt 1 discriminator 3
 251 0150 B7770000 		li	a5,28672
 252 0154 9387F752 		addi	a5,a5,1327
 253 0158 E3E2E7FE 		bgtu	a4,a5,.L20
 254              		.loc 1 51 13 discriminator 2
 255 015c 13071700 		addi	a4,a4,1
 256              	.LVL17:
 257 0160 6FF01FFF 		j	.L21
 258              	.LVL18:
 259              	.L19:
 260              	.LBE5:
 261              	.LBE4:
 262              	.LBE3:
  48:src/workers.cpp ****         pprintString("A: i="); printInteger(i); pprintString("\n");
 263              		.loc 1 48 5 discriminator 2
 264 0164 93841400 		addi	s1,s1,1
 265              	.LVL19:
 266              	.L23:
  48:src/workers.cpp ****         pprintString("A: i="); printInteger(i); pprintString("\n");
 267              		.loc 1 48 26 discriminator 1
 268 0168 93079000 		li	a5,9
GAS LISTING /tmp/ccLfy504.s 			page 7


 269 016c 63EC9702 		bgtu	s1,a5,.L18
 270              	.LBB7:
  49:src/workers.cpp ****         pprintString("A: i="); printInteger(i); pprintString("\n");
 271              		.loc 1 49 9
  49:src/workers.cpp ****         pprintString("A: i="); printInteger(i); pprintString("\n");
 272              		.loc 1 49 21 is_stmt 0
 273 0170 17050000 		lla	a0,.LC1
 273      13050500 
 274 0178 97000000 		call	_Z12pprintStringPKc@plt
 274      E7800000 
 275              	.LVL20:
  49:src/workers.cpp ****         pprintString("A: i="); printInteger(i); pprintString("\n");
 276              		.loc 1 49 32 is_stmt 1
  49:src/workers.cpp ****         pprintString("A: i="); printInteger(i); pprintString("\n");
 277              		.loc 1 49 44 is_stmt 0
 278 0180 13850400 		mv	a0,s1
 279 0184 97000000 		call	_Z12printIntegerm@plt
 279      E7800000 
 280              	.LVL21:
  49:src/workers.cpp ****         pprintString("A: i="); printInteger(i); pprintString("\n");
 281              		.loc 1 49 49 is_stmt 1
  49:src/workers.cpp ****         pprintString("A: i="); printInteger(i); pprintString("\n");
 282              		.loc 1 49 61 is_stmt 0
 283 018c 17050000 		lla	a0,.LC2
 283      13050500 
 284 0194 97000000 		call	_Z12pprintStringPKc@plt
 284      E7800000 
 285              	.LVL22:
  50:src/workers.cpp ****             for (uint64 k = 0; k < 30000; k++) { /* busy wait */ }
 286              		.loc 1 50 9 is_stmt 1
 287              	.LBB6:
  50:src/workers.cpp ****             for (uint64 k = 0; k < 30000; k++) { /* busy wait */ }
 288              		.loc 1 50 21 is_stmt 0
 289 019c 93060000 		li	a3,0
 290 01a0 6FF01FFA 		j	.L22
 291              	.LVL23:
 292              	.L18:
 293              	.LBE6:
 294              	.LBE7:
 295              	.LBE2:
  52:src/workers.cpp ****             // TCB::yield();
  53:src/workers.cpp ****         }
  54:src/workers.cpp ****     }
  55:src/workers.cpp ****     pprintString("A finished!\n");
 296              		.loc 1 55 5 is_stmt 1
 297              		.loc 1 55 17 is_stmt 0
 298 01a4 17050000 		lla	a0,.LC3
 298      13050500 
 299 01ac 97000000 		call	_Z12pprintStringPKc@plt
 299      E7800000 
 300              	.LVL24:
  56:src/workers.cpp ****     semaphore->signal();
 301              		.loc 1 56 5 is_stmt 1
 302              		.loc 1 56 22 is_stmt 0
 303 01b4 17050000 		ld	a0,.LANCHOR0
 303      03350500 
 304 01bc 97000000 		call	_ZN9Semaphore6signalEv@plt
GAS LISTING /tmp/ccLfy504.s 			page 8


 304      E7800000 
 305              	.LVL25:
  57:src/workers.cpp **** 
  58:src/workers.cpp **** }
 306              		.loc 1 58 1
 307 01c4 83308101 		ld	ra,24(sp)
 308              		.cfi_restore 1
 309 01c8 03340101 		ld	s0,16(sp)
 310              		.cfi_restore 8
 311              		.cfi_def_cfa 2, 32
 312 01cc 83348100 		ld	s1,8(sp)
 313              		.cfi_restore 9
 314              	.LVL26:
 315 01d0 13010102 		addi	sp,sp,32
 316              		.cfi_def_cfa_offset 0
 317 01d4 67800000 		jr	ra
 318              		.cfi_endproc
 319              	.LFE22:
 321              		.section	.rodata.str1.8
 322 0025 000000   		.align	3
 323              	.LC4:
 324 0028 423A2069 		.string	"B: i="
 324      3D00
 325 002e 0000     		.align	3
 326              	.LC5:
 327 0030 42206669 		.string	"B finished!\n"
 327      6E697368 
 327      6564210A 
 327      00
 328              		.text
 329              		.align	2
 330              		.globl	_Z11workerBodyBv
 332              	_Z11workerBodyBv:
 333              	.LFB23:
  59:src/workers.cpp **** 
  60:src/workers.cpp **** void workerBodyB() {
 334              		.loc 1 60 20 is_stmt 1
 335              		.cfi_startproc
 336 01d8 130101FE 		addi	sp,sp,-32
 337              		.cfi_def_cfa_offset 32
 338 01dc 233C1100 		sd	ra,24(sp)
 339 01e0 23388100 		sd	s0,16(sp)
 340 01e4 23349100 		sd	s1,8(sp)
 341              		.cfi_offset 1, -8
 342              		.cfi_offset 8, -16
 343              		.cfi_offset 9, -24
 344 01e8 13040102 		addi	s0,sp,32
 345              		.cfi_def_cfa 8, 0
  61:src/workers.cpp ****     initSemaphore();
 346              		.loc 1 61 5
 347              		.loc 1 61 18 is_stmt 0
 348 01ec 97000000 		call	_Z13initSemaphorev
 348      E7800000 
 349              	.LVL27:
  62:src/workers.cpp ****     semaphore->wait();
 350              		.loc 1 62 5 is_stmt 1
 351              		.loc 1 62 20 is_stmt 0
GAS LISTING /tmp/ccLfy504.s 			page 9


 352 01f4 17050000 		ld	a0,.LANCHOR0
 352      03350500 
 353 01fc 97000000 		call	_ZN9Semaphore4waitEv@plt
 353      E7800000 
 354              	.LVL28:
  63:src/workers.cpp ****     // uint8 i = 10;
  64:src/workers.cpp ****     // for (; i < 13; i++) { pprintString("B: i="); printInteger(i); pprintString("\n"); }
  65:src/workers.cpp **** 
  66:src/workers.cpp ****     // pprintString("B: yield\n");
  67:src/workers.cpp ****     // __asm__ ("li t1, 5");
  68:src/workers.cpp ****     // thread_dispatch();
  69:src/workers.cpp **** 
  70:src/workers.cpp ****     // uint64 result = fibonacci(23);
  71:src/workers.cpp ****     // pprintString("B: fibonaci="); printInteger(result); pprintString("\n");
  72:src/workers.cpp **** 
  73:src/workers.cpp ****     //for (; i < 16; i++) { pprintString("B: i="); printInteger(i); pprintString("\n"); }
  74:src/workers.cpp **** 
  75:src/workers.cpp ****     for (uint64 i = 0; i < 16; i++) {
 355              		.loc 1 75 5 is_stmt 1
 356              	.LBB8:
 357              		.loc 1 75 17 is_stmt 0
 358 0204 93040000 		li	s1,0
 359 0208 6F000003 		j	.L31
 360              	.LVL29:
 361              	.L28:
 362              	.LBB9:
 363              	.LBB10:
  76:src/workers.cpp ****         pprintString("B: i="); printInteger(i); pprintString("\n");
  77:src/workers.cpp ****         for (uint64 j = 0; j < 10000; j++) {
 364              		.loc 1 77 9 is_stmt 1 discriminator 2
 365 020c 93861600 		addi	a3,a3,1
 366              	.LVL30:
 367              	.L30:
 368              		.loc 1 77 30 discriminator 1
 369 0210 B7270000 		li	a5,8192
 370 0214 9387F770 		addi	a5,a5,1807
 371 0218 63EED700 		bgtu	a3,a5,.L27
 372              	.LBB11:
  78:src/workers.cpp ****             for (uint64 k = 0; k < 30000; k++) { /* busy wait */ }
 373              		.loc 1 78 25 is_stmt 0
 374 021c 13070000 		li	a4,0
 375              	.L29:
 376              	.LVL31:
 377              		.loc 1 78 34 is_stmt 1 discriminator 3
 378 0220 B7770000 		li	a5,28672
 379 0224 9387F752 		addi	a5,a5,1327
 380 0228 E3E2E7FE 		bgtu	a4,a5,.L28
 381              		.loc 1 78 13 discriminator 2
 382 022c 13071700 		addi	a4,a4,1
 383              	.LVL32:
 384 0230 6FF01FFF 		j	.L29
 385              	.LVL33:
 386              	.L27:
 387              	.LBE11:
 388              	.LBE10:
 389              	.LBE9:
  75:src/workers.cpp ****         pprintString("B: i="); printInteger(i); pprintString("\n");
GAS LISTING /tmp/ccLfy504.s 			page 10


 390              		.loc 1 75 5 discriminator 2
 391 0234 93841400 		addi	s1,s1,1
 392              	.LVL34:
 393              	.L31:
  75:src/workers.cpp ****         pprintString("B: i="); printInteger(i); pprintString("\n");
 394              		.loc 1 75 26 discriminator 1
 395 0238 9307F000 		li	a5,15
 396 023c 63EC9702 		bgtu	s1,a5,.L26
 397              	.LBB13:
  76:src/workers.cpp ****         pprintString("B: i="); printInteger(i); pprintString("\n");
 398              		.loc 1 76 9
  76:src/workers.cpp ****         pprintString("B: i="); printInteger(i); pprintString("\n");
 399              		.loc 1 76 21 is_stmt 0
 400 0240 17050000 		lla	a0,.LC4
 400      13050500 
 401 0248 97000000 		call	_Z12pprintStringPKc@plt
 401      E7800000 
 402              	.LVL35:
  76:src/workers.cpp ****         pprintString("B: i="); printInteger(i); pprintString("\n");
 403              		.loc 1 76 32 is_stmt 1
  76:src/workers.cpp ****         pprintString("B: i="); printInteger(i); pprintString("\n");
 404              		.loc 1 76 44 is_stmt 0
 405 0250 13850400 		mv	a0,s1
 406 0254 97000000 		call	_Z12printIntegerm@plt
 406      E7800000 
 407              	.LVL36:
  76:src/workers.cpp ****         pprintString("B: i="); printInteger(i); pprintString("\n");
 408              		.loc 1 76 49 is_stmt 1
  76:src/workers.cpp ****         pprintString("B: i="); printInteger(i); pprintString("\n");
 409              		.loc 1 76 61 is_stmt 0
 410 025c 17050000 		lla	a0,.LC2
 410      13050500 
 411 0264 97000000 		call	_Z12pprintStringPKc@plt
 411      E7800000 
 412              	.LVL37:
  77:src/workers.cpp ****             for (uint64 k = 0; k < 30000; k++) { /* busy wait */ }
 413              		.loc 1 77 9 is_stmt 1
 414              	.LBB12:
  77:src/workers.cpp ****             for (uint64 k = 0; k < 30000; k++) { /* busy wait */ }
 415              		.loc 1 77 21 is_stmt 0
 416 026c 93060000 		li	a3,0
 417 0270 6FF01FFA 		j	.L30
 418              	.LVL38:
 419              	.L26:
 420              	.LBE12:
 421              	.LBE13:
 422              	.LBE8:
  79:src/workers.cpp ****             // TCB::yield();
  80:src/workers.cpp ****         }
  81:src/workers.cpp ****     }
  82:src/workers.cpp ****     pprintString("B finished!\n");
 423              		.loc 1 82 5 is_stmt 1
 424              		.loc 1 82 17 is_stmt 0
 425 0274 17050000 		lla	a0,.LC5
 425      13050500 
 426 027c 97000000 		call	_Z12pprintStringPKc@plt
 426      E7800000 
GAS LISTING /tmp/ccLfy504.s 			page 11


 427              	.LVL39:
  83:src/workers.cpp ****     semaphore->signal();
 428              		.loc 1 83 5 is_stmt 1
 429              		.loc 1 83 22 is_stmt 0
 430 0284 17050000 		ld	a0,.LANCHOR0
 430      03350500 
 431 028c 97000000 		call	_ZN9Semaphore6signalEv@plt
 431      E7800000 
 432              	.LVL40:
  84:src/workers.cpp **** }
 433              		.loc 1 84 1
 434 0294 83308101 		ld	ra,24(sp)
 435              		.cfi_restore 1
 436 0298 03340101 		ld	s0,16(sp)
 437              		.cfi_restore 8
 438              		.cfi_def_cfa 2, 32
 439 029c 83348100 		ld	s1,8(sp)
 440              		.cfi_restore 9
 441              	.LVL41:
 442 02a0 13010102 		addi	sp,sp,32
 443              		.cfi_def_cfa_offset 0
 444 02a4 67800000 		jr	ra
 445              		.cfi_endproc
 446              	.LFE23:
 448              		.section	.rodata.str1.8
 449 003d 000000   		.align	3
 450              	.LC6:
 451 0040 433A2069 		.string	"C: i="
 451      3D00
 452 0046 0000     		.align	3
 453              	.LC7:
 454 0048 433A2079 		.string	"C: yield\n"
 454      69656C64 
 454      0A00
 455 0052 00000000 		.align	3
 455      0000
 456              	.LC8:
 457 0058 433A2066 		.string	"C: fibonaci="
 457      69626F6E 
 457      6163693D 
 457      00
 458 0065 000000   		.align	3
 459              	.LC9:
 460 0068 43206669 		.string	"C finished!\n"
 460      6E697368 
 460      6564210A 
 460      00
 461              		.text
 462              		.align	2
 463              		.globl	_Z11workerBodyCv
 465              	_Z11workerBodyCv:
 466              	.LFB24:
  85:src/workers.cpp **** 
  86:src/workers.cpp **** void workerBodyC() {
 467              		.loc 1 86 20 is_stmt 1
 468              		.cfi_startproc
 469 02a8 130101FE 		addi	sp,sp,-32
GAS LISTING /tmp/ccLfy504.s 			page 12


 470              		.cfi_def_cfa_offset 32
 471 02ac 233C1100 		sd	ra,24(sp)
 472 02b0 23388100 		sd	s0,16(sp)
 473 02b4 23349100 		sd	s1,8(sp)
 474 02b8 23302101 		sd	s2,0(sp)
 475              		.cfi_offset 1, -8
 476              		.cfi_offset 8, -16
 477              		.cfi_offset 9, -24
 478              		.cfi_offset 18, -32
 479 02bc 13040102 		addi	s0,sp,32
 480              		.cfi_def_cfa 8, 0
  87:src/workers.cpp ****     initSemaphore();
 481              		.loc 1 87 5
 482              		.loc 1 87 18 is_stmt 0
 483 02c0 97000000 		call	_Z13initSemaphorev
 483      E7800000 
 484              	.LVL42:
  88:src/workers.cpp ****     semaphore->wait();
 485              		.loc 1 88 5 is_stmt 1
 486              		.loc 1 88 20 is_stmt 0
 487 02c8 17050000 		ld	a0,.LANCHOR0
 487      03350500 
 488 02d0 97000000 		call	_ZN9Semaphore4waitEv@plt
 488      E7800000 
 489              	.LVL43:
  89:src/workers.cpp ****     uint8 i = 20;
 490              		.loc 1 89 5 is_stmt 1
 491              		.loc 1 89 11 is_stmt 0
 492 02d8 93044001 		li	s1,20
 493              	.LVL44:
 494              	.L35:
  90:src/workers.cpp ****     for (; i < 100; i++) { pprintString("C: i="); printInteger(i); pprintString("\n"); }
 495              		.loc 1 90 5 is_stmt 1 discriminator 2
 496              		.loc 1 90 14 discriminator 2
 497 02dc 93073006 		li	a5,99
 498 02e0 63EE9702 		bgtu	s1,a5,.L34
 499              		.loc 1 90 28 discriminator 1
 500              		.loc 1 90 40 is_stmt 0 discriminator 1
 501 02e4 17050000 		lla	a0,.LC6
 501      13050500 
 502 02ec 97000000 		call	_Z12pprintStringPKc@plt
 502      E7800000 
 503              	.LVL45:
 504              		.loc 1 90 51 is_stmt 1 discriminator 1
 505              		.loc 1 90 63 is_stmt 0 discriminator 1
 506 02f4 13850400 		mv	a0,s1
 507 02f8 97000000 		call	_Z12printIntegerm@plt
 507      E7800000 
 508              	.LVL46:
 509              		.loc 1 90 68 is_stmt 1 discriminator 1
 510              		.loc 1 90 80 is_stmt 0 discriminator 1
 511 0300 17050000 		lla	a0,.LC2
 511      13050500 
 512 0308 97000000 		call	_Z12pprintStringPKc@plt
 512      E7800000 
 513              	.LVL47:
 514              		.loc 1 90 5 is_stmt 1 discriminator 1
GAS LISTING /tmp/ccLfy504.s 			page 13


 515 0310 9B841400 		addiw	s1,s1,1
 516              	.LVL48:
 517 0314 93F4F40F 		andi	s1,s1,0xff
 518              	.LVL49:
 519 0318 6FF05FFC 		j	.L35
 520              	.L34:
  91:src/workers.cpp **** 
  92:src/workers.cpp ****     pprintString("C: yield\n");
 521              		.loc 1 92 5
 522              		.loc 1 92 17 is_stmt 0
 523 031c 17050000 		lla	a0,.LC7
 523      13050500 
 524 0324 97000000 		call	_Z12pprintStringPKc@plt
 524      E7800000 
 525              	.LVL50:
  93:src/workers.cpp ****     __asm__ ("li t1, 9");
 526              		.loc 1 93 5 is_stmt 1
 527              		.loc 1 93 25 is_stmt 0
 528              	#APP
 529              	# 93 "src/workers.cpp" 1
  94              	    thread_dispatch();
 530              		li t1, 9
 531              	# 0 "" 2
 532              		.loc 1 94 5 is_stmt 1
 533              		.loc 1 94 20 is_stmt 0
 534              	#NO_APP
 535 0330 97000000 		call	_Z15thread_dispatchv@plt
 535      E7800000 
 536              	.LVL51:
  95:src/workers.cpp **** 
  96:src/workers.cpp ****     uint64 result = fibonacci(35);
 537              		.loc 1 96 5 is_stmt 1
 538              		.loc 1 96 30 is_stmt 0
 539 0338 13053002 		li	a0,35
 540 033c 97000000 		call	_Z9fibonaccim
 540      E7800000 
 541              	.LVL52:
 542 0344 13090500 		mv	s2,a0
 543              	.LVL53:
  97:src/workers.cpp ****     pprintString("C: fibonaci="); printInteger(result); pprintString("\n");
 544              		.loc 1 97 5 is_stmt 1
 545              		.loc 1 97 17 is_stmt 0
 546 0348 17050000 		lla	a0,.LC8
 546      13050500 
 547              	.LVL54:
 548 0350 97000000 		call	_Z12pprintStringPKc@plt
 548      E7800000 
 549              	.LVL55:
 550              		.loc 1 97 35 is_stmt 1
 551              		.loc 1 97 47 is_stmt 0
 552 0358 13050900 		mv	a0,s2
 553 035c 97000000 		call	_Z12printIntegerm@plt
 553      E7800000 
 554              	.LVL56:
 555              		.loc 1 97 57 is_stmt 1
 556              		.loc 1 97 69 is_stmt 0
 557 0364 17050000 		lla	a0,.LC2
GAS LISTING /tmp/ccLfy504.s 			page 14


 557      13050500 
 558 036c 97000000 		call	_Z12pprintStringPKc@plt
 558      E7800000 
 559              	.LVL57:
 560              	.L37:
  98:src/workers.cpp **** 
  99:src/workers.cpp ****     for (; i < 26; i++) { pprintString("C: i="); printInteger(i); pprintString("\n"); }
 561              		.loc 1 99 5 is_stmt 1 discriminator 2
 562              		.loc 1 99 14 discriminator 2
 563 0374 93079001 		li	a5,25
 564 0378 63FE9702 		bleu	s1,a5,.L39
 100:src/workers.cpp ****     pprintString("C finished!\n");
 565              		.loc 1 100 5
 566              		.loc 1 100 17 is_stmt 0
 567 037c 17050000 		lla	a0,.LC9
 567      13050500 
 568 0384 97000000 		call	_Z12pprintStringPKc@plt
 568      E7800000 
 569              	.LVL58:
 101:src/workers.cpp ****     semaphore->signal();
 570              		.loc 1 101 5 is_stmt 1
 571              		.loc 1 101 22 is_stmt 0
 572 038c 17050000 		ld	a0,.LANCHOR0
 572      03350500 
 573 0394 97000000 		call	_ZN9Semaphore6signalEv@plt
 573      E7800000 
 574              	.LVL59:
 102:src/workers.cpp **** }
 575              		.loc 1 102 1
 576 039c 83308101 		ld	ra,24(sp)
 577              		.cfi_remember_state
 578              		.cfi_restore 1
 579 03a0 03340101 		ld	s0,16(sp)
 580              		.cfi_restore 8
 581              		.cfi_def_cfa 2, 32
 582 03a4 83348100 		ld	s1,8(sp)
 583              		.cfi_restore 9
 584              	.LVL60:
 585 03a8 03390100 		ld	s2,0(sp)
 586              		.cfi_restore 18
 587              	.LVL61:
 588 03ac 13010102 		addi	sp,sp,32
 589              		.cfi_def_cfa_offset 0
 590 03b0 67800000 		jr	ra
 591              	.LVL62:
 592              	.L39:
 593              		.cfi_restore_state
  99:src/workers.cpp ****     pprintString("C finished!\n");
 594              		.loc 1 99 27 is_stmt 1 discriminator 1
  99:src/workers.cpp ****     pprintString("C finished!\n");
 595              		.loc 1 99 39 is_stmt 0 discriminator 1
 596 03b4 17050000 		lla	a0,.LC6
 596      13050500 
 597 03bc 97000000 		call	_Z12pprintStringPKc@plt
 597      E7800000 
 598              	.LVL63:
  99:src/workers.cpp ****     pprintString("C finished!\n");
GAS LISTING /tmp/ccLfy504.s 			page 15


 599              		.loc 1 99 50 is_stmt 1 discriminator 1
  99:src/workers.cpp ****     pprintString("C finished!\n");
 600              		.loc 1 99 62 is_stmt 0 discriminator 1
 601 03c4 13850400 		mv	a0,s1
 602 03c8 97000000 		call	_Z12printIntegerm@plt
 602      E7800000 
 603              	.LVL64:
  99:src/workers.cpp ****     pprintString("C finished!\n");
 604              		.loc 1 99 67 is_stmt 1 discriminator 1
  99:src/workers.cpp ****     pprintString("C finished!\n");
 605              		.loc 1 99 79 is_stmt 0 discriminator 1
 606 03d0 17050000 		lla	a0,.LC2
 606      13050500 
 607 03d8 97000000 		call	_Z12pprintStringPKc@plt
 607      E7800000 
 608              	.LVL65:
  99:src/workers.cpp ****     pprintString("C finished!\n");
 609              		.loc 1 99 5 is_stmt 1 discriminator 1
 610 03e0 9B841400 		addiw	s1,s1,1
 611              	.LVL66:
 612 03e4 93F4F40F 		andi	s1,s1,0xff
 613              	.LVL67:
 614 03e8 6FF0DFF8 		j	.L37
 615              		.cfi_endproc
 616              	.LFE24:
 618              		.globl	semaphore
 619              		.bss
 620              		.align	3
 621              		.set	.LANCHOR0,. + 0
 624              	semaphore:
 625 0000 00000000 		.zero	8
 625      00000000 
 626              		.text
 627              	.Letext0:
 628              		.file 2 "src/../h/../lib/hw.h"
 629              		.file 3 "src/../h/syscall_cpp.hpp"
 630              		.file 4 "src/../h/print.hpp"
 631              		.file 5 "src/../h/syscall_c.hpp"
 1954              		.align	3
 1957              	DW.ref.__gxx_personality_v0:
 1958 0000 00000000 		.dword	__gxx_personality_v0
 1958      00000000 
 1959              		.ident	"GCC: (Ubuntu 9.4.0-1ubuntu1~20.04) 9.4.0"
 1960              		.section	.note.GNU-stack,"",@progbits
GAS LISTING /tmp/ccLfy504.s 			page 16


DEFINED SYMBOLS
                            *ABS*:0000000000000000 workers.cpp
     /tmp/ccLfy504.s:9      .text:0000000000000000 _Z9fibonaccim
     /tmp/ccLfy504.s:13     .text:0000000000000000 .L0 
     /tmp/ccLfy504.s:15     .text:0000000000000000 .L0 
     /tmp/ccLfy504.s:16     .text:0000000000000004 .L0 
     /tmp/ccLfy504.s:21     .text:0000000000000014 .L0 
     /tmp/ccLfy504.s:22     .text:0000000000000014 .L0 
     /tmp/ccLfy504.s:23     .text:0000000000000014 .L0 
     /tmp/ccLfy504.s:24     .text:0000000000000014 .L0 
     /tmp/ccLfy504.s:26     .text:0000000000000018 .L0 
     /tmp/ccLfy504.s:29     .text:000000000000001c .L0 
     /tmp/ccLfy504.s:32     .text:0000000000000024 .L0 
     /tmp/ccLfy504.s:33     .text:0000000000000024 .L0 
     /tmp/ccLfy504.s:35     .text:0000000000000028 .L0 
     /tmp/ccLfy504.s:39     .text:000000000000002c .L0 
     /tmp/ccLfy504.s:40     .text:000000000000002c .L0 
     /tmp/ccLfy504.s:45     .text:000000000000003c .L0 
     /tmp/ccLfy504.s:49     .text:0000000000000048 .L0 
     /tmp/ccLfy504.s:52     .text:000000000000004c .L0 
     /tmp/ccLfy504.s:53     .text:0000000000000050 .L0 
     /tmp/ccLfy504.s:54     .text:0000000000000050 .L0 
     /tmp/ccLfy504.s:56     .text:0000000000000054 .L0 
     /tmp/ccLfy504.s:57     .text:0000000000000054 .L0 
     /tmp/ccLfy504.s:59     .text:0000000000000058 .L0 
     /tmp/ccLfy504.s:62     .text:000000000000005c .L0 
     /tmp/ccLfy504.s:64     .text:0000000000000060 .L0 
     /tmp/ccLfy504.s:68     .text:0000000000000064 .L0 
     /tmp/ccLfy504.s:70     .text:0000000000000064 .L0 
     /tmp/ccLfy504.s:71     .text:0000000000000064 .L0 
     /tmp/ccLfy504.s:74     .text:0000000000000070 .L0 
     /tmp/ccLfy504.s:85     .text:0000000000000070 _Z13initSemaphorev
     /tmp/ccLfy504.s:88     .text:0000000000000070 .L0 
     /tmp/ccLfy504.s:1957   .data.rel.local.DW.ref.__gxx_personality_v0:0000000000000000 DW.ref.__gxx_personality_v0
     /tmp/ccLfy504.s:91     .text:0000000000000070 .L0 
     /tmp/ccLfy504.s:92     .text:0000000000000070 .L0 
     /tmp/ccLfy504.s:93     .text:0000000000000070 .L0 
     /tmp/ccLfy504.s:95     .text:0000000000000078 .L0 
     /tmp/ccLfy504.s:99     .text:0000000000000080 .L0 
     /tmp/ccLfy504.s:100    .text:0000000000000084 .L0 
     /tmp/ccLfy504.s:105    .text:0000000000000094 .L0 
     /tmp/ccLfy504.s:106    .text:0000000000000094 .L0 
     /tmp/ccLfy504.s:107    .text:0000000000000094 .L0 
     /tmp/ccLfy504.s:108    .text:0000000000000094 .L0 
     /tmp/ccLfy504.s:110    .text:0000000000000098 .L0 
     /tmp/ccLfy504.s:112    .text:0000000000000098 .L0 
     /tmp/ccLfy504.s:113    .text:0000000000000098 .L0 
     /tmp/ccLfy504.s:125    .text:00000000000000b4 .L0 
     /tmp/ccLfy504.s:127    .text:00000000000000bc .L0 
     /tmp/ccLfy504.s:130    .text:00000000000000c0 .L0 
     /tmp/ccLfy504.s:131    .text:00000000000000c4 .L0 
     /tmp/ccLfy504.s:132    .text:00000000000000c4 .L0 
     /tmp/ccLfy504.s:134    .text:00000000000000c8 .L0 
     /tmp/ccLfy504.s:135    .text:00000000000000c8 .L0 
     /tmp/ccLfy504.s:137    .text:00000000000000cc .L0 
     /tmp/ccLfy504.s:139    .text:00000000000000d0 .L0 
     /tmp/ccLfy504.s:141    .text:00000000000000d4 .L0 
GAS LISTING /tmp/ccLfy504.s 			page 17


     /tmp/ccLfy504.s:144    .text:00000000000000d8 .L0 
     /tmp/ccLfy504.s:146    .text:00000000000000d8 .L0 
     /tmp/ccLfy504.s:147    .text:00000000000000d8 .L0 
     /tmp/ccLfy504.s:156    .text:00000000000000f0 .L0 
     /tmp/ccLfy504.s:164    .text:0000000000000108 .L0 
     /tmp/ccLfy504.s:205    .text:0000000000000108 _Z11workerBodyAv
     /tmp/ccLfy504.s:208    .text:0000000000000108 .L0 
     /tmp/ccLfy504.s:209    .text:0000000000000108 .L0 
     /tmp/ccLfy504.s:210    .text:000000000000010c .L0 
     /tmp/ccLfy504.s:214    .text:0000000000000118 .L0 
     /tmp/ccLfy504.s:215    .text:0000000000000118 .L0 
     /tmp/ccLfy504.s:216    .text:0000000000000118 .L0 
     /tmp/ccLfy504.s:218    .text:000000000000011c .L0 
     /tmp/ccLfy504.s:220    .text:000000000000011c .L0 
     /tmp/ccLfy504.s:221    .text:000000000000011c .L0 
     /tmp/ccLfy504.s:224    .text:0000000000000124 .L0 
     /tmp/ccLfy504.s:225    .text:0000000000000124 .L0 
     /tmp/ccLfy504.s:230    .text:0000000000000134 .L0 
     /tmp/ccLfy504.s:231    .text:0000000000000134 .L0 
     /tmp/ccLfy504.s:238    .text:000000000000013c .L0 
     /tmp/ccLfy504.s:242    .text:0000000000000140 .L0 
     /tmp/ccLfy504.s:247    .text:000000000000014c .L0 
     /tmp/ccLfy504.s:251    .text:0000000000000150 .L0 
     /tmp/ccLfy504.s:255    .text:000000000000015c .L0 
     /tmp/ccLfy504.s:264    .text:0000000000000164 .L0 
     /tmp/ccLfy504.s:268    .text:0000000000000168 .L0 
     /tmp/ccLfy504.s:272    .text:0000000000000170 .L0 
     /tmp/ccLfy504.s:273    .text:0000000000000170 .L0 
     /tmp/ccLfy504.s:277    .text:0000000000000180 .L0 
     /tmp/ccLfy504.s:278    .text:0000000000000180 .L0 
     /tmp/ccLfy504.s:282    .text:000000000000018c .L0 
     /tmp/ccLfy504.s:283    .text:000000000000018c .L0 
     /tmp/ccLfy504.s:288    .text:000000000000019c .L0 
     /tmp/ccLfy504.s:289    .text:000000000000019c .L0 
     /tmp/ccLfy504.s:297    .text:00000000000001a4 .L0 
     /tmp/ccLfy504.s:298    .text:00000000000001a4 .L0 
     /tmp/ccLfy504.s:302    .text:00000000000001b4 .L0 
     /tmp/ccLfy504.s:303    .text:00000000000001b4 .L0 
     /tmp/ccLfy504.s:307    .text:00000000000001c4 .L0 
     /tmp/ccLfy504.s:308    .text:00000000000001c8 .L0 
     /tmp/ccLfy504.s:310    .text:00000000000001cc .L0 
     /tmp/ccLfy504.s:311    .text:00000000000001cc .L0 
     /tmp/ccLfy504.s:313    .text:00000000000001d0 .L0 
     /tmp/ccLfy504.s:316    .text:00000000000001d4 .L0 
     /tmp/ccLfy504.s:318    .text:00000000000001d8 .L0 
     /tmp/ccLfy504.s:332    .text:00000000000001d8 _Z11workerBodyBv
     /tmp/ccLfy504.s:335    .text:00000000000001d8 .L0 
     /tmp/ccLfy504.s:336    .text:00000000000001d8 .L0 
     /tmp/ccLfy504.s:337    .text:00000000000001dc .L0 
     /tmp/ccLfy504.s:341    .text:00000000000001e8 .L0 
     /tmp/ccLfy504.s:342    .text:00000000000001e8 .L0 
     /tmp/ccLfy504.s:343    .text:00000000000001e8 .L0 
     /tmp/ccLfy504.s:345    .text:00000000000001ec .L0 
     /tmp/ccLfy504.s:347    .text:00000000000001ec .L0 
     /tmp/ccLfy504.s:348    .text:00000000000001ec .L0 
     /tmp/ccLfy504.s:351    .text:00000000000001f4 .L0 
     /tmp/ccLfy504.s:352    .text:00000000000001f4 .L0 
GAS LISTING /tmp/ccLfy504.s 			page 18


     /tmp/ccLfy504.s:357    .text:0000000000000204 .L0 
     /tmp/ccLfy504.s:358    .text:0000000000000204 .L0 
     /tmp/ccLfy504.s:365    .text:000000000000020c .L0 
     /tmp/ccLfy504.s:369    .text:0000000000000210 .L0 
     /tmp/ccLfy504.s:374    .text:000000000000021c .L0 
     /tmp/ccLfy504.s:378    .text:0000000000000220 .L0 
     /tmp/ccLfy504.s:382    .text:000000000000022c .L0 
     /tmp/ccLfy504.s:391    .text:0000000000000234 .L0 
     /tmp/ccLfy504.s:395    .text:0000000000000238 .L0 
     /tmp/ccLfy504.s:399    .text:0000000000000240 .L0 
     /tmp/ccLfy504.s:400    .text:0000000000000240 .L0 
     /tmp/ccLfy504.s:404    .text:0000000000000250 .L0 
     /tmp/ccLfy504.s:405    .text:0000000000000250 .L0 
     /tmp/ccLfy504.s:409    .text:000000000000025c .L0 
     /tmp/ccLfy504.s:410    .text:000000000000025c .L0 
     /tmp/ccLfy504.s:415    .text:000000000000026c .L0 
     /tmp/ccLfy504.s:416    .text:000000000000026c .L0 
     /tmp/ccLfy504.s:424    .text:0000000000000274 .L0 
     /tmp/ccLfy504.s:425    .text:0000000000000274 .L0 
     /tmp/ccLfy504.s:429    .text:0000000000000284 .L0 
     /tmp/ccLfy504.s:430    .text:0000000000000284 .L0 
     /tmp/ccLfy504.s:434    .text:0000000000000294 .L0 
     /tmp/ccLfy504.s:435    .text:0000000000000298 .L0 
     /tmp/ccLfy504.s:437    .text:000000000000029c .L0 
     /tmp/ccLfy504.s:438    .text:000000000000029c .L0 
     /tmp/ccLfy504.s:440    .text:00000000000002a0 .L0 
     /tmp/ccLfy504.s:443    .text:00000000000002a4 .L0 
     /tmp/ccLfy504.s:445    .text:00000000000002a8 .L0 
     /tmp/ccLfy504.s:465    .text:00000000000002a8 _Z11workerBodyCv
     /tmp/ccLfy504.s:468    .text:00000000000002a8 .L0 
     /tmp/ccLfy504.s:469    .text:00000000000002a8 .L0 
     /tmp/ccLfy504.s:470    .text:00000000000002ac .L0 
     /tmp/ccLfy504.s:475    .text:00000000000002bc .L0 
     /tmp/ccLfy504.s:476    .text:00000000000002bc .L0 
     /tmp/ccLfy504.s:477    .text:00000000000002bc .L0 
     /tmp/ccLfy504.s:478    .text:00000000000002bc .L0 
     /tmp/ccLfy504.s:480    .text:00000000000002c0 .L0 
     /tmp/ccLfy504.s:482    .text:00000000000002c0 .L0 
     /tmp/ccLfy504.s:483    .text:00000000000002c0 .L0 
     /tmp/ccLfy504.s:486    .text:00000000000002c8 .L0 
     /tmp/ccLfy504.s:487    .text:00000000000002c8 .L0 
     /tmp/ccLfy504.s:491    .text:00000000000002d8 .L0 
     /tmp/ccLfy504.s:492    .text:00000000000002d8 .L0 
     /tmp/ccLfy504.s:496    .text:00000000000002dc .L0 
     /tmp/ccLfy504.s:497    .text:00000000000002dc .L0 
     /tmp/ccLfy504.s:500    .text:00000000000002e4 .L0 
     /tmp/ccLfy504.s:501    .text:00000000000002e4 .L0 
     /tmp/ccLfy504.s:505    .text:00000000000002f4 .L0 
     /tmp/ccLfy504.s:506    .text:00000000000002f4 .L0 
     /tmp/ccLfy504.s:510    .text:0000000000000300 .L0 
     /tmp/ccLfy504.s:511    .text:0000000000000300 .L0 
     /tmp/ccLfy504.s:515    .text:0000000000000310 .L0 
     /tmp/ccLfy504.s:522    .text:000000000000031c .L0 
     /tmp/ccLfy504.s:523    .text:000000000000031c .L0 
     /tmp/ccLfy504.s:527    .text:000000000000032c .L0 
     src/workers.cpp:93     .text:000000000000032c .L0 
     /tmp/ccLfy504.s:533    .text:0000000000000330 .L0 
GAS LISTING /tmp/ccLfy504.s 			page 19


     /tmp/ccLfy504.s:535    .text:0000000000000330 .L0 
     /tmp/ccLfy504.s:538    .text:0000000000000338 .L0 
     /tmp/ccLfy504.s:539    .text:0000000000000338 .L0 
     /tmp/ccLfy504.s:545    .text:0000000000000348 .L0 
     /tmp/ccLfy504.s:546    .text:0000000000000348 .L0 
     /tmp/ccLfy504.s:551    .text:0000000000000358 .L0 
     /tmp/ccLfy504.s:552    .text:0000000000000358 .L0 
     /tmp/ccLfy504.s:556    .text:0000000000000364 .L0 
     /tmp/ccLfy504.s:557    .text:0000000000000364 .L0 
     /tmp/ccLfy504.s:562    .text:0000000000000374 .L0 
     /tmp/ccLfy504.s:563    .text:0000000000000374 .L0 
     /tmp/ccLfy504.s:566    .text:000000000000037c .L0 
     /tmp/ccLfy504.s:567    .text:000000000000037c .L0 
     /tmp/ccLfy504.s:571    .text:000000000000038c .L0 
     /tmp/ccLfy504.s:572    .text:000000000000038c .L0 
     /tmp/ccLfy504.s:576    .text:000000000000039c .L0 
     /tmp/ccLfy504.s:577    .text:00000000000003a0 .L0 
     /tmp/ccLfy504.s:578    .text:00000000000003a0 .L0 
     /tmp/ccLfy504.s:580    .text:00000000000003a4 .L0 
     /tmp/ccLfy504.s:581    .text:00000000000003a4 .L0 
     /tmp/ccLfy504.s:583    .text:00000000000003a8 .L0 
     /tmp/ccLfy504.s:586    .text:00000000000003ac .L0 
     /tmp/ccLfy504.s:589    .text:00000000000003b0 .L0 
     /tmp/ccLfy504.s:593    .text:00000000000003b4 .L0 
     /tmp/ccLfy504.s:595    .text:00000000000003b4 .L0 
     /tmp/ccLfy504.s:596    .text:00000000000003b4 .L0 
     /tmp/ccLfy504.s:600    .text:00000000000003c4 .L0 
     /tmp/ccLfy504.s:601    .text:00000000000003c4 .L0 
     /tmp/ccLfy504.s:605    .text:00000000000003d0 .L0 
     /tmp/ccLfy504.s:606    .text:00000000000003d0 .L0 
     /tmp/ccLfy504.s:610    .text:00000000000003e0 .L0 
     /tmp/ccLfy504.s:615    .text:00000000000003ec .L0 
     /tmp/ccLfy504.s:624    .bss:0000000000000000 semaphore
     /tmp/ccLfy504.s:621    .bss:0000000000000000 .LANCHOR0
     /tmp/ccLfy504.s:632    .text:00000000000003ec .L0 
     /tmp/ccLfy504.s:93     .text:0000000000000070 .L0 
     /tmp/ccLfy504.s:125    .text:00000000000000b4 .L0 
     /tmp/ccLfy504.s:79     .rodata.str1.8:0000000000000000 .LC0
     /tmp/ccLfy504.s:147    .text:00000000000000d8 .L0 
     /tmp/ccLfy504.s:225    .text:0000000000000124 .L0 
     /tmp/ccLfy504.s:193    .rodata.str1.8:0000000000000008 .LC1
     /tmp/ccLfy504.s:273    .text:0000000000000170 .L0 
     /tmp/ccLfy504.s:196    .rodata.str1.8:0000000000000010 .LC2
     /tmp/ccLfy504.s:283    .text:000000000000018c .L0 
     /tmp/ccLfy504.s:199    .rodata.str1.8:0000000000000018 .LC3
     /tmp/ccLfy504.s:298    .text:00000000000001a4 .L0 
     /tmp/ccLfy504.s:303    .text:00000000000001b4 .L0 
     /tmp/ccLfy504.s:352    .text:00000000000001f4 .L0 
     /tmp/ccLfy504.s:323    .rodata.str1.8:0000000000000028 .LC4
     /tmp/ccLfy504.s:400    .text:0000000000000240 .L0 
     /tmp/ccLfy504.s:410    .text:000000000000025c .L0 
     /tmp/ccLfy504.s:326    .rodata.str1.8:0000000000000030 .LC5
     /tmp/ccLfy504.s:425    .text:0000000000000274 .L0 
     /tmp/ccLfy504.s:430    .text:0000000000000284 .L0 
     /tmp/ccLfy504.s:487    .text:00000000000002c8 .L0 
     /tmp/ccLfy504.s:450    .rodata.str1.8:0000000000000040 .LC6
     /tmp/ccLfy504.s:501    .text:00000000000002e4 .L0 
GAS LISTING /tmp/ccLfy504.s 			page 20


     /tmp/ccLfy504.s:511    .text:0000000000000300 .L0 
     /tmp/ccLfy504.s:453    .rodata.str1.8:0000000000000048 .LC7
     /tmp/ccLfy504.s:523    .text:000000000000031c .L0 
     /tmp/ccLfy504.s:456    .rodata.str1.8:0000000000000058 .LC8
     /tmp/ccLfy504.s:546    .text:0000000000000348 .L0 
     /tmp/ccLfy504.s:557    .text:0000000000000364 .L0 
     /tmp/ccLfy504.s:459    .rodata.str1.8:0000000000000068 .LC9
     /tmp/ccLfy504.s:567    .text:000000000000037c .L0 
     /tmp/ccLfy504.s:572    .text:000000000000038c .L0 
     /tmp/ccLfy504.s:596    .text:00000000000003b4 .L0 
     /tmp/ccLfy504.s:606    .text:00000000000003d0 .L0 
     /tmp/ccLfy504.s:50     .text:000000000000004c .L1
     /tmp/ccLfy504.s:67     .text:0000000000000064 .L6
     /tmp/ccLfy504.s:37     .text:000000000000002c .L3
     /tmp/ccLfy504.s:97     .text:0000000000000080 .L15
     /tmp/ccLfy504.s:143    .text:00000000000000d8 .L16
     /tmp/ccLfy504.s:128    .text:00000000000000c0 .L7
     /tmp/ccLfy504.s:266    .text:0000000000000168 .L23
     /tmp/ccLfy504.s:259    .text:0000000000000164 .L19
     /tmp/ccLfy504.s:234    .text:000000000000013c .L20
     /tmp/ccLfy504.s:248    .text:0000000000000150 .L21
     /tmp/ccLfy504.s:292    .text:00000000000001a4 .L18
     /tmp/ccLfy504.s:240    .text:0000000000000140 .L22
     /tmp/ccLfy504.s:393    .text:0000000000000238 .L31
     /tmp/ccLfy504.s:386    .text:0000000000000234 .L27
     /tmp/ccLfy504.s:361    .text:000000000000020c .L28
     /tmp/ccLfy504.s:375    .text:0000000000000220 .L29
     /tmp/ccLfy504.s:419    .text:0000000000000274 .L26
     /tmp/ccLfy504.s:367    .text:0000000000000210 .L30
     /tmp/ccLfy504.s:520    .text:000000000000031c .L34
     /tmp/ccLfy504.s:494    .text:00000000000002dc .L35
     /tmp/ccLfy504.s:592    .text:00000000000003b4 .L39
     /tmp/ccLfy504.s:560    .text:0000000000000374 .L37
     /tmp/ccLfy504.s:114    .text:000000000000009c .LEHB0
     /tmp/ccLfy504.s:86     .text:0000000000000070 .LFB21
     /tmp/ccLfy504.s:117    .text:00000000000000a4 .LEHE0
     /tmp/ccLfy504.s:120    .text:00000000000000ac .LEHB1
     /tmp/ccLfy504.s:123    .text:00000000000000b4 .LEHE1
     /tmp/ccLfy504.s:153    .text:00000000000000ec .L10
     /tmp/ccLfy504.s:148    .text:00000000000000e0 .LEHB2
     /tmp/ccLfy504.s:151    .text:00000000000000e8 .LEHE2
     /tmp/ccLfy504.s:160    .text:0000000000000100 .LEHB3
     /tmp/ccLfy504.s:163    .text:0000000000000108 .LEHE3
     /tmp/ccLfy504.s:1310   .debug_abbrev:0000000000000000 .Ldebug_abbrev0
     /tmp/ccLfy504.s:1935   .debug_str:000000000000028b .LASF43
     /tmp/ccLfy504.s:1871   .debug_str:000000000000008a .LASF44
     /tmp/ccLfy504.s:1905   .debug_str:000000000000016e .LASF45
     /tmp/ccLfy504.s:5      .text:0000000000000000 .Ltext0
     /tmp/ccLfy504.s:627    .text:00000000000003ec .Letext0
     /tmp/ccLfy504.s:1847   .debug_line:0000000000000000 .Ldebug_line0
     /tmp/ccLfy504.s:1911   .debug_str:00000000000001b9 .LASF0
     /tmp/ccLfy504.s:1915   .debug_str:00000000000001da .LASF1
     /tmp/ccLfy504.s:1903   .debug_str:0000000000000160 .LASF2
     /tmp/ccLfy504.s:1881   .debug_str:00000000000000e6 .LASF3
     /tmp/ccLfy504.s:1899   .debug_str:0000000000000153 .LASF4
     /tmp/ccLfy504.s:1929   .debug_str:0000000000000258 .LASF5
     /tmp/ccLfy504.s:1863   .debug_str:000000000000005d .LASF6
GAS LISTING /tmp/ccLfy504.s 			page 21


     /tmp/ccLfy504.s:1917   .debug_str:00000000000001ed .LASF7
     /tmp/ccLfy504.s:1909   .debug_str:00000000000001a6 .LASF8
     /tmp/ccLfy504.s:1943   .debug_str:000000000000037e .LASF9
     /tmp/ccLfy504.s:1893   .debug_str:0000000000000129 .LASF10
     /tmp/ccLfy504.s:1921   .debug_str:0000000000000207 .LASF11
     /tmp/ccLfy504.s:1937   .debug_str:000000000000034f .LASF12
     /tmp/ccLfy504.s:1865   .debug_str:0000000000000064 .LASF13
     /tmp/ccLfy504.s:1857   .debug_str:0000000000000029 .LASF14
     /tmp/ccLfy504.s:1869   .debug_str:000000000000007e .LASF15
     /tmp/ccLfy504.s:1927   .debug_str:0000000000000242 .LASF16
     /tmp/ccLfy504.s:1877   .debug_str:00000000000000c2 .LASF17
     /tmp/ccLfy504.s:1885   .debug_str:00000000000000f1 .LASF18
     /tmp/ccLfy504.s:1849   .debug_str:0000000000000000 .LASF46
     /tmp/ccLfy504.s:1923   .debug_str:0000000000000216 .LASF19
     /tmp/ccLfy504.s:1883   .debug_str:00000000000000ec .LASF21
     /tmp/ccLfy504.s:1925   .debug_str:000000000000022b .LASF20
     /tmp/ccLfy504.s:1919   .debug_str:0000000000000200 .LASF22
     /tmp/ccLfy504.s:1867   .debug_str:0000000000000074 .LASF23
     /tmp/ccLfy504.s:1855   .debug_str:000000000000001d .LASF25
     /tmp/ccLfy504.s:1891   .debug_str:0000000000000118 .LASF27
     /tmp/ccLfy504.s:466    .text:00000000000002a8 .LFB24
     /tmp/ccLfy504.s:616    .text:00000000000003ec .LFE24
     /tmp/ccLfy504.s:1689   .debug_loc:0000000000000000 .LLST7
     /tmp/ccLfy504.s:1851   .debug_str:000000000000000a .LASF24
     /tmp/ccLfy504.s:1713   .debug_loc:0000000000000070 .LLST8
     /tmp/ccLfy504.s:484    .text:00000000000002c8 .LVL42
     /tmp/ccLfy504.s:489    .text:00000000000002d8 .LVL43
     /tmp/ccLfy504.s:503    .text:00000000000002f4 .LVL45
     /tmp/ccLfy504.s:508    .text:0000000000000300 .LVL46
     /tmp/ccLfy504.s:513    .text:0000000000000310 .LVL47
     /tmp/ccLfy504.s:525    .text:000000000000032c .LVL50
     /tmp/ccLfy504.s:536    .text:0000000000000338 .LVL51
     /tmp/ccLfy504.s:541    .text:0000000000000344 .LVL52
     /tmp/ccLfy504.s:549    .text:0000000000000358 .LVL55
     /tmp/ccLfy504.s:554    .text:0000000000000364 .LVL56
     /tmp/ccLfy504.s:559    .text:0000000000000374 .LVL57
     /tmp/ccLfy504.s:569    .text:000000000000038c .LVL58
     /tmp/ccLfy504.s:574    .text:000000000000039c .LVL59
     /tmp/ccLfy504.s:598    .text:00000000000003c4 .LVL63
     /tmp/ccLfy504.s:603    .text:00000000000003d0 .LVL64
     /tmp/ccLfy504.s:608    .text:00000000000003e0 .LVL65
     /tmp/ccLfy504.s:1853   .debug_str:0000000000000011 .LASF26
     /tmp/ccLfy504.s:1861   .debug_str:000000000000004c .LASF28
     /tmp/ccLfy504.s:333    .text:00000000000001d8 .LFB23
     /tmp/ccLfy504.s:446    .text:00000000000002a8 .LFE23
     /tmp/ccLfy504.s:356    .text:0000000000000204 .LBB8
     /tmp/ccLfy504.s:422    .text:0000000000000274 .LBE8
     /tmp/ccLfy504.s:1728   .debug_loc:00000000000000b9 .LLST4
     /tmp/ccLfy504.s:1833   .debug_ranges:0000000000000000 .Ldebug_ranges0
     /tmp/ccLfy504.s:1740   .debug_loc:00000000000000f0 .LLST5
     /tmp/ccLfy504.s:372    .text:000000000000021c .LBB11
     /tmp/ccLfy504.s:387    .text:0000000000000234 .LBE11
     /tmp/ccLfy504.s:1752   .debug_loc:0000000000000127 .LLST6
     /tmp/ccLfy504.s:402    .text:0000000000000250 .LVL35
     /tmp/ccLfy504.s:407    .text:000000000000025c .LVL36
     /tmp/ccLfy504.s:412    .text:000000000000026c .LVL37
     /tmp/ccLfy504.s:349    .text:00000000000001f4 .LVL27
GAS LISTING /tmp/ccLfy504.s 			page 22


     /tmp/ccLfy504.s:354    .text:0000000000000204 .LVL28
     /tmp/ccLfy504.s:427    .text:0000000000000284 .LVL39
     /tmp/ccLfy504.s:432    .text:0000000000000294 .LVL40
     /tmp/ccLfy504.s:1907   .debug_str:000000000000019a .LASF29
     /tmp/ccLfy504.s:1933   .debug_str:000000000000027a .LASF30
     /tmp/ccLfy504.s:206    .text:0000000000000108 .LFB22
     /tmp/ccLfy504.s:319    .text:00000000000001d8 .LFE22
     /tmp/ccLfy504.s:229    .text:0000000000000134 .LBB2
     /tmp/ccLfy504.s:295    .text:00000000000001a4 .LBE2
     /tmp/ccLfy504.s:1763   .debug_loc:000000000000015d .LLST1
     /tmp/ccLfy504.s:1775   .debug_loc:0000000000000194 .LLST2
     /tmp/ccLfy504.s:245    .text:000000000000014c .LBB5
     /tmp/ccLfy504.s:260    .text:0000000000000164 .LBE5
     /tmp/ccLfy504.s:1787   .debug_loc:00000000000001cb .LLST3
     /tmp/ccLfy504.s:275    .text:0000000000000180 .LVL20
     /tmp/ccLfy504.s:280    .text:000000000000018c .LVL21
     /tmp/ccLfy504.s:285    .text:000000000000019c .LVL22
     /tmp/ccLfy504.s:222    .text:0000000000000124 .LVL12
     /tmp/ccLfy504.s:227    .text:0000000000000134 .LVL13
     /tmp/ccLfy504.s:300    .text:00000000000001b4 .LVL24
     /tmp/ccLfy504.s:305    .text:00000000000001c4 .LVL25
     /tmp/ccLfy504.s:1879   .debug_str:00000000000000d8 .LASF31
     /tmp/ccLfy504.s:1859   .debug_str:0000000000000039 .LASF32
     /tmp/ccLfy504.s:165    .text:0000000000000108 .LFE21
     /tmp/ccLfy504.s:116    .text:00000000000000a4 .LVL7
     /tmp/ccLfy504.s:122    .text:00000000000000b4 .LVL8
     /tmp/ccLfy504.s:150    .text:00000000000000e8 .LVL9
     /tmp/ccLfy504.s:158    .text:00000000000000fc .LVL10
     /tmp/ccLfy504.s:162    .text:0000000000000108 .LVL11
     /tmp/ccLfy504.s:1945   .debug_str:000000000000038e .LASF47
     /tmp/ccLfy504.s:1941   .debug_str:0000000000000370 .LASF48
     /tmp/ccLfy504.s:10     .text:0000000000000000 .LFB20
     /tmp/ccLfy504.s:75     .text:0000000000000070 .LFE20
     /tmp/ccLfy504.s:1798   .debug_loc:0000000000000201 .LLST0
     /tmp/ccLfy504.s:42     .text:0000000000000038 .LVL2
     /tmp/ccLfy504.s:47     .text:0000000000000048 .LVL3
     /tmp/ccLfy504.s:72     .text:000000000000006c .LVL6
     /tmp/ccLfy504.s:1913   .debug_str:00000000000001c6 .LASF33
     /tmp/ccLfy504.s:1897   .debug_str:0000000000000146 .LASF34
     /tmp/ccLfy504.s:1939   .debug_str:000000000000035e .LASF35
     /tmp/ccLfy504.s:1889   .debug_str:000000000000010b .LASF36
     /tmp/ccLfy504.s:1887   .debug_str:00000000000000f6 .LASF37
     /tmp/ccLfy504.s:1873   .debug_str:000000000000009a .LASF38
     /tmp/ccLfy504.s:1901   .debug_str:000000000000015a .LASF39
     /tmp/ccLfy504.s:1947   .debug_str:0000000000000398 .LASF40
     /tmp/ccLfy504.s:1949   .debug_str:00000000000003a5 .LASF41
     /tmp/ccLfy504.s:1931   .debug_str:000000000000026a .LASF42
     /tmp/ccLfy504.s:1895   .debug_str:0000000000000137 .LASF49
     /tmp/ccLfy504.s:1875   .debug_str:00000000000000aa .LASF50
     /tmp/ccLfy504.s:493    .text:00000000000002dc .LVL44
     /tmp/ccLfy504.s:516    .text:0000000000000314 .LVL48
     /tmp/ccLfy504.s:518    .text:0000000000000318 .LVL49
     /tmp/ccLfy504.s:584    .text:00000000000003a8 .LVL60
     /tmp/ccLfy504.s:591    .text:00000000000003b4 .LVL62
     /tmp/ccLfy504.s:611    .text:00000000000003e4 .LVL66
     /tmp/ccLfy504.s:613    .text:00000000000003e8 .LVL67
     /tmp/ccLfy504.s:543    .text:0000000000000348 .LVL53
GAS LISTING /tmp/ccLfy504.s 			page 23


     /tmp/ccLfy504.s:547    .text:0000000000000350 .LVL54
     /tmp/ccLfy504.s:587    .text:00000000000003ac .LVL61
     /tmp/ccLfy504.s:360    .text:000000000000020c .LVL29
     /tmp/ccLfy504.s:441    .text:00000000000002a0 .LVL41
     /tmp/ccLfy504.s:392    .text:0000000000000238 .LVL34
     /tmp/ccLfy504.s:418    .text:0000000000000274 .LVL38
     /tmp/ccLfy504.s:366    .text:0000000000000210 .LVL30
     /tmp/ccLfy504.s:376    .text:0000000000000220 .LVL31
     /tmp/ccLfy504.s:385    .text:0000000000000234 .LVL33
     /tmp/ccLfy504.s:233    .text:000000000000013c .LVL14
     /tmp/ccLfy504.s:314    .text:00000000000001d0 .LVL26
     /tmp/ccLfy504.s:265    .text:0000000000000168 .LVL19
     /tmp/ccLfy504.s:291    .text:00000000000001a4 .LVL23
     /tmp/ccLfy504.s:239    .text:0000000000000140 .LVL15
     /tmp/ccLfy504.s:249    .text:0000000000000150 .LVL16
     /tmp/ccLfy504.s:258    .text:0000000000000164 .LVL18
     /tmp/ccLfy504.s:14     .text:0000000000000000 .LVL0
     /tmp/ccLfy504.s:36     .text:000000000000002c .LVL1
     /tmp/ccLfy504.s:60     .text:0000000000000058 .LVL4
     /tmp/ccLfy504.s:66     .text:0000000000000064 .LVL5
     /tmp/ccLfy504.s:633    .debug_info:0000000000000000 .Ldebug_info0
     /tmp/ccLfy504.s:236    .text:000000000000013c .LBB4
     /tmp/ccLfy504.s:261    .text:0000000000000164 .LBE4
     /tmp/ccLfy504.s:287    .text:000000000000019c .LBB6
     /tmp/ccLfy504.s:293    .text:00000000000001a4 .LBE6
     /tmp/ccLfy504.s:363    .text:000000000000020c .LBB10
     /tmp/ccLfy504.s:388    .text:0000000000000234 .LBE10
     /tmp/ccLfy504.s:414    .text:000000000000026c .LBB12
     /tmp/ccLfy504.s:420    .text:0000000000000274 .LBE12
     /tmp/ccLfy504.s:168    .gcc_except_table:0000000000000000 .LLSDA21

UNDEFINED SYMBOLS
_Z15thread_dispatchv
_Znwm
_ZN9SemaphoreC1Ej
_Z12pprintStringPKc
_ZdlPv
_Unwind_Resume
__gxx_personality_v0
_ZN9Semaphore4waitEv
_Z12printIntegerm
_ZN9Semaphore6signalEv
