GAS LISTING /tmp/ccuniUNr.s 			page 1


   1              		.file	"workers.cpp"
   2              		.option pic
   3              		.option norelax
   4              		.text
   5              	.Ltext0:
   6              		.align	2
   7              		.globl	_Z9fibonaccim
   9              	_Z9fibonaccim:
  10              	.LFB19:
  11              		.file 1 "src/workers.cpp"
   1:src/workers.cpp **** //
   2:src/workers.cpp **** // Created by os on 9/24/25.
   3:src/workers.cpp **** //
   4:src/workers.cpp **** #include "../h/workers.hpp"
   5:src/workers.cpp **** #include "../lib/hw.h"
   6:src/workers.cpp **** 
   7:src/workers.cpp **** #include "../h/print.hpp"
   8:src/workers.cpp **** #include "../h/syscall_c.hpp"
   9:src/workers.cpp **** #include "../h/syscall_cpp.hpp"
  10:src/workers.cpp **** 
  11:src/workers.cpp **** uint64 fibonacci(uint64 n) {
  12              		.loc 1 11 28
  13              		.cfi_startproc
  14              	.LVL0:
  15 0000 130101FE 		addi	sp,sp,-32
  16              		.cfi_def_cfa_offset 32
  17 0004 233C1100 		sd	ra,24(sp)
  18 0008 23388100 		sd	s0,16(sp)
  19 000c 23349100 		sd	s1,8(sp)
  20 0010 23302101 		sd	s2,0(sp)
  21              		.cfi_offset 1, -8
  22              		.cfi_offset 8, -16
  23              		.cfi_offset 9, -24
  24              		.cfi_offset 18, -32
  25 0014 13040102 		addi	s0,sp,32
  26              		.cfi_def_cfa 8, 0
  27 0018 93040500 		mv	s1,a0
  12:src/workers.cpp ****     if (n == 0 || n == 1) { return n; }
  28              		.loc 1 12 5
  29 001c 93071000 		li	a5,1
  30 0020 63F6A702 		bleu	a0,a5,.L1
  13:src/workers.cpp ****     if (n % 4 == 0) thread_dispatch();
  31              		.loc 1 13 5
  32              		.loc 1 13 11 is_stmt 0
  33 0024 93773500 		andi	a5,a0,3
  34              		.loc 1 13 5
  35 0028 638E0702 		beqz	a5,.L6
  36              	.LVL1:
  37              	.L3:
  14:src/workers.cpp ****     return fibonacci(n - 1) + fibonacci(n - 2);
  38              		.loc 1 14 5 is_stmt 1
  39              		.loc 1 14 21 is_stmt 0
  40 002c 1385F4FF 		addi	a0,s1,-1
  41 0030 97000000 		call	_Z9fibonaccim
  41      E7800000 
  42              	.LVL2:
  43 0038 13090500 		mv	s2,a0
GAS LISTING /tmp/ccuniUNr.s 			page 2


  44              		.loc 1 14 40
  45 003c 1385E4FF 		addi	a0,s1,-2
  46 0040 97000000 		call	_Z9fibonaccim
  46      E7800000 
  47              	.LVL3:
  48              		.loc 1 14 46
  49 0048 3305A900 		add	a0,s2,a0
  50              	.L1:
  15:src/workers.cpp **** }
  51              		.loc 1 15 1
  52 004c 83308101 		ld	ra,24(sp)
  53              		.cfi_remember_state
  54              		.cfi_restore 1
  55 0050 03340101 		ld	s0,16(sp)
  56              		.cfi_restore 8
  57              		.cfi_def_cfa 2, 32
  58 0054 83348100 		ld	s1,8(sp)
  59              		.cfi_restore 9
  60              	.LVL4:
  61 0058 03390100 		ld	s2,0(sp)
  62              		.cfi_restore 18
  63 005c 13010102 		addi	sp,sp,32
  64              		.cfi_def_cfa_offset 0
  65 0060 67800000 		jr	ra
  66              	.LVL5:
  67              	.L6:
  68              		.cfi_restore_state
  13:src/workers.cpp ****     if (n % 4 == 0) thread_dispatch();
  69              		.loc 1 13 21 is_stmt 1 discriminator 1
  13:src/workers.cpp ****     if (n % 4 == 0) thread_dispatch();
  70              		.loc 1 13 36 is_stmt 0 discriminator 1
  71 0064 97000000 		call	_Z15thread_dispatchv@plt
  71      E7800000 
  72              	.LVL6:
  73 006c 6FF01FFC 		j	.L3
  74              		.cfi_endproc
  75              	.LFE19:
  77              		.section	.rodata.str1.8,"aMS",@progbits,1
  78              		.align	3
  79              	.LC0:
  80 0000 4661696C 		.string	"Failed\n"
  80      65640A00 
  81              		.text
  82              		.align	2
  83              		.globl	_Z13initSemaphorev
  85              	_Z13initSemaphorev:
  86              	.LFB20:
  16:src/workers.cpp **** 
  17:src/workers.cpp **** Semaphore* semaphore;
  18:src/workers.cpp **** 
  19:src/workers.cpp **** void initSemaphore() {
  87              		.loc 1 19 22 is_stmt 1
  88              		.cfi_startproc
  89              		.cfi_personality 0x9b,DW.ref.__gxx_personality_v0
  90              		.cfi_lsda 0x1b,.LLSDA20
  20:src/workers.cpp ****     if (semaphore) {
  91              		.loc 1 20 5
GAS LISTING /tmp/ccuniUNr.s 			page 3


  92              		.loc 1 20 18 is_stmt 0
  93 0070 97070000 		ld	a5,.LANCHOR0
  93      83B70700 
  94              		.loc 1 20 5
  95 0078 63840700 		beqz	a5,.L15
  96 007c 67800000 		ret
  97              	.L15:
  19:src/workers.cpp ****     if (semaphore) {
  98              		.loc 1 19 22
  99 0080 130101FE 		addi	sp,sp,-32
 100              		.cfi_def_cfa_offset 32
 101 0084 233C1100 		sd	ra,24(sp)
 102 0088 23388100 		sd	s0,16(sp)
 103 008c 23349100 		sd	s1,8(sp)
 104 0090 23302101 		sd	s2,0(sp)
 105              		.cfi_offset 1, -8
 106              		.cfi_offset 8, -16
 107              		.cfi_offset 9, -24
 108              		.cfi_offset 18, -32
 109 0094 13040102 		addi	s0,sp,32
 110              		.cfi_def_cfa 8, 0
  21:src/workers.cpp ****         return;
  22:src/workers.cpp ****     }
  23:src/workers.cpp ****     semaphore = new Semaphore(2);
 111              		.loc 1 23 5 is_stmt 1
 112              		.loc 1 23 32 is_stmt 0
 113 0098 13050001 		li	a0,16
 114              	.LEHB0:
 115 009c 97000000 		call	_Znwm@plt
 115      E7800000 
 116              	.LVL7:
 117              	.LEHE0:
 118 00a4 93040500 		mv	s1,a0
 119 00a8 93052000 		li	a1,2
 120              	.LEHB1:
 121 00ac 97000000 		call	_ZN9SemaphoreC1Ej@plt
 121      E7800000 
 122              	.LVL8:
 123              	.LEHE1:
 124              		.loc 1 23 15 discriminator 2
 125 00b4 97070000 		sd	s1,.LANCHOR0,a5
 125      23B09700 
  24:src/workers.cpp ****     if (semaphore == nullptr) {
 126              		.loc 1 24 5 is_stmt 1 discriminator 2
 127 00bc 638E0400 		beqz	s1,.L16
 128              	.L7:
  25:src/workers.cpp ****         printString("Failed\n");
  26:src/workers.cpp **** 
  27:src/workers.cpp ****     }
  28:src/workers.cpp **** }
 129              		.loc 1 28 1 is_stmt 0
 130 00c0 83308101 		ld	ra,24(sp)
 131              		.cfi_remember_state
 132              		.cfi_restore 1
 133 00c4 03340101 		ld	s0,16(sp)
 134              		.cfi_restore 8
 135              		.cfi_def_cfa 2, 32
GAS LISTING /tmp/ccuniUNr.s 			page 4


 136 00c8 83348100 		ld	s1,8(sp)
 137              		.cfi_restore 9
 138 00cc 03390100 		ld	s2,0(sp)
 139              		.cfi_restore 18
 140 00d0 13010102 		addi	sp,sp,32
 141              		.cfi_def_cfa_offset 0
 142 00d4 67800000 		jr	ra
 143              	.L16:
 144              		.cfi_restore_state
  25:src/workers.cpp ****         printString("Failed\n");
 145              		.loc 1 25 9 is_stmt 1
  25:src/workers.cpp ****         printString("Failed\n");
 146              		.loc 1 25 20 is_stmt 0
 147 00d8 17050000 		lla	a0,.LC0
 147      13050500 
 148              	.LEHB2:
 149 00e0 97000000 		call	_Z11printStringPKc@plt
 149      E7800000 
 150              	.LVL9:
 151              	.LEHE2:
 152 00e8 6FF09FFD 		j	.L7
 153              	.L10:
 154 00ec 13090500 		mv	s2,a0
  23:src/workers.cpp ****     if (semaphore == nullptr) {
 155              		.loc 1 23 32
 156 00f0 13850400 		mv	a0,s1
 157 00f4 97000000 		call	_ZdlPv@plt
 157      E7800000 
 158              	.LVL10:
 159 00fc 13050900 		mv	a0,s2
 160              	.LEHB3:
 161 0100 97000000 		call	_Unwind_Resume@plt
 161      E7800000 
 162              	.LVL11:
 163              	.LEHE3:
 164              		.cfi_endproc
 165              	.LFE20:
 166              		.globl	__gxx_personality_v0
 167              		.section	.gcc_except_table,"a",@progbits
 168              	.LLSDA20:
 169 0000 FF       		.byte	0xff
 170 0001 FF       		.byte	0xff
 171 0002 03       		.byte	0x3
 172 0003 34       		.byte	0x34
 173 0004 00000000 		.4byte	.LEHB0-.LFB20
 174 0008 00000000 		.4byte	.LEHE0-.LEHB0
 175 000c 00000000 		.4byte	0
 176 0010 00       		.byte	0
 177 0011 00000000 		.4byte	.LEHB1-.LFB20
 178 0015 00000000 		.4byte	.LEHE1-.LEHB1
 179 0019 00000000 		.4byte	.L10-.LFB20
 180 001d 00       		.byte	0
 181 001e 00000000 		.4byte	.LEHB2-.LFB20
 182 0022 00000000 		.4byte	.LEHE2-.LEHB2
 183 0026 00000000 		.4byte	0
 184 002a 00       		.byte	0
 185 002b 00000000 		.4byte	.LEHB3-.LFB20
GAS LISTING /tmp/ccuniUNr.s 			page 5


 186 002f 00000000 		.4byte	.LEHE3-.LEHB3
 187 0033 00000000 		.4byte	0
 188 0037 00       		.byte	0
 189              		.text
 191              		.section	.rodata.str1.8
 192              		.align	3
 193              	.LC1:
 194 0008 413A2069 		.string	"A: i="
 194      3D00
 195 000e 0000     		.align	3
 196              	.LC2:
 197 0010 0A00     		.string	"\n"
 198 0012 00000000 		.align	3
 198      0000
 199              	.LC3:
 200 0018 413A2079 		.string	"A: yield\n"
 200      69656C64 
 200      0A00
 201 0022 00000000 		.align	3
 201      0000
 202              	.LC4:
 203 0028 413A2074 		.string	"A: t1="
 203      313D00
 204 002f 00       		.align	3
 205              	.LC5:
 206 0030 413A2066 		.string	"A: fibonaci="
 206      69626F6E 
 206      6163693D 
 206      00
 207 003d 000000   		.align	3
 208              	.LC6:
 209 0040 41206669 		.string	"A finished!\n"
 209      6E697368 
 209      6564210A 
 209      00
 210              		.text
 211              		.align	2
 212              		.globl	_Z11workerBodyAv
 214              	_Z11workerBodyAv:
 215              	.LFB21:
  29:src/workers.cpp **** 
  30:src/workers.cpp **** void workerBodyA() {
 216              		.loc 1 30 20 is_stmt 1
 217              		.cfi_startproc
 218 0108 130101FE 		addi	sp,sp,-32
 219              		.cfi_def_cfa_offset 32
 220 010c 233C1100 		sd	ra,24(sp)
 221 0110 23388100 		sd	s0,16(sp)
 222 0114 23349100 		sd	s1,8(sp)
 223 0118 23302101 		sd	s2,0(sp)
 224              		.cfi_offset 1, -8
 225              		.cfi_offset 8, -16
 226              		.cfi_offset 9, -24
 227              		.cfi_offset 18, -32
 228 011c 13040102 		addi	s0,sp,32
 229              		.cfi_def_cfa 8, 0
  31:src/workers.cpp ****     initSemaphore();
GAS LISTING /tmp/ccuniUNr.s 			page 6


 230              		.loc 1 31 5
 231              		.loc 1 31 18 is_stmt 0
 232 0120 97000000 		call	_Z13initSemaphorev
 232      E7800000 
 233              	.LVL12:
  32:src/workers.cpp ****     semaphore->wait();
 234              		.loc 1 32 5 is_stmt 1
 235              		.loc 1 32 20 is_stmt 0
 236 0128 17050000 		ld	a0,.LANCHOR0
 236      03350500 
 237 0130 97000000 		call	_ZN9Semaphore4waitEv@plt
 237      E7800000 
 238              	.LVL13:
  33:src/workers.cpp ****     uint8 i = 0;
 239              		.loc 1 33 5 is_stmt 1
 240              		.loc 1 33 11 is_stmt 0
 241 0138 93040000 		li	s1,0
 242 013c 6F008003 		j	.L19
 243              	.LVL14:
 244              	.L23:
  34:src/workers.cpp ****     for (; i < 3; i++) { printString("A: i="); printInteger(i); printString("\n"); }
 245              		.loc 1 34 26 is_stmt 1 discriminator 1
 246              		.loc 1 34 37 is_stmt 0 discriminator 1
 247 0140 17050000 		lla	a0,.LC1
 247      13050500 
 248 0148 97000000 		call	_Z11printStringPKc@plt
 248      E7800000 
 249              	.LVL15:
 250              		.loc 1 34 48 is_stmt 1 discriminator 1
 251              		.loc 1 34 60 is_stmt 0 discriminator 1
 252 0150 13850400 		mv	a0,s1
 253 0154 97000000 		call	_Z12printIntegerm@plt
 253      E7800000 
 254              	.LVL16:
 255              		.loc 1 34 65 is_stmt 1 discriminator 1
 256              		.loc 1 34 76 is_stmt 0 discriminator 1
 257 015c 17050000 		lla	a0,.LC2
 257      13050500 
 258 0164 97000000 		call	_Z11printStringPKc@plt
 258      E7800000 
 259              	.LVL17:
 260              		.loc 1 34 5 is_stmt 1 discriminator 1
 261 016c 9B841400 		addiw	s1,s1,1
 262              	.LVL18:
 263 0170 93F4F40F 		andi	s1,s1,0xff
 264              	.LVL19:
 265              	.L19:
 266              		.loc 1 34 5 discriminator 2
 267              		.loc 1 34 14 discriminator 2
 268 0174 93072000 		li	a5,2
 269 0178 E3F497FC 		bleu	s1,a5,.L23
  35:src/workers.cpp **** 
  36:src/workers.cpp ****     printString("A: yield\n");
 270              		.loc 1 36 5
 271              		.loc 1 36 16 is_stmt 0
 272 017c 17050000 		lla	a0,.LC3
 272      13050500 
GAS LISTING /tmp/ccuniUNr.s 			page 7


 273 0184 97000000 		call	_Z11printStringPKc@plt
 273      E7800000 
 274              	.LVL20:
  37:src/workers.cpp ****     __asm__ ("li t1, 7");
 275              		.loc 1 37 5 is_stmt 1
 276              		.loc 1 37 25 is_stmt 0
 277              	#APP
 278              	# 37 "src/workers.cpp" 1
  38              	    thread_dispatch();
 279              		li t1, 7
 280              	# 0 "" 2
 281              		.loc 1 38 5 is_stmt 1
 282              		.loc 1 38 20 is_stmt 0
 283              	#NO_APP
 284 0190 97000000 		call	_Z15thread_dispatchv@plt
 284      E7800000 
 285              	.LVL21:
  39:src/workers.cpp **** 
  40:src/workers.cpp ****     uint64 t1 = 0;
 286              		.loc 1 40 5 is_stmt 1
  41:src/workers.cpp ****     __asm__ ("mv %[t1], t1" : [t1] "=r"(t1));
 287              		.loc 1 41 5
 288              		.loc 1 41 45 is_stmt 0
 289              	#APP
 290              	# 41 "src/workers.cpp" 1
  42              	    printString("A: t1="); printInteger(t1); printString("\n");
 291              		mv s2, t1
 292              	# 0 "" 2
 293              	.LVL22:
 294              		.loc 1 42 5 is_stmt 1
 295              		.loc 1 42 16 is_stmt 0
 296              	#NO_APP
 297 019c 17050000 		lla	a0,.LC4
 297      13050500 
 298 01a4 97000000 		call	_Z11printStringPKc@plt
 298      E7800000 
 299              	.LVL23:
 300              		.loc 1 42 28 is_stmt 1
 301              		.loc 1 42 40 is_stmt 0
 302 01ac 13050900 		mv	a0,s2
 303 01b0 97000000 		call	_Z12printIntegerm@plt
 303      E7800000 
 304              	.LVL24:
 305              		.loc 1 42 46 is_stmt 1
 306              		.loc 1 42 57 is_stmt 0
 307 01b8 17050000 		lla	a0,.LC2
 307      13050500 
 308 01c0 97000000 		call	_Z11printStringPKc@plt
 308      E7800000 
 309              	.LVL25:
  43:src/workers.cpp **** 
  44:src/workers.cpp ****     uint64 result = fibonacci(20);
 310              		.loc 1 44 5 is_stmt 1
 311              		.loc 1 44 30 is_stmt 0
 312 01c8 13054001 		li	a0,20
 313 01cc 97000000 		call	_Z9fibonaccim
 313      E7800000 
GAS LISTING /tmp/ccuniUNr.s 			page 8


 314              	.LVL26:
 315 01d4 13090500 		mv	s2,a0
 316              	.LVL27:
  45:src/workers.cpp ****     printString("A: fibonaci="); printInteger(result); printString("\n");
 317              		.loc 1 45 5 is_stmt 1
 318              		.loc 1 45 16 is_stmt 0
 319 01d8 17050000 		lla	a0,.LC5
 319      13050500 
 320              	.LVL28:
 321 01e0 97000000 		call	_Z11printStringPKc@plt
 321      E7800000 
 322              	.LVL29:
 323              		.loc 1 45 34 is_stmt 1
 324              		.loc 1 45 46 is_stmt 0
 325 01e8 13050900 		mv	a0,s2
 326 01ec 97000000 		call	_Z12printIntegerm@plt
 326      E7800000 
 327              	.LVL30:
 328              		.loc 1 45 56 is_stmt 1
 329              		.loc 1 45 67 is_stmt 0
 330 01f4 17050000 		lla	a0,.LC2
 330      13050500 
 331 01fc 97000000 		call	_Z11printStringPKc@plt
 331      E7800000 
 332              	.LVL31:
 333 0204 6F008003 		j	.L21
 334              	.L24:
  46:src/workers.cpp **** 
  47:src/workers.cpp ****     for (; i < 6; i++) { printString("A: i="); printInteger(i); printString("\n"); }
 335              		.loc 1 47 26 is_stmt 1 discriminator 1
 336              		.loc 1 47 37 is_stmt 0 discriminator 1
 337 0208 17050000 		lla	a0,.LC1
 337      13050500 
 338 0210 97000000 		call	_Z11printStringPKc@plt
 338      E7800000 
 339              	.LVL32:
 340              		.loc 1 47 48 is_stmt 1 discriminator 1
 341              		.loc 1 47 60 is_stmt 0 discriminator 1
 342 0218 13850400 		mv	a0,s1
 343 021c 97000000 		call	_Z12printIntegerm@plt
 343      E7800000 
 344              	.LVL33:
 345              		.loc 1 47 65 is_stmt 1 discriminator 1
 346              		.loc 1 47 76 is_stmt 0 discriminator 1
 347 0224 17050000 		lla	a0,.LC2
 347      13050500 
 348 022c 97000000 		call	_Z11printStringPKc@plt
 348      E7800000 
 349              	.LVL34:
 350              		.loc 1 47 5 is_stmt 1 discriminator 1
 351 0234 9B841400 		addiw	s1,s1,1
 352              	.LVL35:
 353 0238 93F4F40F 		andi	s1,s1,0xff
 354              	.LVL36:
 355              	.L21:
 356              		.loc 1 47 5 discriminator 2
 357              		.loc 1 47 14 discriminator 2
GAS LISTING /tmp/ccuniUNr.s 			page 9


 358 023c 93075000 		li	a5,5
 359 0240 E3F497FC 		bleu	s1,a5,.L24
  48:src/workers.cpp **** 
  49:src/workers.cpp ****     printString("A finished!\n");
 360              		.loc 1 49 5
 361              		.loc 1 49 16 is_stmt 0
 362 0244 17050000 		lla	a0,.LC6
 362      13050500 
 363 024c 97000000 		call	_Z11printStringPKc@plt
 363      E7800000 
 364              	.LVL37:
  50:src/workers.cpp ****     semaphore->signal();
 365              		.loc 1 50 5 is_stmt 1
 366              		.loc 1 50 22 is_stmt 0
 367 0254 17050000 		ld	a0,.LANCHOR0
 367      03350500 
 368 025c 97000000 		call	_ZN9Semaphore6signalEv@plt
 368      E7800000 
 369              	.LVL38:
  51:src/workers.cpp **** 
  52:src/workers.cpp **** }
 370              		.loc 1 52 1
 371 0264 83308101 		ld	ra,24(sp)
 372              		.cfi_restore 1
 373 0268 03340101 		ld	s0,16(sp)
 374              		.cfi_restore 8
 375              		.cfi_def_cfa 2, 32
 376 026c 83348100 		ld	s1,8(sp)
 377              		.cfi_restore 9
 378              	.LVL39:
 379 0270 03390100 		ld	s2,0(sp)
 380              		.cfi_restore 18
 381              	.LVL40:
 382 0274 13010102 		addi	sp,sp,32
 383              		.cfi_def_cfa_offset 0
 384 0278 67800000 		jr	ra
 385              		.cfi_endproc
 386              	.LFE21:
 388              		.section	.rodata.str1.8
 389 004d 000000   		.align	3
 390              	.LC7:
 391 0050 423A2069 		.string	"B: i="
 391      3D00
 392 0056 0000     		.align	3
 393              	.LC8:
 394 0058 423A2079 		.string	"B: yield\n"
 394      69656C64 
 394      0A00
 395 0062 00000000 		.align	3
 395      0000
 396              	.LC9:
 397 0068 423A2066 		.string	"B: fibonaci="
 397      69626F6E 
 397      6163693D 
 397      00
 398 0075 000000   		.align	3
 399              	.LC10:
GAS LISTING /tmp/ccuniUNr.s 			page 10


 400 0078 42206669 		.string	"B finished!\n"
 400      6E697368 
 400      6564210A 
 400      00
 401              		.text
 402              		.align	2
 403              		.globl	_Z11workerBodyBv
 405              	_Z11workerBodyBv:
 406              	.LFB22:
  53:src/workers.cpp **** 
  54:src/workers.cpp **** void workerBodyB() {
 407              		.loc 1 54 20 is_stmt 1
 408              		.cfi_startproc
 409 027c 130101FE 		addi	sp,sp,-32
 410              		.cfi_def_cfa_offset 32
 411 0280 233C1100 		sd	ra,24(sp)
 412 0284 23388100 		sd	s0,16(sp)
 413 0288 23349100 		sd	s1,8(sp)
 414 028c 23302101 		sd	s2,0(sp)
 415              		.cfi_offset 1, -8
 416              		.cfi_offset 8, -16
 417              		.cfi_offset 9, -24
 418              		.cfi_offset 18, -32
 419 0290 13040102 		addi	s0,sp,32
 420              		.cfi_def_cfa 8, 0
  55:src/workers.cpp ****     initSemaphore();
 421              		.loc 1 55 5
 422              		.loc 1 55 18 is_stmt 0
 423 0294 97000000 		call	_Z13initSemaphorev
 423      E7800000 
 424              	.LVL41:
  56:src/workers.cpp ****     semaphore->wait();
 425              		.loc 1 56 5 is_stmt 1
 426              		.loc 1 56 20 is_stmt 0
 427 029c 17050000 		ld	a0,.LANCHOR0
 427      03350500 
 428 02a4 97000000 		call	_ZN9Semaphore4waitEv@plt
 428      E7800000 
 429              	.LVL42:
  57:src/workers.cpp ****     uint8 i = 10;
 430              		.loc 1 57 5 is_stmt 1
 431              		.loc 1 57 11 is_stmt 0
 432 02ac 9304A000 		li	s1,10
 433 02b0 6F008003 		j	.L27
 434              	.LVL43:
 435              	.L31:
  58:src/workers.cpp ****     for (; i < 13; i++) { printString("B: i="); printInteger(i); printString("\n"); }
 436              		.loc 1 58 27 is_stmt 1 discriminator 1
 437              		.loc 1 58 38 is_stmt 0 discriminator 1
 438 02b4 17050000 		lla	a0,.LC7
 438      13050500 
 439 02bc 97000000 		call	_Z11printStringPKc@plt
 439      E7800000 
 440              	.LVL44:
 441              		.loc 1 58 49 is_stmt 1 discriminator 1
 442              		.loc 1 58 61 is_stmt 0 discriminator 1
 443 02c4 13850400 		mv	a0,s1
GAS LISTING /tmp/ccuniUNr.s 			page 11


 444 02c8 97000000 		call	_Z12printIntegerm@plt
 444      E7800000 
 445              	.LVL45:
 446              		.loc 1 58 66 is_stmt 1 discriminator 1
 447              		.loc 1 58 77 is_stmt 0 discriminator 1
 448 02d0 17050000 		lla	a0,.LC2
 448      13050500 
 449 02d8 97000000 		call	_Z11printStringPKc@plt
 449      E7800000 
 450              	.LVL46:
 451              		.loc 1 58 5 is_stmt 1 discriminator 1
 452 02e0 9B841400 		addiw	s1,s1,1
 453              	.LVL47:
 454 02e4 93F4F40F 		andi	s1,s1,0xff
 455              	.LVL48:
 456              	.L27:
 457              		.loc 1 58 5 discriminator 2
 458              		.loc 1 58 14 discriminator 2
 459 02e8 9307C000 		li	a5,12
 460 02ec E3F497FC 		bleu	s1,a5,.L31
  59:src/workers.cpp **** 
  60:src/workers.cpp ****     printString("B: yield\n");
 461              		.loc 1 60 5
 462              		.loc 1 60 16 is_stmt 0
 463 02f0 17050000 		lla	a0,.LC8
 463      13050500 
 464 02f8 97000000 		call	_Z11printStringPKc@plt
 464      E7800000 
 465              	.LVL49:
  61:src/workers.cpp ****     __asm__ ("li t1, 5");
 466              		.loc 1 61 5 is_stmt 1
 467              		.loc 1 61 25 is_stmt 0
 468              	#APP
 469              	# 61 "src/workers.cpp" 1
  62              	    thread_dispatch();
 470              		li t1, 5
 471              	# 0 "" 2
 472              		.loc 1 62 5 is_stmt 1
 473              		.loc 1 62 20 is_stmt 0
 474              	#NO_APP
 475 0304 97000000 		call	_Z15thread_dispatchv@plt
 475      E7800000 
 476              	.LVL50:
  63:src/workers.cpp **** 
  64:src/workers.cpp ****     uint64 result = fibonacci(23);
 477              		.loc 1 64 5 is_stmt 1
 478              		.loc 1 64 30 is_stmt 0
 479 030c 13057001 		li	a0,23
 480 0310 97000000 		call	_Z9fibonaccim
 480      E7800000 
 481              	.LVL51:
 482 0318 13090500 		mv	s2,a0
 483              	.LVL52:
  65:src/workers.cpp ****     printString("B: fibonaci="); printInteger(result); printString("\n");
 484              		.loc 1 65 5 is_stmt 1
 485              		.loc 1 65 16 is_stmt 0
 486 031c 17050000 		lla	a0,.LC9
GAS LISTING /tmp/ccuniUNr.s 			page 12


 486      13050500 
 487              	.LVL53:
 488 0324 97000000 		call	_Z11printStringPKc@plt
 488      E7800000 
 489              	.LVL54:
 490              		.loc 1 65 34 is_stmt 1
 491              		.loc 1 65 46 is_stmt 0
 492 032c 13050900 		mv	a0,s2
 493 0330 97000000 		call	_Z12printIntegerm@plt
 493      E7800000 
 494              	.LVL55:
 495              		.loc 1 65 56 is_stmt 1
 496              		.loc 1 65 67 is_stmt 0
 497 0338 17050000 		lla	a0,.LC2
 497      13050500 
 498 0340 97000000 		call	_Z11printStringPKc@plt
 498      E7800000 
 499              	.LVL56:
 500 0348 6F008003 		j	.L29
 501              	.L32:
  66:src/workers.cpp **** 
  67:src/workers.cpp ****     for (; i < 16; i++) { printString("B: i="); printInteger(i); printString("\n"); }
 502              		.loc 1 67 27 is_stmt 1 discriminator 1
 503              		.loc 1 67 38 is_stmt 0 discriminator 1
 504 034c 17050000 		lla	a0,.LC7
 504      13050500 
 505 0354 97000000 		call	_Z11printStringPKc@plt
 505      E7800000 
 506              	.LVL57:
 507              		.loc 1 67 49 is_stmt 1 discriminator 1
 508              		.loc 1 67 61 is_stmt 0 discriminator 1
 509 035c 13850400 		mv	a0,s1
 510 0360 97000000 		call	_Z12printIntegerm@plt
 510      E7800000 
 511              	.LVL58:
 512              		.loc 1 67 66 is_stmt 1 discriminator 1
 513              		.loc 1 67 77 is_stmt 0 discriminator 1
 514 0368 17050000 		lla	a0,.LC2
 514      13050500 
 515 0370 97000000 		call	_Z11printStringPKc@plt
 515      E7800000 
 516              	.LVL59:
 517              		.loc 1 67 5 is_stmt 1 discriminator 1
 518 0378 9B841400 		addiw	s1,s1,1
 519              	.LVL60:
 520 037c 93F4F40F 		andi	s1,s1,0xff
 521              	.LVL61:
 522              	.L29:
 523              		.loc 1 67 5 discriminator 2
 524              		.loc 1 67 14 discriminator 2
 525 0380 9307F000 		li	a5,15
 526 0384 E3F497FC 		bleu	s1,a5,.L32
  68:src/workers.cpp ****     printString("B finished!\n");
 527              		.loc 1 68 5
 528              		.loc 1 68 16 is_stmt 0
 529 0388 17050000 		lla	a0,.LC10
 529      13050500 
GAS LISTING /tmp/ccuniUNr.s 			page 13


 530 0390 97000000 		call	_Z11printStringPKc@plt
 530      E7800000 
 531              	.LVL62:
  69:src/workers.cpp ****     semaphore->signal();
 532              		.loc 1 69 5 is_stmt 1
 533              		.loc 1 69 22 is_stmt 0
 534 0398 17050000 		ld	a0,.LANCHOR0
 534      03350500 
 535 03a0 97000000 		call	_ZN9Semaphore6signalEv@plt
 535      E7800000 
 536              	.LVL63:
  70:src/workers.cpp **** }
 537              		.loc 1 70 1
 538 03a8 83308101 		ld	ra,24(sp)
 539              		.cfi_restore 1
 540 03ac 03340101 		ld	s0,16(sp)
 541              		.cfi_restore 8
 542              		.cfi_def_cfa 2, 32
 543 03b0 83348100 		ld	s1,8(sp)
 544              		.cfi_restore 9
 545              	.LVL64:
 546 03b4 03390100 		ld	s2,0(sp)
 547              		.cfi_restore 18
 548              	.LVL65:
 549 03b8 13010102 		addi	sp,sp,32
 550              		.cfi_def_cfa_offset 0
 551 03bc 67800000 		jr	ra
 552              		.cfi_endproc
 553              	.LFE22:
 555              		.section	.rodata.str1.8
 556 0085 000000   		.align	3
 557              	.LC11:
 558 0088 433A2069 		.string	"C: i="
 558      3D00
 559 008e 0000     		.align	3
 560              	.LC12:
 561 0090 433A2079 		.string	"C: yield\n"
 561      69656C64 
 561      0A00
 562 009a 00000000 		.align	3
 562      0000
 563              	.LC13:
 564 00a0 433A2066 		.string	"C: fibonaci="
 564      69626F6E 
 564      6163693D 
 564      00
 565 00ad 000000   		.align	3
 566              	.LC14:
 567 00b0 43206669 		.string	"C finished!\n"
 567      6E697368 
 567      6564210A 
 567      00
 568              		.text
 569              		.align	2
 570              		.globl	_Z11workerBodyCv
 572              	_Z11workerBodyCv:
 573              	.LFB23:
GAS LISTING /tmp/ccuniUNr.s 			page 14


  71:src/workers.cpp **** 
  72:src/workers.cpp **** void workerBodyC() {
 574              		.loc 1 72 20 is_stmt 1
 575              		.cfi_startproc
 576 03c0 130101FE 		addi	sp,sp,-32
 577              		.cfi_def_cfa_offset 32
 578 03c4 233C1100 		sd	ra,24(sp)
 579 03c8 23388100 		sd	s0,16(sp)
 580 03cc 23349100 		sd	s1,8(sp)
 581 03d0 23302101 		sd	s2,0(sp)
 582              		.cfi_offset 1, -8
 583              		.cfi_offset 8, -16
 584              		.cfi_offset 9, -24
 585              		.cfi_offset 18, -32
 586 03d4 13040102 		addi	s0,sp,32
 587              		.cfi_def_cfa 8, 0
  73:src/workers.cpp ****     initSemaphore();
 588              		.loc 1 73 5
 589              		.loc 1 73 18 is_stmt 0
 590 03d8 97000000 		call	_Z13initSemaphorev
 590      E7800000 
 591              	.LVL66:
  74:src/workers.cpp ****     semaphore->wait();
 592              		.loc 1 74 5 is_stmt 1
 593              		.loc 1 74 20 is_stmt 0
 594 03e0 17050000 		ld	a0,.LANCHOR0
 594      03350500 
 595 03e8 97000000 		call	_ZN9Semaphore4waitEv@plt
 595      E7800000 
 596              	.LVL67:
  75:src/workers.cpp ****     uint8 i = 20;
 597              		.loc 1 75 5 is_stmt 1
 598              		.loc 1 75 11 is_stmt 0
 599 03f0 93044001 		li	s1,20
 600 03f4 6F008003 		j	.L35
 601              	.LVL68:
 602              	.L39:
  76:src/workers.cpp ****     for (; i < 23; i++) { printString("C: i="); printInteger(i); printString("\n"); }
 603              		.loc 1 76 27 is_stmt 1 discriminator 1
 604              		.loc 1 76 38 is_stmt 0 discriminator 1
 605 03f8 17050000 		lla	a0,.LC11
 605      13050500 
 606 0400 97000000 		call	_Z11printStringPKc@plt
 606      E7800000 
 607              	.LVL69:
 608              		.loc 1 76 49 is_stmt 1 discriminator 1
 609              		.loc 1 76 61 is_stmt 0 discriminator 1
 610 0408 13850400 		mv	a0,s1
 611 040c 97000000 		call	_Z12printIntegerm@plt
 611      E7800000 
 612              	.LVL70:
 613              		.loc 1 76 66 is_stmt 1 discriminator 1
 614              		.loc 1 76 77 is_stmt 0 discriminator 1
 615 0414 17050000 		lla	a0,.LC2
 615      13050500 
 616 041c 97000000 		call	_Z11printStringPKc@plt
 616      E7800000 
GAS LISTING /tmp/ccuniUNr.s 			page 15


 617              	.LVL71:
 618              		.loc 1 76 5 is_stmt 1 discriminator 1
 619 0424 9B841400 		addiw	s1,s1,1
 620              	.LVL72:
 621 0428 93F4F40F 		andi	s1,s1,0xff
 622              	.LVL73:
 623              	.L35:
 624              		.loc 1 76 5 discriminator 2
 625              		.loc 1 76 14 discriminator 2
 626 042c 93076001 		li	a5,22
 627 0430 E3F497FC 		bleu	s1,a5,.L39
  77:src/workers.cpp **** 
  78:src/workers.cpp ****     printString("C: yield\n");
 628              		.loc 1 78 5
 629              		.loc 1 78 16 is_stmt 0
 630 0434 17050000 		lla	a0,.LC12
 630      13050500 
 631 043c 97000000 		call	_Z11printStringPKc@plt
 631      E7800000 
 632              	.LVL74:
  79:src/workers.cpp ****     __asm__ ("li t1, 9");
 633              		.loc 1 79 5 is_stmt 1
 634              		.loc 1 79 25 is_stmt 0
 635              	#APP
 636              	# 79 "src/workers.cpp" 1
  80              	    thread_dispatch();
 637              		li t1, 9
 638              	# 0 "" 2
 639              		.loc 1 80 5 is_stmt 1
 640              		.loc 1 80 20 is_stmt 0
 641              	#NO_APP
 642 0448 97000000 		call	_Z15thread_dispatchv@plt
 642      E7800000 
 643              	.LVL75:
  81:src/workers.cpp **** 
  82:src/workers.cpp ****     uint64 result = fibonacci(35);
 644              		.loc 1 82 5 is_stmt 1
 645              		.loc 1 82 30 is_stmt 0
 646 0450 13053002 		li	a0,35
 647 0454 97000000 		call	_Z9fibonaccim
 647      E7800000 
 648              	.LVL76:
 649 045c 13090500 		mv	s2,a0
 650              	.LVL77:
  83:src/workers.cpp ****     printString("C: fibonaci="); printInteger(result); printString("\n");
 651              		.loc 1 83 5 is_stmt 1
 652              		.loc 1 83 16 is_stmt 0
 653 0460 17050000 		lla	a0,.LC13
 653      13050500 
 654              	.LVL78:
 655 0468 97000000 		call	_Z11printStringPKc@plt
 655      E7800000 
 656              	.LVL79:
 657              		.loc 1 83 34 is_stmt 1
 658              		.loc 1 83 46 is_stmt 0
 659 0470 13050900 		mv	a0,s2
 660 0474 97000000 		call	_Z12printIntegerm@plt
GAS LISTING /tmp/ccuniUNr.s 			page 16


 660      E7800000 
 661              	.LVL80:
 662              		.loc 1 83 56 is_stmt 1
 663              		.loc 1 83 67 is_stmt 0
 664 047c 17050000 		lla	a0,.LC2
 664      13050500 
 665 0484 97000000 		call	_Z11printStringPKc@plt
 665      E7800000 
 666              	.LVL81:
 667 048c 6F008003 		j	.L37
 668              	.L40:
  84:src/workers.cpp **** 
  85:src/workers.cpp ****     for (; i < 26; i++) { printString("C: i="); printInteger(i); printString("\n"); }
 669              		.loc 1 85 27 is_stmt 1 discriminator 1
 670              		.loc 1 85 38 is_stmt 0 discriminator 1
 671 0490 17050000 		lla	a0,.LC11
 671      13050500 
 672 0498 97000000 		call	_Z11printStringPKc@plt
 672      E7800000 
 673              	.LVL82:
 674              		.loc 1 85 49 is_stmt 1 discriminator 1
 675              		.loc 1 85 61 is_stmt 0 discriminator 1
 676 04a0 13850400 		mv	a0,s1
 677 04a4 97000000 		call	_Z12printIntegerm@plt
 677      E7800000 
 678              	.LVL83:
 679              		.loc 1 85 66 is_stmt 1 discriminator 1
 680              		.loc 1 85 77 is_stmt 0 discriminator 1
 681 04ac 17050000 		lla	a0,.LC2
 681      13050500 
 682 04b4 97000000 		call	_Z11printStringPKc@plt
 682      E7800000 
 683              	.LVL84:
 684              		.loc 1 85 5 is_stmt 1 discriminator 1
 685 04bc 9B841400 		addiw	s1,s1,1
 686              	.LVL85:
 687 04c0 93F4F40F 		andi	s1,s1,0xff
 688              	.LVL86:
 689              	.L37:
 690              		.loc 1 85 5 discriminator 2
 691              		.loc 1 85 14 discriminator 2
 692 04c4 93079001 		li	a5,25
 693 04c8 E3F497FC 		bleu	s1,a5,.L40
  86:src/workers.cpp ****     printString("C finished!\n");
 694              		.loc 1 86 5
 695              		.loc 1 86 16 is_stmt 0
 696 04cc 17050000 		lla	a0,.LC14
 696      13050500 
 697 04d4 97000000 		call	_Z11printStringPKc@plt
 697      E7800000 
 698              	.LVL87:
  87:src/workers.cpp ****     semaphore->signal();
 699              		.loc 1 87 5 is_stmt 1
 700              		.loc 1 87 22 is_stmt 0
 701 04dc 17050000 		ld	a0,.LANCHOR0
 701      03350500 
 702 04e4 97000000 		call	_ZN9Semaphore6signalEv@plt
GAS LISTING /tmp/ccuniUNr.s 			page 17


 702      E7800000 
 703              	.LVL88:
  88:src/workers.cpp **** }
 704              		.loc 1 88 1
 705 04ec 83308101 		ld	ra,24(sp)
 706              		.cfi_restore 1
 707 04f0 03340101 		ld	s0,16(sp)
 708              		.cfi_restore 8
 709              		.cfi_def_cfa 2, 32
 710 04f4 83348100 		ld	s1,8(sp)
 711              		.cfi_restore 9
 712              	.LVL89:
 713 04f8 03390100 		ld	s2,0(sp)
 714              		.cfi_restore 18
 715              	.LVL90:
 716 04fc 13010102 		addi	sp,sp,32
 717              		.cfi_def_cfa_offset 0
 718 0500 67800000 		jr	ra
 719              		.cfi_endproc
 720              	.LFE23:
 722              		.globl	semaphore
 723              		.bss
 724              		.align	3
 725              		.set	.LANCHOR0,. + 0
 728              	semaphore:
 729 0000 00000000 		.zero	8
 729      00000000 
 730              		.text
 731              	.Letext0:
 732              		.file 2 "src/../h/../lib/hw.h"
 733              		.file 3 "src/../h/syscall_cpp.hpp"
 734              		.file 4 "src/../h/print.hpp"
 735              		.file 5 "src/../h/syscall_c.hpp"
 2190              		.align	3
 2193              	DW.ref.__gxx_personality_v0:
 2194 0000 00000000 		.dword	__gxx_personality_v0
 2194      00000000 
 2195              		.ident	"GCC: (Ubuntu 9.4.0-1ubuntu1~20.04) 9.4.0"
 2196              		.section	.note.GNU-stack,"",@progbits
GAS LISTING /tmp/ccuniUNr.s 			page 18


DEFINED SYMBOLS
                            *ABS*:0000000000000000 workers.cpp
     /tmp/ccuniUNr.s:9      .text:0000000000000000 _Z9fibonaccim
     /tmp/ccuniUNr.s:13     .text:0000000000000000 .L0 
     /tmp/ccuniUNr.s:15     .text:0000000000000000 .L0 
     /tmp/ccuniUNr.s:16     .text:0000000000000004 .L0 
     /tmp/ccuniUNr.s:21     .text:0000000000000014 .L0 
     /tmp/ccuniUNr.s:22     .text:0000000000000014 .L0 
     /tmp/ccuniUNr.s:23     .text:0000000000000014 .L0 
     /tmp/ccuniUNr.s:24     .text:0000000000000014 .L0 
     /tmp/ccuniUNr.s:26     .text:0000000000000018 .L0 
     /tmp/ccuniUNr.s:29     .text:000000000000001c .L0 
     /tmp/ccuniUNr.s:32     .text:0000000000000024 .L0 
     /tmp/ccuniUNr.s:33     .text:0000000000000024 .L0 
     /tmp/ccuniUNr.s:35     .text:0000000000000028 .L0 
     /tmp/ccuniUNr.s:39     .text:000000000000002c .L0 
     /tmp/ccuniUNr.s:40     .text:000000000000002c .L0 
     /tmp/ccuniUNr.s:45     .text:000000000000003c .L0 
     /tmp/ccuniUNr.s:49     .text:0000000000000048 .L0 
     /tmp/ccuniUNr.s:52     .text:000000000000004c .L0 
     /tmp/ccuniUNr.s:53     .text:0000000000000050 .L0 
     /tmp/ccuniUNr.s:54     .text:0000000000000050 .L0 
     /tmp/ccuniUNr.s:56     .text:0000000000000054 .L0 
     /tmp/ccuniUNr.s:57     .text:0000000000000054 .L0 
     /tmp/ccuniUNr.s:59     .text:0000000000000058 .L0 
     /tmp/ccuniUNr.s:62     .text:000000000000005c .L0 
     /tmp/ccuniUNr.s:64     .text:0000000000000060 .L0 
     /tmp/ccuniUNr.s:68     .text:0000000000000064 .L0 
     /tmp/ccuniUNr.s:70     .text:0000000000000064 .L0 
     /tmp/ccuniUNr.s:71     .text:0000000000000064 .L0 
     /tmp/ccuniUNr.s:74     .text:0000000000000070 .L0 
     /tmp/ccuniUNr.s:85     .text:0000000000000070 _Z13initSemaphorev
     /tmp/ccuniUNr.s:88     .text:0000000000000070 .L0 
     /tmp/ccuniUNr.s:2193   .data.rel.local.DW.ref.__gxx_personality_v0:0000000000000000 DW.ref.__gxx_personality_v0
     /tmp/ccuniUNr.s:91     .text:0000000000000070 .L0 
     /tmp/ccuniUNr.s:92     .text:0000000000000070 .L0 
     /tmp/ccuniUNr.s:93     .text:0000000000000070 .L0 
     /tmp/ccuniUNr.s:95     .text:0000000000000078 .L0 
     /tmp/ccuniUNr.s:99     .text:0000000000000080 .L0 
     /tmp/ccuniUNr.s:100    .text:0000000000000084 .L0 
     /tmp/ccuniUNr.s:105    .text:0000000000000094 .L0 
     /tmp/ccuniUNr.s:106    .text:0000000000000094 .L0 
     /tmp/ccuniUNr.s:107    .text:0000000000000094 .L0 
     /tmp/ccuniUNr.s:108    .text:0000000000000094 .L0 
     /tmp/ccuniUNr.s:110    .text:0000000000000098 .L0 
     /tmp/ccuniUNr.s:112    .text:0000000000000098 .L0 
     /tmp/ccuniUNr.s:113    .text:0000000000000098 .L0 
     /tmp/ccuniUNr.s:125    .text:00000000000000b4 .L0 
     /tmp/ccuniUNr.s:127    .text:00000000000000bc .L0 
     /tmp/ccuniUNr.s:130    .text:00000000000000c0 .L0 
     /tmp/ccuniUNr.s:131    .text:00000000000000c4 .L0 
     /tmp/ccuniUNr.s:132    .text:00000000000000c4 .L0 
     /tmp/ccuniUNr.s:134    .text:00000000000000c8 .L0 
     /tmp/ccuniUNr.s:135    .text:00000000000000c8 .L0 
     /tmp/ccuniUNr.s:137    .text:00000000000000cc .L0 
     /tmp/ccuniUNr.s:139    .text:00000000000000d0 .L0 
     /tmp/ccuniUNr.s:141    .text:00000000000000d4 .L0 
GAS LISTING /tmp/ccuniUNr.s 			page 19


     /tmp/ccuniUNr.s:144    .text:00000000000000d8 .L0 
     /tmp/ccuniUNr.s:146    .text:00000000000000d8 .L0 
     /tmp/ccuniUNr.s:147    .text:00000000000000d8 .L0 
     /tmp/ccuniUNr.s:156    .text:00000000000000f0 .L0 
     /tmp/ccuniUNr.s:164    .text:0000000000000108 .L0 
     /tmp/ccuniUNr.s:214    .text:0000000000000108 _Z11workerBodyAv
     /tmp/ccuniUNr.s:217    .text:0000000000000108 .L0 
     /tmp/ccuniUNr.s:218    .text:0000000000000108 .L0 
     /tmp/ccuniUNr.s:219    .text:000000000000010c .L0 
     /tmp/ccuniUNr.s:224    .text:000000000000011c .L0 
     /tmp/ccuniUNr.s:225    .text:000000000000011c .L0 
     /tmp/ccuniUNr.s:226    .text:000000000000011c .L0 
     /tmp/ccuniUNr.s:227    .text:000000000000011c .L0 
     /tmp/ccuniUNr.s:229    .text:0000000000000120 .L0 
     /tmp/ccuniUNr.s:231    .text:0000000000000120 .L0 
     /tmp/ccuniUNr.s:232    .text:0000000000000120 .L0 
     /tmp/ccuniUNr.s:235    .text:0000000000000128 .L0 
     /tmp/ccuniUNr.s:236    .text:0000000000000128 .L0 
     /tmp/ccuniUNr.s:240    .text:0000000000000138 .L0 
     /tmp/ccuniUNr.s:241    .text:0000000000000138 .L0 
     /tmp/ccuniUNr.s:246    .text:0000000000000140 .L0 
     /tmp/ccuniUNr.s:247    .text:0000000000000140 .L0 
     /tmp/ccuniUNr.s:251    .text:0000000000000150 .L0 
     /tmp/ccuniUNr.s:252    .text:0000000000000150 .L0 
     /tmp/ccuniUNr.s:256    .text:000000000000015c .L0 
     /tmp/ccuniUNr.s:257    .text:000000000000015c .L0 
     /tmp/ccuniUNr.s:261    .text:000000000000016c .L0 
     /tmp/ccuniUNr.s:267    .text:0000000000000174 .L0 
     /tmp/ccuniUNr.s:268    .text:0000000000000174 .L0 
     /tmp/ccuniUNr.s:271    .text:000000000000017c .L0 
     /tmp/ccuniUNr.s:272    .text:000000000000017c .L0 
     /tmp/ccuniUNr.s:276    .text:000000000000018c .L0 
     src/workers.cpp:37     .text:000000000000018c .L0 
     /tmp/ccuniUNr.s:282    .text:0000000000000190 .L0 
     /tmp/ccuniUNr.s:284    .text:0000000000000190 .L0 
     /tmp/ccuniUNr.s:287    .text:0000000000000198 .L0 
     /tmp/ccuniUNr.s:288    .text:0000000000000198 .L0 
     src/workers.cpp:41     .text:0000000000000198 .L0 
     /tmp/ccuniUNr.s:295    .text:000000000000019c .L0 
     /tmp/ccuniUNr.s:297    .text:000000000000019c .L0 
     /tmp/ccuniUNr.s:301    .text:00000000000001ac .L0 
     /tmp/ccuniUNr.s:302    .text:00000000000001ac .L0 
     /tmp/ccuniUNr.s:306    .text:00000000000001b8 .L0 
     /tmp/ccuniUNr.s:307    .text:00000000000001b8 .L0 
     /tmp/ccuniUNr.s:311    .text:00000000000001c8 .L0 
     /tmp/ccuniUNr.s:312    .text:00000000000001c8 .L0 
     /tmp/ccuniUNr.s:318    .text:00000000000001d8 .L0 
     /tmp/ccuniUNr.s:319    .text:00000000000001d8 .L0 
     /tmp/ccuniUNr.s:324    .text:00000000000001e8 .L0 
     /tmp/ccuniUNr.s:325    .text:00000000000001e8 .L0 
     /tmp/ccuniUNr.s:329    .text:00000000000001f4 .L0 
     /tmp/ccuniUNr.s:330    .text:00000000000001f4 .L0 
     /tmp/ccuniUNr.s:336    .text:0000000000000208 .L0 
     /tmp/ccuniUNr.s:337    .text:0000000000000208 .L0 
     /tmp/ccuniUNr.s:341    .text:0000000000000218 .L0 
     /tmp/ccuniUNr.s:342    .text:0000000000000218 .L0 
     /tmp/ccuniUNr.s:346    .text:0000000000000224 .L0 
GAS LISTING /tmp/ccuniUNr.s 			page 20


     /tmp/ccuniUNr.s:347    .text:0000000000000224 .L0 
     /tmp/ccuniUNr.s:351    .text:0000000000000234 .L0 
     /tmp/ccuniUNr.s:357    .text:000000000000023c .L0 
     /tmp/ccuniUNr.s:358    .text:000000000000023c .L0 
     /tmp/ccuniUNr.s:361    .text:0000000000000244 .L0 
     /tmp/ccuniUNr.s:362    .text:0000000000000244 .L0 
     /tmp/ccuniUNr.s:366    .text:0000000000000254 .L0 
     /tmp/ccuniUNr.s:367    .text:0000000000000254 .L0 
     /tmp/ccuniUNr.s:371    .text:0000000000000264 .L0 
     /tmp/ccuniUNr.s:372    .text:0000000000000268 .L0 
     /tmp/ccuniUNr.s:374    .text:000000000000026c .L0 
     /tmp/ccuniUNr.s:375    .text:000000000000026c .L0 
     /tmp/ccuniUNr.s:377    .text:0000000000000270 .L0 
     /tmp/ccuniUNr.s:380    .text:0000000000000274 .L0 
     /tmp/ccuniUNr.s:383    .text:0000000000000278 .L0 
     /tmp/ccuniUNr.s:385    .text:000000000000027c .L0 
     /tmp/ccuniUNr.s:405    .text:000000000000027c _Z11workerBodyBv
     /tmp/ccuniUNr.s:408    .text:000000000000027c .L0 
     /tmp/ccuniUNr.s:409    .text:000000000000027c .L0 
     /tmp/ccuniUNr.s:410    .text:0000000000000280 .L0 
     /tmp/ccuniUNr.s:415    .text:0000000000000290 .L0 
     /tmp/ccuniUNr.s:416    .text:0000000000000290 .L0 
     /tmp/ccuniUNr.s:417    .text:0000000000000290 .L0 
     /tmp/ccuniUNr.s:418    .text:0000000000000290 .L0 
     /tmp/ccuniUNr.s:420    .text:0000000000000294 .L0 
     /tmp/ccuniUNr.s:422    .text:0000000000000294 .L0 
     /tmp/ccuniUNr.s:423    .text:0000000000000294 .L0 
     /tmp/ccuniUNr.s:426    .text:000000000000029c .L0 
     /tmp/ccuniUNr.s:427    .text:000000000000029c .L0 
     /tmp/ccuniUNr.s:431    .text:00000000000002ac .L0 
     /tmp/ccuniUNr.s:432    .text:00000000000002ac .L0 
     /tmp/ccuniUNr.s:437    .text:00000000000002b4 .L0 
     /tmp/ccuniUNr.s:438    .text:00000000000002b4 .L0 
     /tmp/ccuniUNr.s:442    .text:00000000000002c4 .L0 
     /tmp/ccuniUNr.s:443    .text:00000000000002c4 .L0 
     /tmp/ccuniUNr.s:447    .text:00000000000002d0 .L0 
     /tmp/ccuniUNr.s:448    .text:00000000000002d0 .L0 
     /tmp/ccuniUNr.s:452    .text:00000000000002e0 .L0 
     /tmp/ccuniUNr.s:458    .text:00000000000002e8 .L0 
     /tmp/ccuniUNr.s:459    .text:00000000000002e8 .L0 
     /tmp/ccuniUNr.s:462    .text:00000000000002f0 .L0 
     /tmp/ccuniUNr.s:463    .text:00000000000002f0 .L0 
     /tmp/ccuniUNr.s:467    .text:0000000000000300 .L0 
     src/workers.cpp:61     .text:0000000000000300 .L0 
     /tmp/ccuniUNr.s:473    .text:0000000000000304 .L0 
     /tmp/ccuniUNr.s:475    .text:0000000000000304 .L0 
     /tmp/ccuniUNr.s:478    .text:000000000000030c .L0 
     /tmp/ccuniUNr.s:479    .text:000000000000030c .L0 
     /tmp/ccuniUNr.s:485    .text:000000000000031c .L0 
     /tmp/ccuniUNr.s:486    .text:000000000000031c .L0 
     /tmp/ccuniUNr.s:491    .text:000000000000032c .L0 
     /tmp/ccuniUNr.s:492    .text:000000000000032c .L0 
     /tmp/ccuniUNr.s:496    .text:0000000000000338 .L0 
     /tmp/ccuniUNr.s:497    .text:0000000000000338 .L0 
     /tmp/ccuniUNr.s:503    .text:000000000000034c .L0 
     /tmp/ccuniUNr.s:504    .text:000000000000034c .L0 
     /tmp/ccuniUNr.s:508    .text:000000000000035c .L0 
GAS LISTING /tmp/ccuniUNr.s 			page 21


     /tmp/ccuniUNr.s:509    .text:000000000000035c .L0 
     /tmp/ccuniUNr.s:513    .text:0000000000000368 .L0 
     /tmp/ccuniUNr.s:514    .text:0000000000000368 .L0 
     /tmp/ccuniUNr.s:518    .text:0000000000000378 .L0 
     /tmp/ccuniUNr.s:524    .text:0000000000000380 .L0 
     /tmp/ccuniUNr.s:525    .text:0000000000000380 .L0 
     /tmp/ccuniUNr.s:528    .text:0000000000000388 .L0 
     /tmp/ccuniUNr.s:529    .text:0000000000000388 .L0 
     /tmp/ccuniUNr.s:533    .text:0000000000000398 .L0 
     /tmp/ccuniUNr.s:534    .text:0000000000000398 .L0 
     /tmp/ccuniUNr.s:538    .text:00000000000003a8 .L0 
     /tmp/ccuniUNr.s:539    .text:00000000000003ac .L0 
     /tmp/ccuniUNr.s:541    .text:00000000000003b0 .L0 
     /tmp/ccuniUNr.s:542    .text:00000000000003b0 .L0 
     /tmp/ccuniUNr.s:544    .text:00000000000003b4 .L0 
     /tmp/ccuniUNr.s:547    .text:00000000000003b8 .L0 
     /tmp/ccuniUNr.s:550    .text:00000000000003bc .L0 
     /tmp/ccuniUNr.s:552    .text:00000000000003c0 .L0 
     /tmp/ccuniUNr.s:572    .text:00000000000003c0 _Z11workerBodyCv
     /tmp/ccuniUNr.s:575    .text:00000000000003c0 .L0 
     /tmp/ccuniUNr.s:576    .text:00000000000003c0 .L0 
     /tmp/ccuniUNr.s:577    .text:00000000000003c4 .L0 
     /tmp/ccuniUNr.s:582    .text:00000000000003d4 .L0 
     /tmp/ccuniUNr.s:583    .text:00000000000003d4 .L0 
     /tmp/ccuniUNr.s:584    .text:00000000000003d4 .L0 
     /tmp/ccuniUNr.s:585    .text:00000000000003d4 .L0 
     /tmp/ccuniUNr.s:587    .text:00000000000003d8 .L0 
     /tmp/ccuniUNr.s:589    .text:00000000000003d8 .L0 
     /tmp/ccuniUNr.s:590    .text:00000000000003d8 .L0 
     /tmp/ccuniUNr.s:593    .text:00000000000003e0 .L0 
     /tmp/ccuniUNr.s:594    .text:00000000000003e0 .L0 
     /tmp/ccuniUNr.s:598    .text:00000000000003f0 .L0 
     /tmp/ccuniUNr.s:599    .text:00000000000003f0 .L0 
     /tmp/ccuniUNr.s:604    .text:00000000000003f8 .L0 
     /tmp/ccuniUNr.s:605    .text:00000000000003f8 .L0 
     /tmp/ccuniUNr.s:609    .text:0000000000000408 .L0 
     /tmp/ccuniUNr.s:610    .text:0000000000000408 .L0 
     /tmp/ccuniUNr.s:614    .text:0000000000000414 .L0 
     /tmp/ccuniUNr.s:615    .text:0000000000000414 .L0 
     /tmp/ccuniUNr.s:619    .text:0000000000000424 .L0 
     /tmp/ccuniUNr.s:625    .text:000000000000042c .L0 
     /tmp/ccuniUNr.s:626    .text:000000000000042c .L0 
     /tmp/ccuniUNr.s:629    .text:0000000000000434 .L0 
     /tmp/ccuniUNr.s:630    .text:0000000000000434 .L0 
     /tmp/ccuniUNr.s:634    .text:0000000000000444 .L0 
     src/workers.cpp:79     .text:0000000000000444 .L0 
     /tmp/ccuniUNr.s:640    .text:0000000000000448 .L0 
     /tmp/ccuniUNr.s:642    .text:0000000000000448 .L0 
     /tmp/ccuniUNr.s:645    .text:0000000000000450 .L0 
     /tmp/ccuniUNr.s:646    .text:0000000000000450 .L0 
     /tmp/ccuniUNr.s:652    .text:0000000000000460 .L0 
     /tmp/ccuniUNr.s:653    .text:0000000000000460 .L0 
     /tmp/ccuniUNr.s:658    .text:0000000000000470 .L0 
     /tmp/ccuniUNr.s:659    .text:0000000000000470 .L0 
     /tmp/ccuniUNr.s:663    .text:000000000000047c .L0 
     /tmp/ccuniUNr.s:664    .text:000000000000047c .L0 
     /tmp/ccuniUNr.s:670    .text:0000000000000490 .L0 
GAS LISTING /tmp/ccuniUNr.s 			page 22


     /tmp/ccuniUNr.s:671    .text:0000000000000490 .L0 
     /tmp/ccuniUNr.s:675    .text:00000000000004a0 .L0 
     /tmp/ccuniUNr.s:676    .text:00000000000004a0 .L0 
     /tmp/ccuniUNr.s:680    .text:00000000000004ac .L0 
     /tmp/ccuniUNr.s:681    .text:00000000000004ac .L0 
     /tmp/ccuniUNr.s:685    .text:00000000000004bc .L0 
     /tmp/ccuniUNr.s:691    .text:00000000000004c4 .L0 
     /tmp/ccuniUNr.s:692    .text:00000000000004c4 .L0 
     /tmp/ccuniUNr.s:695    .text:00000000000004cc .L0 
     /tmp/ccuniUNr.s:696    .text:00000000000004cc .L0 
     /tmp/ccuniUNr.s:700    .text:00000000000004dc .L0 
     /tmp/ccuniUNr.s:701    .text:00000000000004dc .L0 
     /tmp/ccuniUNr.s:705    .text:00000000000004ec .L0 
     /tmp/ccuniUNr.s:706    .text:00000000000004f0 .L0 
     /tmp/ccuniUNr.s:708    .text:00000000000004f4 .L0 
     /tmp/ccuniUNr.s:709    .text:00000000000004f4 .L0 
     /tmp/ccuniUNr.s:711    .text:00000000000004f8 .L0 
     /tmp/ccuniUNr.s:714    .text:00000000000004fc .L0 
     /tmp/ccuniUNr.s:717    .text:0000000000000500 .L0 
     /tmp/ccuniUNr.s:719    .text:0000000000000504 .L0 
     /tmp/ccuniUNr.s:728    .bss:0000000000000000 semaphore
     /tmp/ccuniUNr.s:725    .bss:0000000000000000 .LANCHOR0
     /tmp/ccuniUNr.s:736    .text:0000000000000504 .L0 
     /tmp/ccuniUNr.s:93     .text:0000000000000070 .L0 
     /tmp/ccuniUNr.s:125    .text:00000000000000b4 .L0 
     /tmp/ccuniUNr.s:79     .rodata.str1.8:0000000000000000 .LC0
     /tmp/ccuniUNr.s:147    .text:00000000000000d8 .L0 
     /tmp/ccuniUNr.s:236    .text:0000000000000128 .L0 
     /tmp/ccuniUNr.s:193    .rodata.str1.8:0000000000000008 .LC1
     /tmp/ccuniUNr.s:247    .text:0000000000000140 .L0 
     /tmp/ccuniUNr.s:196    .rodata.str1.8:0000000000000010 .LC2
     /tmp/ccuniUNr.s:257    .text:000000000000015c .L0 
     /tmp/ccuniUNr.s:199    .rodata.str1.8:0000000000000018 .LC3
     /tmp/ccuniUNr.s:272    .text:000000000000017c .L0 
     /tmp/ccuniUNr.s:202    .rodata.str1.8:0000000000000028 .LC4
     /tmp/ccuniUNr.s:297    .text:000000000000019c .L0 
     /tmp/ccuniUNr.s:307    .text:00000000000001b8 .L0 
     /tmp/ccuniUNr.s:205    .rodata.str1.8:0000000000000030 .LC5
     /tmp/ccuniUNr.s:319    .text:00000000000001d8 .L0 
     /tmp/ccuniUNr.s:330    .text:00000000000001f4 .L0 
     /tmp/ccuniUNr.s:337    .text:0000000000000208 .L0 
     /tmp/ccuniUNr.s:347    .text:0000000000000224 .L0 
     /tmp/ccuniUNr.s:208    .rodata.str1.8:0000000000000040 .LC6
     /tmp/ccuniUNr.s:362    .text:0000000000000244 .L0 
     /tmp/ccuniUNr.s:367    .text:0000000000000254 .L0 
     /tmp/ccuniUNr.s:427    .text:000000000000029c .L0 
     /tmp/ccuniUNr.s:390    .rodata.str1.8:0000000000000050 .LC7
     /tmp/ccuniUNr.s:438    .text:00000000000002b4 .L0 
     /tmp/ccuniUNr.s:448    .text:00000000000002d0 .L0 
     /tmp/ccuniUNr.s:393    .rodata.str1.8:0000000000000058 .LC8
     /tmp/ccuniUNr.s:463    .text:00000000000002f0 .L0 
     /tmp/ccuniUNr.s:396    .rodata.str1.8:0000000000000068 .LC9
     /tmp/ccuniUNr.s:486    .text:000000000000031c .L0 
     /tmp/ccuniUNr.s:497    .text:0000000000000338 .L0 
     /tmp/ccuniUNr.s:504    .text:000000000000034c .L0 
     /tmp/ccuniUNr.s:514    .text:0000000000000368 .L0 
     /tmp/ccuniUNr.s:399    .rodata.str1.8:0000000000000078 .LC10
GAS LISTING /tmp/ccuniUNr.s 			page 23


     /tmp/ccuniUNr.s:529    .text:0000000000000388 .L0 
     /tmp/ccuniUNr.s:534    .text:0000000000000398 .L0 
     /tmp/ccuniUNr.s:594    .text:00000000000003e0 .L0 
     /tmp/ccuniUNr.s:557    .rodata.str1.8:0000000000000088 .LC11
     /tmp/ccuniUNr.s:605    .text:00000000000003f8 .L0 
     /tmp/ccuniUNr.s:615    .text:0000000000000414 .L0 
     /tmp/ccuniUNr.s:560    .rodata.str1.8:0000000000000090 .LC12
     /tmp/ccuniUNr.s:630    .text:0000000000000434 .L0 
     /tmp/ccuniUNr.s:563    .rodata.str1.8:00000000000000a0 .LC13
     /tmp/ccuniUNr.s:653    .text:0000000000000460 .L0 
     /tmp/ccuniUNr.s:664    .text:000000000000047c .L0 
     /tmp/ccuniUNr.s:671    .text:0000000000000490 .L0 
     /tmp/ccuniUNr.s:681    .text:00000000000004ac .L0 
     /tmp/ccuniUNr.s:566    .rodata.str1.8:00000000000000b0 .LC14
     /tmp/ccuniUNr.s:696    .text:00000000000004cc .L0 
     /tmp/ccuniUNr.s:701    .text:00000000000004dc .L0 
     /tmp/ccuniUNr.s:50     .text:000000000000004c .L1
     /tmp/ccuniUNr.s:67     .text:0000000000000064 .L6
     /tmp/ccuniUNr.s:37     .text:000000000000002c .L3
     /tmp/ccuniUNr.s:97     .text:0000000000000080 .L15
     /tmp/ccuniUNr.s:143    .text:00000000000000d8 .L16
     /tmp/ccuniUNr.s:128    .text:00000000000000c0 .L7
     /tmp/ccuniUNr.s:265    .text:0000000000000174 .L19
     /tmp/ccuniUNr.s:244    .text:0000000000000140 .L23
     /tmp/ccuniUNr.s:355    .text:000000000000023c .L21
     /tmp/ccuniUNr.s:334    .text:0000000000000208 .L24
     /tmp/ccuniUNr.s:456    .text:00000000000002e8 .L27
     /tmp/ccuniUNr.s:435    .text:00000000000002b4 .L31
     /tmp/ccuniUNr.s:522    .text:0000000000000380 .L29
     /tmp/ccuniUNr.s:501    .text:000000000000034c .L32
     /tmp/ccuniUNr.s:623    .text:000000000000042c .L35
     /tmp/ccuniUNr.s:602    .text:00000000000003f8 .L39
     /tmp/ccuniUNr.s:689    .text:00000000000004c4 .L37
     /tmp/ccuniUNr.s:668    .text:0000000000000490 .L40
     /tmp/ccuniUNr.s:114    .text:000000000000009c .LEHB0
     /tmp/ccuniUNr.s:86     .text:0000000000000070 .LFB20
     /tmp/ccuniUNr.s:117    .text:00000000000000a4 .LEHE0
     /tmp/ccuniUNr.s:120    .text:00000000000000ac .LEHB1
     /tmp/ccuniUNr.s:123    .text:00000000000000b4 .LEHE1
     /tmp/ccuniUNr.s:153    .text:00000000000000ec .L10
     /tmp/ccuniUNr.s:148    .text:00000000000000e0 .LEHB2
     /tmp/ccuniUNr.s:151    .text:00000000000000e8 .LEHE2
     /tmp/ccuniUNr.s:160    .text:0000000000000100 .LEHB3
     /tmp/ccuniUNr.s:163    .text:0000000000000108 .LEHE3
     /tmp/ccuniUNr.s:1597   .debug_abbrev:0000000000000000 .Ldebug_abbrev0
     /tmp/ccuniUNr.s:2169   .debug_str:0000000000000276 .LASF43
     /tmp/ccuniUNr.s:2107   .debug_str:000000000000008a .LASF44
     /tmp/ccuniUNr.s:2141   .debug_str:000000000000016d .LASF45
     /tmp/ccuniUNr.s:5      .text:0000000000000000 .Ltext0
     /tmp/ccuniUNr.s:731    .text:0000000000000504 .Letext0
     /tmp/ccuniUNr.s:2083   .debug_line:0000000000000000 .Ldebug_line0
     /tmp/ccuniUNr.s:2147   .debug_str:00000000000001b8 .LASF0
     /tmp/ccuniUNr.s:2149   .debug_str:00000000000001c5 .LASF1
     /tmp/ccuniUNr.s:2139   .debug_str:000000000000015f .LASF2
     /tmp/ccuniUNr.s:2117   .debug_str:00000000000000e6 .LASF3
     /tmp/ccuniUNr.s:2133   .debug_str:0000000000000146 .LASF4
     /tmp/ccuniUNr.s:2163   .debug_str:0000000000000243 .LASF5
GAS LISTING /tmp/ccuniUNr.s 			page 24


     /tmp/ccuniUNr.s:2099   .debug_str:000000000000005d .LASF6
     /tmp/ccuniUNr.s:2151   .debug_str:00000000000001d8 .LASF7
     /tmp/ccuniUNr.s:2145   .debug_str:00000000000001a5 .LASF8
     /tmp/ccuniUNr.s:2177   .debug_str:0000000000000369 .LASF9
     /tmp/ccuniUNr.s:2129   .debug_str:0000000000000129 .LASF10
     /tmp/ccuniUNr.s:2155   .debug_str:00000000000001f2 .LASF11
     /tmp/ccuniUNr.s:2171   .debug_str:000000000000033a .LASF12
     /tmp/ccuniUNr.s:2101   .debug_str:0000000000000064 .LASF13
     /tmp/ccuniUNr.s:2093   .debug_str:0000000000000029 .LASF14
     /tmp/ccuniUNr.s:2105   .debug_str:000000000000007e .LASF15
     /tmp/ccuniUNr.s:2161   .debug_str:000000000000022d .LASF16
     /tmp/ccuniUNr.s:2113   .debug_str:00000000000000c2 .LASF17
     /tmp/ccuniUNr.s:2121   .debug_str:00000000000000f1 .LASF18
     /tmp/ccuniUNr.s:2085   .debug_str:0000000000000000 .LASF46
     /tmp/ccuniUNr.s:2157   .debug_str:0000000000000201 .LASF19
     /tmp/ccuniUNr.s:2119   .debug_str:00000000000000ec .LASF21
     /tmp/ccuniUNr.s:2159   .debug_str:0000000000000216 .LASF20
     /tmp/ccuniUNr.s:2153   .debug_str:00000000000001eb .LASF22
     /tmp/ccuniUNr.s:2103   .debug_str:0000000000000074 .LASF23
     /tmp/ccuniUNr.s:2091   .debug_str:000000000000001d .LASF25
     /tmp/ccuniUNr.s:2127   .debug_str:0000000000000118 .LASF27
     /tmp/ccuniUNr.s:573    .text:00000000000003c0 .LFB23
     /tmp/ccuniUNr.s:720    .text:0000000000000504 .LFE23
     /tmp/ccuniUNr.s:1947   .debug_loc:0000000000000000 .LLST6
     /tmp/ccuniUNr.s:2087   .debug_str:000000000000000a .LASF24
     /tmp/ccuniUNr.s:1967   .debug_loc:000000000000005d .LLST7
     /tmp/ccuniUNr.s:591    .text:00000000000003e0 .LVL66
     /tmp/ccuniUNr.s:596    .text:00000000000003f0 .LVL67
     /tmp/ccuniUNr.s:607    .text:0000000000000408 .LVL69
     /tmp/ccuniUNr.s:612    .text:0000000000000414 .LVL70
     /tmp/ccuniUNr.s:617    .text:0000000000000424 .LVL71
     /tmp/ccuniUNr.s:632    .text:0000000000000444 .LVL74
     /tmp/ccuniUNr.s:643    .text:0000000000000450 .LVL75
     /tmp/ccuniUNr.s:648    .text:000000000000045c .LVL76
     /tmp/ccuniUNr.s:656    .text:0000000000000470 .LVL79
     /tmp/ccuniUNr.s:661    .text:000000000000047c .LVL80
     /tmp/ccuniUNr.s:666    .text:000000000000048c .LVL81
     /tmp/ccuniUNr.s:673    .text:00000000000004a0 .LVL82
     /tmp/ccuniUNr.s:678    .text:00000000000004ac .LVL83
     /tmp/ccuniUNr.s:683    .text:00000000000004bc .LVL84
     /tmp/ccuniUNr.s:698    .text:00000000000004dc .LVL87
     /tmp/ccuniUNr.s:703    .text:00000000000004ec .LVL88
     /tmp/ccuniUNr.s:2089   .debug_str:0000000000000011 .LASF26
     /tmp/ccuniUNr.s:2097   .debug_str:000000000000004c .LASF28
     /tmp/ccuniUNr.s:406    .text:000000000000027c .LFB22
     /tmp/ccuniUNr.s:553    .text:00000000000003c0 .LFE22
     /tmp/ccuniUNr.s:1978   .debug_loc:0000000000000093 .LLST4
     /tmp/ccuniUNr.s:1998   .debug_loc:00000000000000f0 .LLST5
     /tmp/ccuniUNr.s:424    .text:000000000000029c .LVL41
     /tmp/ccuniUNr.s:429    .text:00000000000002ac .LVL42
     /tmp/ccuniUNr.s:440    .text:00000000000002c4 .LVL44
     /tmp/ccuniUNr.s:445    .text:00000000000002d0 .LVL45
     /tmp/ccuniUNr.s:450    .text:00000000000002e0 .LVL46
     /tmp/ccuniUNr.s:465    .text:0000000000000300 .LVL49
     /tmp/ccuniUNr.s:476    .text:000000000000030c .LVL50
     /tmp/ccuniUNr.s:481    .text:0000000000000318 .LVL51
     /tmp/ccuniUNr.s:489    .text:000000000000032c .LVL54
GAS LISTING /tmp/ccuniUNr.s 			page 25


     /tmp/ccuniUNr.s:494    .text:0000000000000338 .LVL55
     /tmp/ccuniUNr.s:499    .text:0000000000000348 .LVL56
     /tmp/ccuniUNr.s:506    .text:000000000000035c .LVL57
     /tmp/ccuniUNr.s:511    .text:0000000000000368 .LVL58
     /tmp/ccuniUNr.s:516    .text:0000000000000378 .LVL59
     /tmp/ccuniUNr.s:531    .text:0000000000000398 .LVL62
     /tmp/ccuniUNr.s:536    .text:00000000000003a8 .LVL63
     /tmp/ccuniUNr.s:2143   .debug_str:0000000000000199 .LASF29
     /tmp/ccuniUNr.s:2167   .debug_str:0000000000000265 .LASF30
     /tmp/ccuniUNr.s:215    .text:0000000000000108 .LFB21
     /tmp/ccuniUNr.s:386    .text:000000000000027c .LFE21
     /tmp/ccuniUNr.s:2009   .debug_loc:0000000000000126 .LLST1
     /tmp/ccuniUNr.s:2029   .debug_loc:0000000000000183 .LLST2
     /tmp/ccuniUNr.s:2037   .debug_loc:00000000000001a7 .LLST3
     /tmp/ccuniUNr.s:233    .text:0000000000000128 .LVL12
     /tmp/ccuniUNr.s:238    .text:0000000000000138 .LVL13
     /tmp/ccuniUNr.s:249    .text:0000000000000150 .LVL15
     /tmp/ccuniUNr.s:254    .text:000000000000015c .LVL16
     /tmp/ccuniUNr.s:259    .text:000000000000016c .LVL17
     /tmp/ccuniUNr.s:274    .text:000000000000018c .LVL20
     /tmp/ccuniUNr.s:285    .text:0000000000000198 .LVL21
     /tmp/ccuniUNr.s:299    .text:00000000000001ac .LVL23
     /tmp/ccuniUNr.s:304    .text:00000000000001b8 .LVL24
     /tmp/ccuniUNr.s:309    .text:00000000000001c8 .LVL25
     /tmp/ccuniUNr.s:314    .text:00000000000001d4 .LVL26
     /tmp/ccuniUNr.s:322    .text:00000000000001e8 .LVL29
     /tmp/ccuniUNr.s:327    .text:00000000000001f4 .LVL30
     /tmp/ccuniUNr.s:332    .text:0000000000000204 .LVL31
     /tmp/ccuniUNr.s:339    .text:0000000000000218 .LVL32
     /tmp/ccuniUNr.s:344    .text:0000000000000224 .LVL33
     /tmp/ccuniUNr.s:349    .text:0000000000000234 .LVL34
     /tmp/ccuniUNr.s:364    .text:0000000000000254 .LVL37
     /tmp/ccuniUNr.s:369    .text:0000000000000264 .LVL38
     /tmp/ccuniUNr.s:2115   .debug_str:00000000000000d8 .LASF31
     /tmp/ccuniUNr.s:2095   .debug_str:0000000000000039 .LASF32
     /tmp/ccuniUNr.s:165    .text:0000000000000108 .LFE20
     /tmp/ccuniUNr.s:116    .text:00000000000000a4 .LVL7
     /tmp/ccuniUNr.s:122    .text:00000000000000b4 .LVL8
     /tmp/ccuniUNr.s:150    .text:00000000000000e8 .LVL9
     /tmp/ccuniUNr.s:158    .text:00000000000000fc .LVL10
     /tmp/ccuniUNr.s:162    .text:0000000000000108 .LVL11
     /tmp/ccuniUNr.s:2179   .debug_str:0000000000000379 .LASF47
     /tmp/ccuniUNr.s:2175   .debug_str:000000000000035b .LASF48
     /tmp/ccuniUNr.s:10     .text:0000000000000000 .LFB19
     /tmp/ccuniUNr.s:75     .text:0000000000000070 .LFE19
     /tmp/ccuniUNr.s:2048   .debug_loc:00000000000001dd .LLST0
     /tmp/ccuniUNr.s:42     .text:0000000000000038 .LVL2
     /tmp/ccuniUNr.s:47     .text:0000000000000048 .LVL3
     /tmp/ccuniUNr.s:72     .text:000000000000006c .LVL6
     /tmp/ccuniUNr.s:2183   .debug_str:0000000000000390 .LASF33
     /tmp/ccuniUNr.s:2135   .debug_str:000000000000014d .LASF34
     /tmp/ccuniUNr.s:2173   .debug_str:0000000000000349 .LASF35
     /tmp/ccuniUNr.s:2125   .debug_str:000000000000010b .LASF36
     /tmp/ccuniUNr.s:2123   .debug_str:00000000000000f6 .LASF37
     /tmp/ccuniUNr.s:2109   .debug_str:000000000000009a .LASF38
     /tmp/ccuniUNr.s:2137   .debug_str:0000000000000159 .LASF39
     /tmp/ccuniUNr.s:2181   .debug_str:0000000000000383 .LASF40
GAS LISTING /tmp/ccuniUNr.s 			page 26


     /tmp/ccuniUNr.s:2185   .debug_str:00000000000003a3 .LASF41
     /tmp/ccuniUNr.s:2165   .debug_str:0000000000000255 .LASF42
     /tmp/ccuniUNr.s:2131   .debug_str:0000000000000137 .LASF49
     /tmp/ccuniUNr.s:2111   .debug_str:00000000000000aa .LASF50
     /tmp/ccuniUNr.s:601    .text:00000000000003f8 .LVL68
     /tmp/ccuniUNr.s:620    .text:0000000000000428 .LVL72
     /tmp/ccuniUNr.s:622    .text:000000000000042c .LVL73
     /tmp/ccuniUNr.s:686    .text:00000000000004c0 .LVL85
     /tmp/ccuniUNr.s:688    .text:00000000000004c4 .LVL86
     /tmp/ccuniUNr.s:712    .text:00000000000004f8 .LVL89
     /tmp/ccuniUNr.s:650    .text:0000000000000460 .LVL77
     /tmp/ccuniUNr.s:654    .text:0000000000000468 .LVL78
     /tmp/ccuniUNr.s:715    .text:00000000000004fc .LVL90
     /tmp/ccuniUNr.s:434    .text:00000000000002b4 .LVL43
     /tmp/ccuniUNr.s:453    .text:00000000000002e4 .LVL47
     /tmp/ccuniUNr.s:455    .text:00000000000002e8 .LVL48
     /tmp/ccuniUNr.s:519    .text:000000000000037c .LVL60
     /tmp/ccuniUNr.s:521    .text:0000000000000380 .LVL61
     /tmp/ccuniUNr.s:545    .text:00000000000003b4 .LVL64
     /tmp/ccuniUNr.s:483    .text:000000000000031c .LVL52
     /tmp/ccuniUNr.s:487    .text:0000000000000324 .LVL53
     /tmp/ccuniUNr.s:548    .text:00000000000003b8 .LVL65
     /tmp/ccuniUNr.s:243    .text:0000000000000140 .LVL14
     /tmp/ccuniUNr.s:262    .text:0000000000000170 .LVL18
     /tmp/ccuniUNr.s:264    .text:0000000000000174 .LVL19
     /tmp/ccuniUNr.s:352    .text:0000000000000238 .LVL35
     /tmp/ccuniUNr.s:354    .text:000000000000023c .LVL36
     /tmp/ccuniUNr.s:378    .text:0000000000000270 .LVL39
     /tmp/ccuniUNr.s:293    .text:000000000000019c .LVL22
     /tmp/ccuniUNr.s:316    .text:00000000000001d8 .LVL27
     /tmp/ccuniUNr.s:320    .text:00000000000001e0 .LVL28
     /tmp/ccuniUNr.s:381    .text:0000000000000274 .LVL40
     /tmp/ccuniUNr.s:14     .text:0000000000000000 .LVL0
     /tmp/ccuniUNr.s:36     .text:000000000000002c .LVL1
     /tmp/ccuniUNr.s:60     .text:0000000000000058 .LVL4
     /tmp/ccuniUNr.s:66     .text:0000000000000064 .LVL5
     /tmp/ccuniUNr.s:737    .debug_info:0000000000000000 .Ldebug_info0
     /tmp/ccuniUNr.s:168    .gcc_except_table:0000000000000000 .LLSDA20

UNDEFINED SYMBOLS
_Z15thread_dispatchv
_Znwm
_ZN9SemaphoreC1Ej
_Z11printStringPKc
_ZdlPv
_Unwind_Resume
__gxx_personality_v0
_ZN9Semaphore4waitEv
_Z12printIntegerm
_ZN9Semaphore6signalEv
