GAS LISTING /tmp/ccthqdbG.s 			page 1


   1              		.file	"workers.cpp"
   2              		.option pic
   3              		.option norelax
   4              		.text
   5              	.Ltext0:
   6              		.align	2
   7              		.globl	_Z9fibonaccim
   9              	_Z9fibonaccim:
  10              	.LFB23:
  11              		.file 1 "src/workers.cpp"
   1:src/workers.cpp **** //
   2:src/workers.cpp **** // Created by os on 9/24/25.
   3:src/workers.cpp **** //
   4:src/workers.cpp **** #include "../h/workers.hpp"
   5:src/workers.cpp **** #include "../lib/hw.h"
   6:src/workers.cpp **** #include "../h/TCB.hpp"
   7:src/workers.cpp **** #include "../h/print.hpp"
   8:src/workers.cpp **** uint64 fibonacci(uint64 n) {
  12              		.loc 1 8 28
  13              		.cfi_startproc
  14              	.LVL0:
  15 0000 130101FE 		addi	sp,sp,-32
  16              		.cfi_def_cfa_offset 32
  17 0004 233C1100 		sd	ra,24(sp)
  18 0008 23388100 		sd	s0,16(sp)
  19 000c 23349100 		sd	s1,8(sp)
  20 0010 23302101 		sd	s2,0(sp)
  21              		.cfi_offset 1, -8
  22              		.cfi_offset 8, -16
  23              		.cfi_offset 9, -24
  24              		.cfi_offset 18, -32
  25 0014 13040102 		addi	s0,sp,32
  26              		.cfi_def_cfa 8, 0
  27 0018 93040500 		mv	s1,a0
   9:src/workers.cpp ****     if (n == 0 || n == 1) { return n; }
  28              		.loc 1 9 5
  29 001c 93071000 		li	a5,1
  30 0020 63F6A702 		bleu	a0,a5,.L1
  10:src/workers.cpp ****     if (n % 4 == 0) TCB::dispatch();
  31              		.loc 1 10 5
  32              		.loc 1 10 11 is_stmt 0
  33 0024 93773500 		andi	a5,a0,3
  34              		.loc 1 10 5
  35 0028 638E0702 		beqz	a5,.L6
  36              	.LVL1:
  37              	.L3:
  11:src/workers.cpp ****     return fibonacci(n - 1) + fibonacci(n - 2);
  38              		.loc 1 11 5 is_stmt 1
  39              		.loc 1 11 21 is_stmt 0
  40 002c 1385F4FF 		addi	a0,s1,-1
  41 0030 97000000 		call	_Z9fibonaccim
  41      E7800000 
  42              	.LVL2:
  43 0038 13090500 		mv	s2,a0
  44              		.loc 1 11 40
  45 003c 1385E4FF 		addi	a0,s1,-2
  46 0040 97000000 		call	_Z9fibonaccim
GAS LISTING /tmp/ccthqdbG.s 			page 2


  46      E7800000 
  47              	.LVL3:
  48              		.loc 1 11 46
  49 0048 3305A900 		add	a0,s2,a0
  50              	.L1:
  12:src/workers.cpp **** }
  51              		.loc 1 12 1
  52 004c 83308101 		ld	ra,24(sp)
  53              		.cfi_remember_state
  54              		.cfi_restore 1
  55 0050 03340101 		ld	s0,16(sp)
  56              		.cfi_restore 8
  57              		.cfi_def_cfa 2, 32
  58 0054 83348100 		ld	s1,8(sp)
  59              		.cfi_restore 9
  60              	.LVL4:
  61 0058 03390100 		ld	s2,0(sp)
  62              		.cfi_restore 18
  63 005c 13010102 		addi	sp,sp,32
  64              		.cfi_def_cfa_offset 0
  65 0060 67800000 		jr	ra
  66              	.LVL5:
  67              	.L6:
  68              		.cfi_restore_state
  10:src/workers.cpp ****     if (n % 4 == 0) TCB::dispatch();
  69              		.loc 1 10 21 is_stmt 1 discriminator 1
  10:src/workers.cpp ****     if (n % 4 == 0) TCB::dispatch();
  70              		.loc 1 10 34 is_stmt 0 discriminator 1
  71 0064 97000000 		call	_ZN3TCB8dispatchEv@plt
  71      E7800000 
  72              	.LVL6:
  73 006c 6FF01FFC 		j	.L3
  74              		.cfi_endproc
  75              	.LFE23:
  77              		.section	.rodata.str1.8,"aMS",@progbits,1
  78              		.align	3
  79              	.LC0:
  80 0000 413A2069 		.string	"A: i="
  80      3D00
  81 0006 0000     		.align	3
  82              	.LC1:
  83 0008 0A00     		.string	"\n"
  84 000a 00000000 		.align	3
  84      0000
  85              	.LC2:
  86 0010 413A2079 		.string	"A: yield\n"
  86      69656C64 
  86      0A00
  87 001a 00000000 		.align	3
  87      0000
  88              	.LC3:
  89 0020 413A2074 		.string	"A: t1="
  89      313D00
  90 0027 00       		.align	3
  91              	.LC4:
  92 0028 413A2066 		.string	"A: fibonaci="
  92      69626F6E 
GAS LISTING /tmp/ccthqdbG.s 			page 3


  92      6163693D 
  92      00
  93              		.text
  94              		.align	2
  95              		.globl	_Z11workerBodyAv
  97              	_Z11workerBodyAv:
  98              	.LFB24:
  13:src/workers.cpp **** 
  14:src/workers.cpp **** void workerBodyA() {
  99              		.loc 1 14 20 is_stmt 1
 100              		.cfi_startproc
 101 0070 130101FE 		addi	sp,sp,-32
 102              		.cfi_def_cfa_offset 32
 103 0074 233C1100 		sd	ra,24(sp)
 104 0078 23388100 		sd	s0,16(sp)
 105 007c 23349100 		sd	s1,8(sp)
 106 0080 23302101 		sd	s2,0(sp)
 107              		.cfi_offset 1, -8
 108              		.cfi_offset 8, -16
 109              		.cfi_offset 9, -24
 110              		.cfi_offset 18, -32
 111 0084 13040102 		addi	s0,sp,32
 112              		.cfi_def_cfa 8, 0
  15:src/workers.cpp ****     uint8 i = 0;
 113              		.loc 1 15 5
 114              	.LVL7:
 115              		.loc 1 15 11 is_stmt 0
 116 0088 93040000 		li	s1,0
 117 008c 6F008003 		j	.L9
 118              	.LVL8:
 119              	.L13:
  16:src/workers.cpp ****     for (; i < 3; i++) { printString("A: i="); printInteger(i); printString("\n"); }
 120              		.loc 1 16 26 is_stmt 1 discriminator 1
 121              		.loc 1 16 37 is_stmt 0 discriminator 1
 122 0090 17050000 		lla	a0,.LC0
 122      13050500 
 123 0098 97000000 		call	_Z11printStringPKc@plt
 123      E7800000 
 124              	.LVL9:
 125              		.loc 1 16 48 is_stmt 1 discriminator 1
 126              		.loc 1 16 60 is_stmt 0 discriminator 1
 127 00a0 13850400 		mv	a0,s1
 128 00a4 97000000 		call	_Z12printIntegerm@plt
 128      E7800000 
 129              	.LVL10:
 130              		.loc 1 16 65 is_stmt 1 discriminator 1
 131              		.loc 1 16 76 is_stmt 0 discriminator 1
 132 00ac 17050000 		lla	a0,.LC1
 132      13050500 
 133 00b4 97000000 		call	_Z11printStringPKc@plt
 133      E7800000 
 134              	.LVL11:
 135              		.loc 1 16 5 is_stmt 1 discriminator 1
 136 00bc 9B841400 		addiw	s1,s1,1
 137              	.LVL12:
 138 00c0 93F4F40F 		andi	s1,s1,0xff
 139              	.LVL13:
GAS LISTING /tmp/ccthqdbG.s 			page 4


 140              	.L9:
 141              		.loc 1 16 5 discriminator 2
 142              		.loc 1 16 14 discriminator 2
 143 00c4 93072000 		li	a5,2
 144 00c8 E3F497FC 		bleu	s1,a5,.L13
  17:src/workers.cpp **** 
  18:src/workers.cpp ****     printString("A: yield\n");
 145              		.loc 1 18 5
 146              		.loc 1 18 16 is_stmt 0
 147 00cc 17050000 		lla	a0,.LC2
 147      13050500 
 148 00d4 97000000 		call	_Z11printStringPKc@plt
 148      E7800000 
 149              	.LVL14:
  19:src/workers.cpp ****     __asm__ ("li t1, 7");
 150              		.loc 1 19 5 is_stmt 1
 151              		.loc 1 19 25 is_stmt 0
 152              	#APP
 153              	# 19 "src/workers.cpp" 1
  20              	    TCB::dispatch();
 154              		li t1, 7
 155              	# 0 "" 2
 156              		.loc 1 20 5 is_stmt 1
 157              		.loc 1 20 18 is_stmt 0
 158              	#NO_APP
 159 00e0 97000000 		call	_ZN3TCB8dispatchEv@plt
 159      E7800000 
 160              	.LVL15:
  21:src/workers.cpp **** 
  22:src/workers.cpp ****     uint64 t1 = 0;
 161              		.loc 1 22 5 is_stmt 1
  23:src/workers.cpp ****     __asm__ ("mv %[t1], t1" : [t1] "=r"(t1));
 162              		.loc 1 23 5
 163              		.loc 1 23 45 is_stmt 0
 164              	#APP
 165              	# 23 "src/workers.cpp" 1
  24              	    printString("A: t1="); printInteger(t1); printString("\n");
 166              		mv s2, t1
 167              	# 0 "" 2
 168              	.LVL16:
 169              		.loc 1 24 5 is_stmt 1
 170              		.loc 1 24 16 is_stmt 0
 171              	#NO_APP
 172 00ec 17050000 		lla	a0,.LC3
 172      13050500 
 173 00f4 97000000 		call	_Z11printStringPKc@plt
 173      E7800000 
 174              	.LVL17:
 175              		.loc 1 24 28 is_stmt 1
 176              		.loc 1 24 40 is_stmt 0
 177 00fc 13050900 		mv	a0,s2
 178 0100 97000000 		call	_Z12printIntegerm@plt
 178      E7800000 
 179              	.LVL18:
 180              		.loc 1 24 46 is_stmt 1
 181              		.loc 1 24 57 is_stmt 0
 182 0108 17050000 		lla	a0,.LC1
GAS LISTING /tmp/ccthqdbG.s 			page 5


 182      13050500 
 183 0110 97000000 		call	_Z11printStringPKc@plt
 183      E7800000 
 184              	.LVL19:
  25:src/workers.cpp **** 
  26:src/workers.cpp ****     uint64 result = fibonacci(20);
 185              		.loc 1 26 5 is_stmt 1
 186              		.loc 1 26 30 is_stmt 0
 187 0118 13054001 		li	a0,20
 188 011c 97000000 		call	_Z9fibonaccim
 188      E7800000 
 189              	.LVL20:
 190 0124 13090500 		mv	s2,a0
 191              	.LVL21:
  27:src/workers.cpp ****     printString("A: fibonaci="); printInteger(result); printString("\n");
 192              		.loc 1 27 5 is_stmt 1
 193              		.loc 1 27 16 is_stmt 0
 194 0128 17050000 		lla	a0,.LC4
 194      13050500 
 195              	.LVL22:
 196 0130 97000000 		call	_Z11printStringPKc@plt
 196      E7800000 
 197              	.LVL23:
 198              		.loc 1 27 34 is_stmt 1
 199              		.loc 1 27 46 is_stmt 0
 200 0138 13050900 		mv	a0,s2
 201 013c 97000000 		call	_Z12printIntegerm@plt
 201      E7800000 
 202              	.LVL24:
 203              		.loc 1 27 56 is_stmt 1
 204              		.loc 1 27 67 is_stmt 0
 205 0144 17050000 		lla	a0,.LC1
 205      13050500 
 206 014c 97000000 		call	_Z11printStringPKc@plt
 206      E7800000 
 207              	.LVL25:
 208 0154 6F008003 		j	.L11
 209              	.L14:
  28:src/workers.cpp **** 
  29:src/workers.cpp ****     for (; i < 6; i++) { printString("A: i="); printInteger(i); printString("\n"); }
 210              		.loc 1 29 26 is_stmt 1 discriminator 1
 211              		.loc 1 29 37 is_stmt 0 discriminator 1
 212 0158 17050000 		lla	a0,.LC0
 212      13050500 
 213 0160 97000000 		call	_Z11printStringPKc@plt
 213      E7800000 
 214              	.LVL26:
 215              		.loc 1 29 48 is_stmt 1 discriminator 1
 216              		.loc 1 29 60 is_stmt 0 discriminator 1
 217 0168 13850400 		mv	a0,s1
 218 016c 97000000 		call	_Z12printIntegerm@plt
 218      E7800000 
 219              	.LVL27:
 220              		.loc 1 29 65 is_stmt 1 discriminator 1
 221              		.loc 1 29 76 is_stmt 0 discriminator 1
 222 0174 17050000 		lla	a0,.LC1
 222      13050500 
GAS LISTING /tmp/ccthqdbG.s 			page 6


 223 017c 97000000 		call	_Z11printStringPKc@plt
 223      E7800000 
 224              	.LVL28:
 225              		.loc 1 29 5 is_stmt 1 discriminator 1
 226 0184 9B841400 		addiw	s1,s1,1
 227              	.LVL29:
 228 0188 93F4F40F 		andi	s1,s1,0xff
 229              	.LVL30:
 230              	.L11:
 231              		.loc 1 29 5 discriminator 2
 232              		.loc 1 29 14 discriminator 2
 233 018c 93075000 		li	a5,5
 234 0190 E3F497FC 		bleu	s1,a5,.L14
  30:src/workers.cpp **** 
  31:src/workers.cpp ****     TCB::dispatch();
 235              		.loc 1 31 5
 236              		.loc 1 31 18 is_stmt 0
 237 0194 97000000 		call	_ZN3TCB8dispatchEv@plt
 237      E7800000 
 238              	.LVL31:
  32:src/workers.cpp **** }
 239              		.loc 1 32 1
 240 019c 83308101 		ld	ra,24(sp)
 241              		.cfi_restore 1
 242 01a0 03340101 		ld	s0,16(sp)
 243              		.cfi_restore 8
 244              		.cfi_def_cfa 2, 32
 245 01a4 83348100 		ld	s1,8(sp)
 246              		.cfi_restore 9
 247              	.LVL32:
 248 01a8 03390100 		ld	s2,0(sp)
 249              		.cfi_restore 18
 250              	.LVL33:
 251 01ac 13010102 		addi	sp,sp,32
 252              		.cfi_def_cfa_offset 0
 253 01b0 67800000 		jr	ra
 254              		.cfi_endproc
 255              	.LFE24:
 257              		.section	.rodata.str1.8
 258 0035 000000   		.align	3
 259              	.LC5:
 260 0038 423A2069 		.string	"B: i="
 260      3D00
 261 003e 0000     		.align	3
 262              	.LC6:
 263 0040 423A2079 		.string	"B: yield\n"
 263      69656C64 
 263      0A00
 264 004a 00000000 		.align	3
 264      0000
 265              	.LC7:
 266 0050 423A2066 		.string	"B: fibonaci="
 266      69626F6E 
 266      6163693D 
 266      00
 267              		.text
 268              		.align	2
GAS LISTING /tmp/ccthqdbG.s 			page 7


 269              		.globl	_Z11workerBodyBv
 271              	_Z11workerBodyBv:
 272              	.LFB25:
  33:src/workers.cpp **** 
  34:src/workers.cpp **** void workerBodyB() {
 273              		.loc 1 34 20 is_stmt 1
 274              		.cfi_startproc
 275 01b4 130101FE 		addi	sp,sp,-32
 276              		.cfi_def_cfa_offset 32
 277 01b8 233C1100 		sd	ra,24(sp)
 278 01bc 23388100 		sd	s0,16(sp)
 279 01c0 23349100 		sd	s1,8(sp)
 280 01c4 23302101 		sd	s2,0(sp)
 281              		.cfi_offset 1, -8
 282              		.cfi_offset 8, -16
 283              		.cfi_offset 9, -24
 284              		.cfi_offset 18, -32
 285 01c8 13040102 		addi	s0,sp,32
 286              		.cfi_def_cfa 8, 0
  35:src/workers.cpp ****     uint8 i = 10;
 287              		.loc 1 35 5
 288              	.LVL34:
 289              		.loc 1 35 11 is_stmt 0
 290 01cc 9304A000 		li	s1,10
 291 01d0 6F008003 		j	.L17
 292              	.LVL35:
 293              	.L21:
  36:src/workers.cpp ****     for (; i < 13; i++) { printString("B: i="); printInteger(i); printString("\n"); }
 294              		.loc 1 36 27 is_stmt 1 discriminator 1
 295              		.loc 1 36 38 is_stmt 0 discriminator 1
 296 01d4 17050000 		lla	a0,.LC5
 296      13050500 
 297 01dc 97000000 		call	_Z11printStringPKc@plt
 297      E7800000 
 298              	.LVL36:
 299              		.loc 1 36 49 is_stmt 1 discriminator 1
 300              		.loc 1 36 61 is_stmt 0 discriminator 1
 301 01e4 13850400 		mv	a0,s1
 302 01e8 97000000 		call	_Z12printIntegerm@plt
 302      E7800000 
 303              	.LVL37:
 304              		.loc 1 36 66 is_stmt 1 discriminator 1
 305              		.loc 1 36 77 is_stmt 0 discriminator 1
 306 01f0 17050000 		lla	a0,.LC1
 306      13050500 
 307 01f8 97000000 		call	_Z11printStringPKc@plt
 307      E7800000 
 308              	.LVL38:
 309              		.loc 1 36 5 is_stmt 1 discriminator 1
 310 0200 9B841400 		addiw	s1,s1,1
 311              	.LVL39:
 312 0204 93F4F40F 		andi	s1,s1,0xff
 313              	.LVL40:
 314              	.L17:
 315              		.loc 1 36 5 discriminator 2
 316              		.loc 1 36 14 discriminator 2
 317 0208 9307C000 		li	a5,12
GAS LISTING /tmp/ccthqdbG.s 			page 8


 318 020c E3F497FC 		bleu	s1,a5,.L21
  37:src/workers.cpp **** 
  38:src/workers.cpp ****     printString("B: yield\n");
 319              		.loc 1 38 5
 320              		.loc 1 38 16 is_stmt 0
 321 0210 17050000 		lla	a0,.LC6
 321      13050500 
 322 0218 97000000 		call	_Z11printStringPKc@plt
 322      E7800000 
 323              	.LVL41:
  39:src/workers.cpp ****     __asm__ ("li t1, 5");
 324              		.loc 1 39 5 is_stmt 1
 325              		.loc 1 39 25 is_stmt 0
 326              	#APP
 327              	# 39 "src/workers.cpp" 1
  40              	    TCB::dispatch();
 328              		li t1, 5
 329              	# 0 "" 2
 330              		.loc 1 40 5 is_stmt 1
 331              		.loc 1 40 18 is_stmt 0
 332              	#NO_APP
 333 0224 97000000 		call	_ZN3TCB8dispatchEv@plt
 333      E7800000 
 334              	.LVL42:
  41:src/workers.cpp **** 
  42:src/workers.cpp ****     uint64 result = fibonacci(23);
 335              		.loc 1 42 5 is_stmt 1
 336              		.loc 1 42 30 is_stmt 0
 337 022c 13057001 		li	a0,23
 338 0230 97000000 		call	_Z9fibonaccim
 338      E7800000 
 339              	.LVL43:
 340 0238 13090500 		mv	s2,a0
 341              	.LVL44:
  43:src/workers.cpp ****     printString("B: fibonaci="); printInteger(result); printString("\n");
 342              		.loc 1 43 5 is_stmt 1
 343              		.loc 1 43 16 is_stmt 0
 344 023c 17050000 		lla	a0,.LC7
 344      13050500 
 345              	.LVL45:
 346 0244 97000000 		call	_Z11printStringPKc@plt
 346      E7800000 
 347              	.LVL46:
 348              		.loc 1 43 34 is_stmt 1
 349              		.loc 1 43 46 is_stmt 0
 350 024c 13050900 		mv	a0,s2
 351 0250 97000000 		call	_Z12printIntegerm@plt
 351      E7800000 
 352              	.LVL47:
 353              		.loc 1 43 56 is_stmt 1
 354              		.loc 1 43 67 is_stmt 0
 355 0258 17050000 		lla	a0,.LC1
 355      13050500 
 356 0260 97000000 		call	_Z11printStringPKc@plt
 356      E7800000 
 357              	.LVL48:
 358 0268 6F008003 		j	.L19
GAS LISTING /tmp/ccthqdbG.s 			page 9


 359              	.L22:
  44:src/workers.cpp **** 
  45:src/workers.cpp ****     for (; i < 16; i++) { printString("B: i="); printInteger(i); printString("\n"); }
 360              		.loc 1 45 27 is_stmt 1 discriminator 1
 361              		.loc 1 45 38 is_stmt 0 discriminator 1
 362 026c 17050000 		lla	a0,.LC5
 362      13050500 
 363 0274 97000000 		call	_Z11printStringPKc@plt
 363      E7800000 
 364              	.LVL49:
 365              		.loc 1 45 49 is_stmt 1 discriminator 1
 366              		.loc 1 45 61 is_stmt 0 discriminator 1
 367 027c 13850400 		mv	a0,s1
 368 0280 97000000 		call	_Z12printIntegerm@plt
 368      E7800000 
 369              	.LVL50:
 370              		.loc 1 45 66 is_stmt 1 discriminator 1
 371              		.loc 1 45 77 is_stmt 0 discriminator 1
 372 0288 17050000 		lla	a0,.LC1
 372      13050500 
 373 0290 97000000 		call	_Z11printStringPKc@plt
 373      E7800000 
 374              	.LVL51:
 375              		.loc 1 45 5 is_stmt 1 discriminator 1
 376 0298 9B841400 		addiw	s1,s1,1
 377              	.LVL52:
 378 029c 93F4F40F 		andi	s1,s1,0xff
 379              	.LVL53:
 380              	.L19:
 381              		.loc 1 45 5 discriminator 2
 382              		.loc 1 45 14 discriminator 2
 383 02a0 9307F000 		li	a5,15
 384 02a4 E3F497FC 		bleu	s1,a5,.L22
  46:src/workers.cpp ****     TCB::dispatch();
 385              		.loc 1 46 5
 386              		.loc 1 46 18 is_stmt 0
 387 02a8 97000000 		call	_ZN3TCB8dispatchEv@plt
 387      E7800000 
 388              	.LVL54:
  47:src/workers.cpp **** }
 389              		.loc 1 47 1
 390 02b0 83308101 		ld	ra,24(sp)
 391              		.cfi_restore 1
 392 02b4 03340101 		ld	s0,16(sp)
 393              		.cfi_restore 8
 394              		.cfi_def_cfa 2, 32
 395 02b8 83348100 		ld	s1,8(sp)
 396              		.cfi_restore 9
 397              	.LVL55:
 398 02bc 03390100 		ld	s2,0(sp)
 399              		.cfi_restore 18
 400              	.LVL56:
 401 02c0 13010102 		addi	sp,sp,32
 402              		.cfi_def_cfa_offset 0
 403 02c4 67800000 		jr	ra
 404              		.cfi_endproc
 405              	.LFE25:
GAS LISTING /tmp/ccthqdbG.s 			page 10


 407              	.Letext0:
 408              		.file 2 "src/../h/../lib/hw.h"
 409              		.file 3 "src/../h/TCB.hpp"
 410              		.file 4 "src/../h/print.hpp"
GAS LISTING /tmp/ccthqdbG.s 			page 11


DEFINED SYMBOLS
                            *ABS*:0000000000000000 workers.cpp
     /tmp/ccthqdbG.s:9      .text:0000000000000000 _Z9fibonaccim
     /tmp/ccthqdbG.s:13     .text:0000000000000000 .L0 
     /tmp/ccthqdbG.s:15     .text:0000000000000000 .L0 
     /tmp/ccthqdbG.s:16     .text:0000000000000004 .L0 
     /tmp/ccthqdbG.s:21     .text:0000000000000014 .L0 
     /tmp/ccthqdbG.s:22     .text:0000000000000014 .L0 
     /tmp/ccthqdbG.s:23     .text:0000000000000014 .L0 
     /tmp/ccthqdbG.s:24     .text:0000000000000014 .L0 
     /tmp/ccthqdbG.s:26     .text:0000000000000018 .L0 
     /tmp/ccthqdbG.s:29     .text:000000000000001c .L0 
     /tmp/ccthqdbG.s:32     .text:0000000000000024 .L0 
     /tmp/ccthqdbG.s:33     .text:0000000000000024 .L0 
     /tmp/ccthqdbG.s:35     .text:0000000000000028 .L0 
     /tmp/ccthqdbG.s:39     .text:000000000000002c .L0 
     /tmp/ccthqdbG.s:40     .text:000000000000002c .L0 
     /tmp/ccthqdbG.s:45     .text:000000000000003c .L0 
     /tmp/ccthqdbG.s:49     .text:0000000000000048 .L0 
     /tmp/ccthqdbG.s:52     .text:000000000000004c .L0 
     /tmp/ccthqdbG.s:53     .text:0000000000000050 .L0 
     /tmp/ccthqdbG.s:54     .text:0000000000000050 .L0 
     /tmp/ccthqdbG.s:56     .text:0000000000000054 .L0 
     /tmp/ccthqdbG.s:57     .text:0000000000000054 .L0 
     /tmp/ccthqdbG.s:59     .text:0000000000000058 .L0 
     /tmp/ccthqdbG.s:62     .text:000000000000005c .L0 
     /tmp/ccthqdbG.s:64     .text:0000000000000060 .L0 
     /tmp/ccthqdbG.s:68     .text:0000000000000064 .L0 
     /tmp/ccthqdbG.s:70     .text:0000000000000064 .L0 
     /tmp/ccthqdbG.s:71     .text:0000000000000064 .L0 
     /tmp/ccthqdbG.s:74     .text:0000000000000070 .L0 
     /tmp/ccthqdbG.s:97     .text:0000000000000070 _Z11workerBodyAv
     /tmp/ccthqdbG.s:100    .text:0000000000000070 .L0 
     /tmp/ccthqdbG.s:101    .text:0000000000000070 .L0 
     /tmp/ccthqdbG.s:102    .text:0000000000000074 .L0 
     /tmp/ccthqdbG.s:107    .text:0000000000000084 .L0 
     /tmp/ccthqdbG.s:108    .text:0000000000000084 .L0 
     /tmp/ccthqdbG.s:109    .text:0000000000000084 .L0 
     /tmp/ccthqdbG.s:110    .text:0000000000000084 .L0 
     /tmp/ccthqdbG.s:112    .text:0000000000000088 .L0 
     /tmp/ccthqdbG.s:115    .text:0000000000000088 .L0 
     /tmp/ccthqdbG.s:116    .text:0000000000000088 .L0 
     /tmp/ccthqdbG.s:121    .text:0000000000000090 .L0 
     /tmp/ccthqdbG.s:122    .text:0000000000000090 .L0 
     /tmp/ccthqdbG.s:126    .text:00000000000000a0 .L0 
     /tmp/ccthqdbG.s:127    .text:00000000000000a0 .L0 
     /tmp/ccthqdbG.s:131    .text:00000000000000ac .L0 
     /tmp/ccthqdbG.s:132    .text:00000000000000ac .L0 
     /tmp/ccthqdbG.s:136    .text:00000000000000bc .L0 
     /tmp/ccthqdbG.s:142    .text:00000000000000c4 .L0 
     /tmp/ccthqdbG.s:143    .text:00000000000000c4 .L0 
     /tmp/ccthqdbG.s:146    .text:00000000000000cc .L0 
     /tmp/ccthqdbG.s:147    .text:00000000000000cc .L0 
     /tmp/ccthqdbG.s:151    .text:00000000000000dc .L0 
     src/workers.cpp:19     .text:00000000000000dc .L0 
     /tmp/ccthqdbG.s:157    .text:00000000000000e0 .L0 
     /tmp/ccthqdbG.s:159    .text:00000000000000e0 .L0 
GAS LISTING /tmp/ccthqdbG.s 			page 12


     /tmp/ccthqdbG.s:162    .text:00000000000000e8 .L0 
     /tmp/ccthqdbG.s:163    .text:00000000000000e8 .L0 
     src/workers.cpp:23     .text:00000000000000e8 .L0 
     /tmp/ccthqdbG.s:170    .text:00000000000000ec .L0 
     /tmp/ccthqdbG.s:172    .text:00000000000000ec .L0 
     /tmp/ccthqdbG.s:176    .text:00000000000000fc .L0 
     /tmp/ccthqdbG.s:177    .text:00000000000000fc .L0 
     /tmp/ccthqdbG.s:181    .text:0000000000000108 .L0 
     /tmp/ccthqdbG.s:182    .text:0000000000000108 .L0 
     /tmp/ccthqdbG.s:186    .text:0000000000000118 .L0 
     /tmp/ccthqdbG.s:187    .text:0000000000000118 .L0 
     /tmp/ccthqdbG.s:193    .text:0000000000000128 .L0 
     /tmp/ccthqdbG.s:194    .text:0000000000000128 .L0 
     /tmp/ccthqdbG.s:199    .text:0000000000000138 .L0 
     /tmp/ccthqdbG.s:200    .text:0000000000000138 .L0 
     /tmp/ccthqdbG.s:204    .text:0000000000000144 .L0 
     /tmp/ccthqdbG.s:205    .text:0000000000000144 .L0 
     /tmp/ccthqdbG.s:211    .text:0000000000000158 .L0 
     /tmp/ccthqdbG.s:212    .text:0000000000000158 .L0 
     /tmp/ccthqdbG.s:216    .text:0000000000000168 .L0 
     /tmp/ccthqdbG.s:217    .text:0000000000000168 .L0 
     /tmp/ccthqdbG.s:221    .text:0000000000000174 .L0 
     /tmp/ccthqdbG.s:222    .text:0000000000000174 .L0 
     /tmp/ccthqdbG.s:226    .text:0000000000000184 .L0 
     /tmp/ccthqdbG.s:232    .text:000000000000018c .L0 
     /tmp/ccthqdbG.s:233    .text:000000000000018c .L0 
     /tmp/ccthqdbG.s:236    .text:0000000000000194 .L0 
     /tmp/ccthqdbG.s:237    .text:0000000000000194 .L0 
     /tmp/ccthqdbG.s:240    .text:000000000000019c .L0 
     /tmp/ccthqdbG.s:241    .text:00000000000001a0 .L0 
     /tmp/ccthqdbG.s:243    .text:00000000000001a4 .L0 
     /tmp/ccthqdbG.s:244    .text:00000000000001a4 .L0 
     /tmp/ccthqdbG.s:246    .text:00000000000001a8 .L0 
     /tmp/ccthqdbG.s:249    .text:00000000000001ac .L0 
     /tmp/ccthqdbG.s:252    .text:00000000000001b0 .L0 
     /tmp/ccthqdbG.s:254    .text:00000000000001b4 .L0 
     /tmp/ccthqdbG.s:271    .text:00000000000001b4 _Z11workerBodyBv
     /tmp/ccthqdbG.s:274    .text:00000000000001b4 .L0 
     /tmp/ccthqdbG.s:275    .text:00000000000001b4 .L0 
     /tmp/ccthqdbG.s:276    .text:00000000000001b8 .L0 
     /tmp/ccthqdbG.s:281    .text:00000000000001c8 .L0 
     /tmp/ccthqdbG.s:282    .text:00000000000001c8 .L0 
     /tmp/ccthqdbG.s:283    .text:00000000000001c8 .L0 
     /tmp/ccthqdbG.s:284    .text:00000000000001c8 .L0 
     /tmp/ccthqdbG.s:286    .text:00000000000001cc .L0 
     /tmp/ccthqdbG.s:289    .text:00000000000001cc .L0 
     /tmp/ccthqdbG.s:290    .text:00000000000001cc .L0 
     /tmp/ccthqdbG.s:295    .text:00000000000001d4 .L0 
     /tmp/ccthqdbG.s:296    .text:00000000000001d4 .L0 
     /tmp/ccthqdbG.s:300    .text:00000000000001e4 .L0 
     /tmp/ccthqdbG.s:301    .text:00000000000001e4 .L0 
     /tmp/ccthqdbG.s:305    .text:00000000000001f0 .L0 
     /tmp/ccthqdbG.s:306    .text:00000000000001f0 .L0 
     /tmp/ccthqdbG.s:310    .text:0000000000000200 .L0 
     /tmp/ccthqdbG.s:316    .text:0000000000000208 .L0 
     /tmp/ccthqdbG.s:317    .text:0000000000000208 .L0 
     /tmp/ccthqdbG.s:320    .text:0000000000000210 .L0 
GAS LISTING /tmp/ccthqdbG.s 			page 13


     /tmp/ccthqdbG.s:321    .text:0000000000000210 .L0 
     /tmp/ccthqdbG.s:325    .text:0000000000000220 .L0 
     src/workers.cpp:39     .text:0000000000000220 .L0 
     /tmp/ccthqdbG.s:331    .text:0000000000000224 .L0 
     /tmp/ccthqdbG.s:333    .text:0000000000000224 .L0 
     /tmp/ccthqdbG.s:336    .text:000000000000022c .L0 
     /tmp/ccthqdbG.s:337    .text:000000000000022c .L0 
     /tmp/ccthqdbG.s:343    .text:000000000000023c .L0 
     /tmp/ccthqdbG.s:344    .text:000000000000023c .L0 
     /tmp/ccthqdbG.s:349    .text:000000000000024c .L0 
     /tmp/ccthqdbG.s:350    .text:000000000000024c .L0 
     /tmp/ccthqdbG.s:354    .text:0000000000000258 .L0 
     /tmp/ccthqdbG.s:355    .text:0000000000000258 .L0 
     /tmp/ccthqdbG.s:361    .text:000000000000026c .L0 
     /tmp/ccthqdbG.s:362    .text:000000000000026c .L0 
     /tmp/ccthqdbG.s:366    .text:000000000000027c .L0 
     /tmp/ccthqdbG.s:367    .text:000000000000027c .L0 
     /tmp/ccthqdbG.s:371    .text:0000000000000288 .L0 
     /tmp/ccthqdbG.s:372    .text:0000000000000288 .L0 
     /tmp/ccthqdbG.s:376    .text:0000000000000298 .L0 
     /tmp/ccthqdbG.s:382    .text:00000000000002a0 .L0 
     /tmp/ccthqdbG.s:383    .text:00000000000002a0 .L0 
     /tmp/ccthqdbG.s:386    .text:00000000000002a8 .L0 
     /tmp/ccthqdbG.s:387    .text:00000000000002a8 .L0 
     /tmp/ccthqdbG.s:390    .text:00000000000002b0 .L0 
     /tmp/ccthqdbG.s:391    .text:00000000000002b4 .L0 
     /tmp/ccthqdbG.s:393    .text:00000000000002b8 .L0 
     /tmp/ccthqdbG.s:394    .text:00000000000002b8 .L0 
     /tmp/ccthqdbG.s:396    .text:00000000000002bc .L0 
     /tmp/ccthqdbG.s:399    .text:00000000000002c0 .L0 
     /tmp/ccthqdbG.s:402    .text:00000000000002c4 .L0 
     /tmp/ccthqdbG.s:404    .text:00000000000002c8 .L0 
     /tmp/ccthqdbG.s:411    .text:00000000000002c8 .L0 
     /tmp/ccthqdbG.s:79     .rodata.str1.8:0000000000000000 .LC0
     /tmp/ccthqdbG.s:122    .text:0000000000000090 .L0 
     /tmp/ccthqdbG.s:82     .rodata.str1.8:0000000000000008 .LC1
     /tmp/ccthqdbG.s:132    .text:00000000000000ac .L0 
     /tmp/ccthqdbG.s:85     .rodata.str1.8:0000000000000010 .LC2
     /tmp/ccthqdbG.s:147    .text:00000000000000cc .L0 
     /tmp/ccthqdbG.s:88     .rodata.str1.8:0000000000000020 .LC3
     /tmp/ccthqdbG.s:172    .text:00000000000000ec .L0 
     /tmp/ccthqdbG.s:182    .text:0000000000000108 .L0 
     /tmp/ccthqdbG.s:91     .rodata.str1.8:0000000000000028 .LC4
     /tmp/ccthqdbG.s:194    .text:0000000000000128 .L0 
     /tmp/ccthqdbG.s:205    .text:0000000000000144 .L0 
     /tmp/ccthqdbG.s:212    .text:0000000000000158 .L0 
     /tmp/ccthqdbG.s:222    .text:0000000000000174 .L0 
     /tmp/ccthqdbG.s:259    .rodata.str1.8:0000000000000038 .LC5
     /tmp/ccthqdbG.s:296    .text:00000000000001d4 .L0 
     /tmp/ccthqdbG.s:306    .text:00000000000001f0 .L0 
     /tmp/ccthqdbG.s:262    .rodata.str1.8:0000000000000040 .LC6
     /tmp/ccthqdbG.s:321    .text:0000000000000210 .L0 
     /tmp/ccthqdbG.s:265    .rodata.str1.8:0000000000000050 .LC7
     /tmp/ccthqdbG.s:344    .text:000000000000023c .L0 
     /tmp/ccthqdbG.s:355    .text:0000000000000258 .L0 
     /tmp/ccthqdbG.s:362    .text:000000000000026c .L0 
     /tmp/ccthqdbG.s:372    .text:0000000000000288 .L0 
GAS LISTING /tmp/ccthqdbG.s 			page 14


     /tmp/ccthqdbG.s:50     .text:000000000000004c .L1
     /tmp/ccthqdbG.s:67     .text:0000000000000064 .L6
     /tmp/ccthqdbG.s:37     .text:000000000000002c .L3
     /tmp/ccthqdbG.s:140    .text:00000000000000c4 .L9
     /tmp/ccthqdbG.s:119    .text:0000000000000090 .L13
     /tmp/ccthqdbG.s:230    .text:000000000000018c .L11
     /tmp/ccthqdbG.s:209    .text:0000000000000158 .L14
     /tmp/ccthqdbG.s:314    .text:0000000000000208 .L17
     /tmp/ccthqdbG.s:293    .text:00000000000001d4 .L21
     /tmp/ccthqdbG.s:380    .text:00000000000002a0 .L19
     /tmp/ccthqdbG.s:359    .text:000000000000026c .L22
     /tmp/ccthqdbG.s:1162   .debug_abbrev:0000000000000000 .Ldebug_abbrev0
     /tmp/ccthqdbG.s:1972   .debug_str:0000000000000252 .LASF41
     /tmp/ccthqdbG.s:1902   .debug_str:000000000000007a .LASF42
     /tmp/ccthqdbG.s:1936   .debug_str:0000000000000138 .LASF43
     /tmp/ccthqdbG.s:5      .text:0000000000000000 .Ltext0
     /tmp/ccthqdbG.s:407    .text:00000000000002c8 .Letext0
     /tmp/ccthqdbG.s:1880   .debug_line:0000000000000000 .Ldebug_line0
     /tmp/ccthqdbG.s:1942   .debug_str:0000000000000183 .LASF0
     /tmp/ccthqdbG.s:1948   .debug_str:000000000000019f .LASF1
     /tmp/ccthqdbG.s:1934   .debug_str:000000000000012a .LASF2
     /tmp/ccthqdbG.s:1906   .debug_str:00000000000000a0 .LASF3
     /tmp/ccthqdbG.s:1920   .debug_str:00000000000000f0 .LASF4
     /tmp/ccthqdbG.s:1964   .debug_str:0000000000000213 .LASF5
     /tmp/ccthqdbG.s:1894   .debug_str:0000000000000048 .LASF6
     /tmp/ccthqdbG.s:1950   .debug_str:00000000000001b2 .LASF7
     /tmp/ccthqdbG.s:1940   .debug_str:0000000000000170 .LASF8
     /tmp/ccthqdbG.s:1982   .debug_str:000000000000035b .LASF9
     /tmp/ccthqdbG.s:1916   .debug_str:00000000000000dd .LASF10
     /tmp/ccthqdbG.s:1954   .debug_str:00000000000001d0 .LASF11
     /tmp/ccthqdbG.s:1974   .debug_str:0000000000000316 .LASF12
     /tmp/ccthqdbG.s:1896   .debug_str:000000000000004f .LASF13
     /tmp/ccthqdbG.s:1886   .debug_str:0000000000000013 .LASF14
     /tmp/ccthqdbG.s:1900   .debug_str:000000000000006e .LASF15
     /tmp/ccthqdbG.s:1962   .debug_str:00000000000001fd .LASF16
     /tmp/ccthqdbG.s:1904   .debug_str:000000000000008a .LASF17
     /tmp/ccthqdbG.s:1890   .debug_str:000000000000002f .LASF44
     /tmp/ccthqdbG.s:1988   .debug_str:0000000000000382 .LASF18
     /tmp/ccthqdbG.s:1970   .debug_str:0000000000000246 .LASF20
     /tmp/ccthqdbG.s:1966   .debug_str:0000000000000225 .LASF24
     /tmp/ccthqdbG.s:1960   .debug_str:00000000000001f0 .LASF45
     /tmp/ccthqdbG.s:1918   .debug_str:00000000000000eb .LASF19
     /tmp/ccthqdbG.s:1956   .debug_str:00000000000001df .LASF21
     /tmp/ccthqdbG.s:1928   .debug_str:000000000000010d .LASF22
     /tmp/ccthqdbG.s:1990   .debug_str:000000000000038f .LASF23
     /tmp/ccthqdbG.s:1958   .debug_str:00000000000001eb .LASF46
     /tmp/ccthqdbG.s:1944   .debug_str:0000000000000190 .LASF47
     /tmp/ccthqdbG.s:1910   .debug_str:00000000000000ae .LASF48
     /tmp/ccthqdbG.s:1930   .debug_str:000000000000011a .LASF49
     /tmp/ccthqdbG.s:1898   .debug_str:000000000000005f .LASF50
     /tmp/ccthqdbG.s:1952   .debug_str:00000000000001c5 .LASF30
     /tmp/ccthqdbG.s:1914   .debug_str:00000000000000c6 .LASF32
     /tmp/ccthqdbG.s:1908   .debug_str:00000000000000a6 .LASF51
     /tmp/ccthqdbG.s:1994   .debug_str:00000000000003c4 .LASF52
     /tmp/ccthqdbG.s:1922   .debug_str:00000000000000f7 .LASF25
     /tmp/ccthqdbG.s:1946   .debug_str:0000000000000199 .LASF26
     /tmp/ccthqdbG.s:1926   .debug_str:0000000000000105 .LASF27
GAS LISTING /tmp/ccthqdbG.s 			page 15


     /tmp/ccthqdbG.s:1924   .debug_str:0000000000000100 .LASF28
     /tmp/ccthqdbG.s:1932   .debug_str:000000000000011f .LASF53
     /tmp/ccthqdbG.s:1978   .debug_str:0000000000000337 .LASF54
     /tmp/ccthqdbG.s:1912   .debug_str:00000000000000c1 .LASF29
     /tmp/ccthqdbG.s:1884   .debug_str:0000000000000007 .LASF31
     /tmp/ccthqdbG.s:1892   .debug_str:0000000000000037 .LASF33
     /tmp/ccthqdbG.s:272    .text:00000000000001b4 .LFB25
     /tmp/ccthqdbG.s:405    .text:00000000000002c8 .LFE25
     /tmp/ccthqdbG.s:1775   .debug_loc:0000000000000000 .LLST4
     /tmp/ccthqdbG.s:1882   .debug_str:0000000000000000 .LASF34
     /tmp/ccthqdbG.s:1795   .debug_loc:000000000000005d .LLST5
     /tmp/ccthqdbG.s:298    .text:00000000000001e4 .LVL36
     /tmp/ccthqdbG.s:303    .text:00000000000001f0 .LVL37
     /tmp/ccthqdbG.s:308    .text:0000000000000200 .LVL38
     /tmp/ccthqdbG.s:323    .text:0000000000000220 .LVL41
     /tmp/ccthqdbG.s:334    .text:000000000000022c .LVL42
     /tmp/ccthqdbG.s:339    .text:0000000000000238 .LVL43
     /tmp/ccthqdbG.s:347    .text:000000000000024c .LVL46
     /tmp/ccthqdbG.s:352    .text:0000000000000258 .LVL47
     /tmp/ccthqdbG.s:357    .text:0000000000000268 .LVL48
     /tmp/ccthqdbG.s:364    .text:000000000000027c .LVL49
     /tmp/ccthqdbG.s:369    .text:0000000000000288 .LVL50
     /tmp/ccthqdbG.s:374    .text:0000000000000298 .LVL51
     /tmp/ccthqdbG.s:388    .text:00000000000002b0 .LVL54
     /tmp/ccthqdbG.s:1938   .debug_str:0000000000000164 .LASF35
     /tmp/ccthqdbG.s:1968   .debug_str:0000000000000235 .LASF36
     /tmp/ccthqdbG.s:98     .text:0000000000000070 .LFB24
     /tmp/ccthqdbG.s:255    .text:00000000000001b4 .LFE24
     /tmp/ccthqdbG.s:1806   .debug_loc:0000000000000093 .LLST1
     /tmp/ccthqdbG.s:1826   .debug_loc:00000000000000f0 .LLST2
     /tmp/ccthqdbG.s:1834   .debug_loc:0000000000000114 .LLST3
     /tmp/ccthqdbG.s:124    .text:00000000000000a0 .LVL9
     /tmp/ccthqdbG.s:129    .text:00000000000000ac .LVL10
     /tmp/ccthqdbG.s:134    .text:00000000000000bc .LVL11
     /tmp/ccthqdbG.s:149    .text:00000000000000dc .LVL14
     /tmp/ccthqdbG.s:160    .text:00000000000000e8 .LVL15
     /tmp/ccthqdbG.s:174    .text:00000000000000fc .LVL17
     /tmp/ccthqdbG.s:179    .text:0000000000000108 .LVL18
     /tmp/ccthqdbG.s:184    .text:0000000000000118 .LVL19
     /tmp/ccthqdbG.s:189    .text:0000000000000124 .LVL20
     /tmp/ccthqdbG.s:197    .text:0000000000000138 .LVL23
     /tmp/ccthqdbG.s:202    .text:0000000000000144 .LVL24
     /tmp/ccthqdbG.s:207    .text:0000000000000154 .LVL25
     /tmp/ccthqdbG.s:214    .text:0000000000000168 .LVL26
     /tmp/ccthqdbG.s:219    .text:0000000000000174 .LVL27
     /tmp/ccthqdbG.s:224    .text:0000000000000184 .LVL28
     /tmp/ccthqdbG.s:238    .text:000000000000019c .LVL31
     /tmp/ccthqdbG.s:1984   .debug_str:000000000000036b .LASF55
     /tmp/ccthqdbG.s:1980   .debug_str:000000000000034d .LASF56
     /tmp/ccthqdbG.s:10     .text:0000000000000000 .LFB23
     /tmp/ccthqdbG.s:75     .text:0000000000000070 .LFE23
     /tmp/ccthqdbG.s:1845   .debug_loc:000000000000014a .LLST0
     /tmp/ccthqdbG.s:42     .text:0000000000000038 .LVL2
     /tmp/ccthqdbG.s:47     .text:0000000000000048 .LVL3
     /tmp/ccthqdbG.s:72     .text:000000000000006c .LVL6
     /tmp/ccthqdbG.s:1992   .debug_str:00000000000003b1 .LASF37
     /tmp/ccthqdbG.s:1888   .debug_str:0000000000000023 .LASF39
GAS LISTING /tmp/ccthqdbG.s 			page 16


     /tmp/ccthqdbG.s:1976   .debug_str:0000000000000325 .LASF38
     /tmp/ccthqdbG.s:1986   .debug_str:0000000000000375 .LASF40
     /tmp/ccthqdbG.s:288    .text:00000000000001cc .LVL34
     /tmp/ccthqdbG.s:292    .text:00000000000001d4 .LVL35
     /tmp/ccthqdbG.s:311    .text:0000000000000204 .LVL39
     /tmp/ccthqdbG.s:313    .text:0000000000000208 .LVL40
     /tmp/ccthqdbG.s:377    .text:000000000000029c .LVL52
     /tmp/ccthqdbG.s:379    .text:00000000000002a0 .LVL53
     /tmp/ccthqdbG.s:397    .text:00000000000002bc .LVL55
     /tmp/ccthqdbG.s:341    .text:000000000000023c .LVL44
     /tmp/ccthqdbG.s:345    .text:0000000000000244 .LVL45
     /tmp/ccthqdbG.s:400    .text:00000000000002c0 .LVL56
     /tmp/ccthqdbG.s:114    .text:0000000000000088 .LVL7
     /tmp/ccthqdbG.s:118    .text:0000000000000090 .LVL8
     /tmp/ccthqdbG.s:137    .text:00000000000000c0 .LVL12
     /tmp/ccthqdbG.s:139    .text:00000000000000c4 .LVL13
     /tmp/ccthqdbG.s:227    .text:0000000000000188 .LVL29
     /tmp/ccthqdbG.s:229    .text:000000000000018c .LVL30
     /tmp/ccthqdbG.s:247    .text:00000000000001a8 .LVL32
     /tmp/ccthqdbG.s:168    .text:00000000000000ec .LVL16
     /tmp/ccthqdbG.s:191    .text:0000000000000128 .LVL21
     /tmp/ccthqdbG.s:195    .text:0000000000000130 .LVL22
     /tmp/ccthqdbG.s:250    .text:00000000000001ac .LVL33
     /tmp/ccthqdbG.s:14     .text:0000000000000000 .LVL0
     /tmp/ccthqdbG.s:36     .text:000000000000002c .LVL1
     /tmp/ccthqdbG.s:60     .text:0000000000000058 .LVL4
     /tmp/ccthqdbG.s:66     .text:0000000000000064 .LVL5
     /tmp/ccthqdbG.s:412    .debug_info:0000000000000000 .Ldebug_info0

UNDEFINED SYMBOLS
_ZN3TCB8dispatchEv
_Z11printStringPKc
_Z12printIntegerm
