GAS LISTING /tmp/cc9ghjxq.s 			page 1


   1              		.file	"workers.cpp"
   2              		.option pic
   3              		.option norelax
   4              		.text
   5              	.Ltext0:
   6              		.align	2
   7              		.globl	_Z9fibonaccim
   9              	_Z9fibonaccim:
  10              	.LFB29:
  11              		.file 1 "src/workers.cpp"
   1:src/workers.cpp **** //
   2:src/workers.cpp **** // Created by os on 9/24/25.
   3:src/workers.cpp **** //
   4:src/workers.cpp **** #include "../h/workers.hpp"
   5:src/workers.cpp **** #include "../lib/hw.h"
   6:src/workers.cpp **** 
   7:src/workers.cpp **** #include "../h/print.hpp"
   8:src/workers.cpp **** #include "../h/syscall_c.hpp"
   9:src/workers.cpp **** #include "../h/syscall_cpp.hpp"
  10:src/workers.cpp **** 
  11:src/workers.cpp **** uint64 fibonacci(uint64 n) {
  12              		.loc 1 11 28
  13              		.cfi_startproc
  14              	.LVL0:
  15 0000 130101FE 		addi	sp,sp,-32
  16              		.cfi_def_cfa_offset 32
  17 0004 233C1100 		sd	ra,24(sp)
  18 0008 23388100 		sd	s0,16(sp)
  19 000c 23349100 		sd	s1,8(sp)
  20 0010 23302101 		sd	s2,0(sp)
  21              		.cfi_offset 1, -8
  22              		.cfi_offset 8, -16
  23              		.cfi_offset 9, -24
  24              		.cfi_offset 18, -32
  25 0014 13040102 		addi	s0,sp,32
  26              		.cfi_def_cfa 8, 0
  27 0018 93040500 		mv	s1,a0
  12:src/workers.cpp ****     if (n == 0 || n == 1) { return n; }
  28              		.loc 1 12 5
  29 001c 93071000 		li	a5,1
  30 0020 63F6A702 		bleu	a0,a5,.L1
  13:src/workers.cpp ****     if (n % 4 == 0) thread_dispatch();
  31              		.loc 1 13 5
  32              		.loc 1 13 11 is_stmt 0
  33 0024 93773500 		andi	a5,a0,3
  34              		.loc 1 13 5
  35 0028 638E0702 		beqz	a5,.L6
  36              	.LVL1:
  37              	.L3:
  14:src/workers.cpp ****     return fibonacci(n - 1) + fibonacci(n - 2);
  38              		.loc 1 14 5 is_stmt 1
  39              		.loc 1 14 21 is_stmt 0
  40 002c 1385F4FF 		addi	a0,s1,-1
  41 0030 97000000 		call	_Z9fibonaccim
  41      E7800000 
  42              	.LVL2:
  43 0038 13090500 		mv	s2,a0
GAS LISTING /tmp/cc9ghjxq.s 			page 2


  44              		.loc 1 14 40
  45 003c 1385E4FF 		addi	a0,s1,-2
  46 0040 97000000 		call	_Z9fibonaccim
  46      E7800000 
  47              	.LVL3:
  48              		.loc 1 14 46
  49 0048 3305A900 		add	a0,s2,a0
  50              	.L1:
  15:src/workers.cpp **** }
  51              		.loc 1 15 1
  52 004c 83308101 		ld	ra,24(sp)
  53              		.cfi_remember_state
  54              		.cfi_restore 1
  55 0050 03340101 		ld	s0,16(sp)
  56              		.cfi_restore 8
  57              		.cfi_def_cfa 2, 32
  58 0054 83348100 		ld	s1,8(sp)
  59              		.cfi_restore 9
  60              	.LVL4:
  61 0058 03390100 		ld	s2,0(sp)
  62              		.cfi_restore 18
  63 005c 13010102 		addi	sp,sp,32
  64              		.cfi_def_cfa_offset 0
  65 0060 67800000 		jr	ra
  66              	.LVL5:
  67              	.L6:
  68              		.cfi_restore_state
  13:src/workers.cpp ****     if (n % 4 == 0) thread_dispatch();
  69              		.loc 1 13 21 is_stmt 1 discriminator 1
  13:src/workers.cpp ****     if (n % 4 == 0) thread_dispatch();
  70              		.loc 1 13 36 is_stmt 0 discriminator 1
  71 0064 97000000 		call	_Z15thread_dispatchv@plt
  71      E7800000 
  72              	.LVL6:
  73 006c 6FF01FFC 		j	.L3
  74              		.cfi_endproc
  75              	.LFE29:
  77              		.section	.rodata.str1.8,"aMS",@progbits,1
  78              		.align	3
  79              	.LC0:
  80 0000 4661696C 		.string	"Failed\n"
  80      65640A00 
  81              		.text
  82              		.align	2
  83              		.globl	_Z13initSemaphorev
  85              	_Z13initSemaphorev:
  86              	.LFB30:
  16:src/workers.cpp **** 
  17:src/workers.cpp **** Semaphore* semaphore;
  18:src/workers.cpp **** 
  19:src/workers.cpp **** void initSemaphore() {
  87              		.loc 1 19 22 is_stmt 1
  88              		.cfi_startproc
  89              		.cfi_personality 0x9b,DW.ref.__gxx_personality_v0
  90              		.cfi_lsda 0x1b,.LLSDA30
  20:src/workers.cpp ****     if (semaphore) {
  91              		.loc 1 20 5
GAS LISTING /tmp/cc9ghjxq.s 			page 3


  92              		.loc 1 20 18 is_stmt 0
  93 0070 97070000 		ld	a5,.LANCHOR0
  93      83B70700 
  94              		.loc 1 20 5
  95 0078 63840700 		beqz	a5,.L15
  96 007c 67800000 		ret
  97              	.L15:
  19:src/workers.cpp ****     if (semaphore) {
  98              		.loc 1 19 22
  99 0080 130101FE 		addi	sp,sp,-32
 100              		.cfi_def_cfa_offset 32
 101 0084 233C1100 		sd	ra,24(sp)
 102 0088 23388100 		sd	s0,16(sp)
 103 008c 23349100 		sd	s1,8(sp)
 104 0090 23302101 		sd	s2,0(sp)
 105              		.cfi_offset 1, -8
 106              		.cfi_offset 8, -16
 107              		.cfi_offset 9, -24
 108              		.cfi_offset 18, -32
 109 0094 13040102 		addi	s0,sp,32
 110              		.cfi_def_cfa 8, 0
  21:src/workers.cpp ****         return;
  22:src/workers.cpp ****     }
  23:src/workers.cpp ****     semaphore = new Semaphore(1);
 111              		.loc 1 23 5 is_stmt 1
 112              		.loc 1 23 32 is_stmt 0
 113 0098 13050001 		li	a0,16
 114              	.LEHB0:
 115 009c 97000000 		call	_Znwm@plt
 115      E7800000 
 116              	.LVL7:
 117              	.LEHE0:
 118 00a4 93040500 		mv	s1,a0
 119 00a8 93051000 		li	a1,1
 120              	.LEHB1:
 121 00ac 97000000 		call	_ZN9SemaphoreC1Ej@plt
 121      E7800000 
 122              	.LVL8:
 123              	.LEHE1:
 124              		.loc 1 23 15 discriminator 2
 125 00b4 97070000 		sd	s1,.LANCHOR0,a5
 125      23B09700 
  24:src/workers.cpp ****     if (semaphore == nullptr) {
 126              		.loc 1 24 5 is_stmt 1 discriminator 2
 127 00bc 638E0400 		beqz	s1,.L16
 128              	.L7:
  25:src/workers.cpp ****         pprintString("Failed\n");
  26:src/workers.cpp **** 
  27:src/workers.cpp ****     }
  28:src/workers.cpp **** }
 129              		.loc 1 28 1 is_stmt 0
 130 00c0 83308101 		ld	ra,24(sp)
 131              		.cfi_remember_state
 132              		.cfi_restore 1
 133 00c4 03340101 		ld	s0,16(sp)
 134              		.cfi_restore 8
 135              		.cfi_def_cfa 2, 32
GAS LISTING /tmp/cc9ghjxq.s 			page 4


 136 00c8 83348100 		ld	s1,8(sp)
 137              		.cfi_restore 9
 138 00cc 03390100 		ld	s2,0(sp)
 139              		.cfi_restore 18
 140 00d0 13010102 		addi	sp,sp,32
 141              		.cfi_def_cfa_offset 0
 142 00d4 67800000 		jr	ra
 143              	.L16:
 144              		.cfi_restore_state
  25:src/workers.cpp ****         pprintString("Failed\n");
 145              		.loc 1 25 9 is_stmt 1
  25:src/workers.cpp ****         pprintString("Failed\n");
 146              		.loc 1 25 21 is_stmt 0
 147 00d8 17050000 		lla	a0,.LC0
 147      13050500 
 148              	.LEHB2:
 149 00e0 97000000 		call	_Z12pprintStringPKc@plt
 149      E7800000 
 150              	.LVL9:
 151              	.LEHE2:
 152 00e8 6FF09FFD 		j	.L7
 153              	.L10:
 154 00ec 13090500 		mv	s2,a0
  23:src/workers.cpp ****     if (semaphore == nullptr) {
 155              		.loc 1 23 32
 156 00f0 13850400 		mv	a0,s1
 157 00f4 97000000 		call	_ZdlPv@plt
 157      E7800000 
 158              	.LVL10:
 159 00fc 13050900 		mv	a0,s2
 160              	.LEHB3:
 161 0100 97000000 		call	_Unwind_Resume@plt
 161      E7800000 
 162              	.LVL11:
 163              	.LEHE3:
 164              		.cfi_endproc
 165              	.LFE30:
 166              		.globl	__gxx_personality_v0
 167              		.section	.gcc_except_table,"a",@progbits
 168              	.LLSDA30:
 169 0000 FF       		.byte	0xff
 170 0001 FF       		.byte	0xff
 171 0002 03       		.byte	0x3
 172 0003 34       		.byte	0x34
 173 0004 00000000 		.4byte	.LEHB0-.LFB30
 174 0008 00000000 		.4byte	.LEHE0-.LEHB0
 175 000c 00000000 		.4byte	0
 176 0010 00       		.byte	0
 177 0011 00000000 		.4byte	.LEHB1-.LFB30
 178 0015 00000000 		.4byte	.LEHE1-.LEHB1
 179 0019 00000000 		.4byte	.L10-.LFB30
 180 001d 00       		.byte	0
 181 001e 00000000 		.4byte	.LEHB2-.LFB30
 182 0022 00000000 		.4byte	.LEHE2-.LEHB2
 183 0026 00000000 		.4byte	0
 184 002a 00       		.byte	0
 185 002b 00000000 		.4byte	.LEHB3-.LFB30
GAS LISTING /tmp/cc9ghjxq.s 			page 5


 186 002f 00000000 		.4byte	.LEHE3-.LEHB3
 187 0033 00000000 		.4byte	0
 188 0037 00       		.byte	0
 189              		.text
 191              		.section	.rodata.str1.8
 192              		.align	3
 193              	.LC1:
 194 0008 413A2069 		.string	"A: i="
 194      3D00
 195 000e 0000     		.align	3
 196              	.LC2:
 197 0010 0A00     		.string	"\n"
 198 0012 00000000 		.align	3
 198      0000
 199              	.LC3:
 200 0018 41206669 		.string	"A finished!\n"
 200      6E697368 
 200      6564210A 
 200      00
 201              		.text
 202              		.align	2
 203              		.globl	_Z11workerBodyAv
 205              	_Z11workerBodyAv:
 206              	.LFB31:
  29:src/workers.cpp **** 
  30:src/workers.cpp **** void workerBodyA() {
 207              		.loc 1 30 20 is_stmt 1
 208              		.cfi_startproc
 209 0108 130101FE 		addi	sp,sp,-32
 210              		.cfi_def_cfa_offset 32
 211 010c 233C1100 		sd	ra,24(sp)
 212 0110 23388100 		sd	s0,16(sp)
 213 0114 23349100 		sd	s1,8(sp)
 214              		.cfi_offset 1, -8
 215              		.cfi_offset 8, -16
 216              		.cfi_offset 9, -24
 217 0118 13040102 		addi	s0,sp,32
 218              		.cfi_def_cfa 8, 0
  31:src/workers.cpp ****    initSemaphore();
 219              		.loc 1 31 4
 220              		.loc 1 31 17 is_stmt 0
 221 011c 97000000 		call	_Z13initSemaphorev
 221      E7800000 
 222              	.LVL12:
  32:src/workers.cpp ****    //semaphore->wait();
  33:src/workers.cpp ****     // uint8 i = 0;
  34:src/workers.cpp ****     // for (; i < 3; i++) { pprintString("A: i="); printInteger(i); pprintString("\n"); }
  35:src/workers.cpp **** 
  36:src/workers.cpp ****     // pprintString("A: yield\n");
  37:src/workers.cpp ****     // __asm__ ("li t1, 7");
  38:src/workers.cpp ****     // thread_dispatch();
  39:src/workers.cpp **** 
  40:src/workers.cpp ****     // uint64 t1 = 0;
  41:src/workers.cpp ****     // __asm__ ("mv %[t1], t1" : [t1] "=r"(t1));
  42:src/workers.cpp ****     // pprintString("A: t1="); printInteger(t1); pprintString("\n");
  43:src/workers.cpp **** 
  44:src/workers.cpp ****     // uint64 result = fibonacci(20);
GAS LISTING /tmp/cc9ghjxq.s 			page 6


  45:src/workers.cpp ****     // pprintString("A: fibonaci="); printInteger(result); pprintString("\n");
  46:src/workers.cpp **** 
  47:src/workers.cpp ****     //for (; i < 6; i++) { pprintString("A: i="); printInteger(i); pprintString("\n"); }
  48:src/workers.cpp ****     time_sleep(40);
 223              		.loc 1 48 5 is_stmt 1
 224              		.loc 1 48 15 is_stmt 0
 225 0124 13058002 		li	a0,40
 226 0128 97000000 		call	_Z10time_sleepm@plt
 226      E7800000 
 227              	.LVL13:
  49:src/workers.cpp ****     for (uint64 i = 0; i < 10; i++) {
 228              		.loc 1 49 5 is_stmt 1
 229              	.LBB2:
 230              		.loc 1 49 17 is_stmt 0
 231 0130 93040000 		li	s1,0
 232 0134 6F000003 		j	.L23
 233              	.LVL14:
 234              	.L20:
 235              	.LBB3:
 236              	.LBB4:
  50:src/workers.cpp ****         pprintString("A: i="); printInteger(i); pprintString("\n");
  51:src/workers.cpp ****         for (uint64 j = 0; j < 10000; j++) {
 237              		.loc 1 51 9 is_stmt 1 discriminator 2
 238 0138 93861600 		addi	a3,a3,1
 239              	.LVL15:
 240              	.L22:
 241              		.loc 1 51 30 discriminator 1
 242 013c B7270000 		li	a5,8192
 243 0140 9387F770 		addi	a5,a5,1807
 244 0144 63EED700 		bgtu	a3,a5,.L19
 245              	.LBB5:
  52:src/workers.cpp ****             for (uint64 k = 0; k < 30000; k++) { /* busy wait */ }
 246              		.loc 1 52 25 is_stmt 0
 247 0148 13070000 		li	a4,0
 248              	.L21:
 249              	.LVL16:
 250              		.loc 1 52 34 is_stmt 1 discriminator 3
 251 014c B7770000 		li	a5,28672
 252 0150 9387F752 		addi	a5,a5,1327
 253 0154 E3E2E7FE 		bgtu	a4,a5,.L20
 254              		.loc 1 52 13 discriminator 2
 255 0158 13071700 		addi	a4,a4,1
 256              	.LVL17:
 257 015c 6FF01FFF 		j	.L21
 258              	.LVL18:
 259              	.L19:
 260              	.LBE5:
 261              	.LBE4:
 262              	.LBE3:
  49:src/workers.cpp ****     for (uint64 i = 0; i < 10; i++) {
 263              		.loc 1 49 5 discriminator 2
 264 0160 93841400 		addi	s1,s1,1
 265              	.LVL19:
 266              	.L23:
  49:src/workers.cpp ****     for (uint64 i = 0; i < 10; i++) {
 267              		.loc 1 49 26 discriminator 1
 268 0164 93079000 		li	a5,9
GAS LISTING /tmp/cc9ghjxq.s 			page 7


 269 0168 63EC9702 		bgtu	s1,a5,.L18
 270              	.LBB7:
  50:src/workers.cpp ****         pprintString("A: i="); printInteger(i); pprintString("\n");
 271              		.loc 1 50 9
  50:src/workers.cpp ****         pprintString("A: i="); printInteger(i); pprintString("\n");
 272              		.loc 1 50 21 is_stmt 0
 273 016c 17050000 		lla	a0,.LC1
 273      13050500 
 274 0174 97000000 		call	_Z12pprintStringPKc@plt
 274      E7800000 
 275              	.LVL20:
  50:src/workers.cpp ****         pprintString("A: i="); printInteger(i); pprintString("\n");
 276              		.loc 1 50 32 is_stmt 1
  50:src/workers.cpp ****         pprintString("A: i="); printInteger(i); pprintString("\n");
 277              		.loc 1 50 44 is_stmt 0
 278 017c 13850400 		mv	a0,s1
 279 0180 97000000 		call	_Z12printIntegerm@plt
 279      E7800000 
 280              	.LVL21:
  50:src/workers.cpp ****         pprintString("A: i="); printInteger(i); pprintString("\n");
 281              		.loc 1 50 49 is_stmt 1
  50:src/workers.cpp ****         pprintString("A: i="); printInteger(i); pprintString("\n");
 282              		.loc 1 50 61 is_stmt 0
 283 0188 17050000 		lla	a0,.LC2
 283      13050500 
 284 0190 97000000 		call	_Z12pprintStringPKc@plt
 284      E7800000 
 285              	.LVL22:
  51:src/workers.cpp ****             for (uint64 k = 0; k < 30000; k++) { /* busy wait */ }
 286              		.loc 1 51 9 is_stmt 1
 287              	.LBB6:
  51:src/workers.cpp ****             for (uint64 k = 0; k < 30000; k++) { /* busy wait */ }
 288              		.loc 1 51 21 is_stmt 0
 289 0198 93060000 		li	a3,0
 290 019c 6FF01FFA 		j	.L22
 291              	.LVL23:
 292              	.L18:
 293              	.LBE6:
 294              	.LBE7:
 295              	.LBE2:
  53:src/workers.cpp ****             // TCB::yield();
  54:src/workers.cpp ****         }
  55:src/workers.cpp ****     }
  56:src/workers.cpp ****     pprintString("A finished!\n");
 296              		.loc 1 56 5 is_stmt 1
 297              		.loc 1 56 17 is_stmt 0
 298 01a0 17050000 		lla	a0,.LC3
 298      13050500 
 299 01a8 97000000 		call	_Z12pprintStringPKc@plt
 299      E7800000 
 300              	.LVL24:
  57:src/workers.cpp ****     //semaphore->signal();
  58:src/workers.cpp **** 
  59:src/workers.cpp **** }
 301              		.loc 1 59 1
 302 01b0 83308101 		ld	ra,24(sp)
 303              		.cfi_restore 1
GAS LISTING /tmp/cc9ghjxq.s 			page 8


 304 01b4 03340101 		ld	s0,16(sp)
 305              		.cfi_restore 8
 306              		.cfi_def_cfa 2, 32
 307 01b8 83348100 		ld	s1,8(sp)
 308              		.cfi_restore 9
 309              	.LVL25:
 310 01bc 13010102 		addi	sp,sp,32
 311              		.cfi_def_cfa_offset 0
 312 01c0 67800000 		jr	ra
 313              		.cfi_endproc
 314              	.LFE31:
 316              		.section	.rodata.str1.8
 317 0025 000000   		.align	3
 318              	.LC4:
 319 0028 423A2069 		.string	"B: i="
 319      3D00
 320 002e 0000     		.align	3
 321              	.LC5:
 322 0030 42206669 		.string	"B finished!\n"
 322      6E697368 
 322      6564210A 
 322      00
 323              		.text
 324              		.align	2
 325              		.globl	_Z11workerBodyBv
 327              	_Z11workerBodyBv:
 328              	.LFB32:
  60:src/workers.cpp **** 
  61:src/workers.cpp **** void workerBodyB() {
 329              		.loc 1 61 20 is_stmt 1
 330              		.cfi_startproc
 331 01c4 130101FE 		addi	sp,sp,-32
 332              		.cfi_def_cfa_offset 32
 333 01c8 233C1100 		sd	ra,24(sp)
 334 01cc 23388100 		sd	s0,16(sp)
 335 01d0 23349100 		sd	s1,8(sp)
 336              		.cfi_offset 1, -8
 337              		.cfi_offset 8, -16
 338              		.cfi_offset 9, -24
 339 01d4 13040102 		addi	s0,sp,32
 340              		.cfi_def_cfa 8, 0
  62:src/workers.cpp ****     initSemaphore();
 341              		.loc 1 62 5
 342              		.loc 1 62 18 is_stmt 0
 343 01d8 97000000 		call	_Z13initSemaphorev
 343      E7800000 
 344              	.LVL26:
  63:src/workers.cpp ****     semaphore->wait();
 345              		.loc 1 63 5 is_stmt 1
 346              		.loc 1 63 20 is_stmt 0
 347 01e0 17050000 		ld	a0,.LANCHOR0
 347      03350500 
 348 01e8 97000000 		call	_ZN9Semaphore4waitEv@plt
 348      E7800000 
 349              	.LVL27:
  64:src/workers.cpp ****     // uint8 i = 10;
  65:src/workers.cpp ****     // for (; i < 13; i++) { pprintString("B: i="); printInteger(i); pprintString("\n"); }
GAS LISTING /tmp/cc9ghjxq.s 			page 9


  66:src/workers.cpp **** 
  67:src/workers.cpp ****     // pprintString("B: yield\n");
  68:src/workers.cpp ****     // __asm__ ("li t1, 5");
  69:src/workers.cpp ****     // thread_dispatch();
  70:src/workers.cpp **** 
  71:src/workers.cpp ****     // uint64 result = fibonacci(23);
  72:src/workers.cpp ****     // pprintString("B: fibonaci="); printInteger(result); pprintString("\n");
  73:src/workers.cpp **** 
  74:src/workers.cpp ****     //for (; i < 16; i++) { pprintString("B: i="); printInteger(i); pprintString("\n"); }
  75:src/workers.cpp ****     time_sleep(10);
 350              		.loc 1 75 5 is_stmt 1
 351              		.loc 1 75 15 is_stmt 0
 352 01f0 1305A000 		li	a0,10
 353 01f4 97000000 		call	_Z10time_sleepm@plt
 353      E7800000 
 354              	.LVL28:
  76:src/workers.cpp ****     for (uint64 i = 0; i < 16; i++) {
 355              		.loc 1 76 5 is_stmt 1
 356              	.LBB8:
 357              		.loc 1 76 17 is_stmt 0
 358 01fc 93040000 		li	s1,0
 359 0200 6F000003 		j	.L31
 360              	.LVL29:
 361              	.L28:
 362              	.LBB9:
 363              	.LBB10:
  77:src/workers.cpp ****         pprintString("B: i="); printInteger(i); pprintString("\n");
  78:src/workers.cpp ****         for (uint64 j = 0; j < 10000; j++) {
 364              		.loc 1 78 9 is_stmt 1 discriminator 2
 365 0204 93861600 		addi	a3,a3,1
 366              	.LVL30:
 367              	.L30:
 368              		.loc 1 78 30 discriminator 1
 369 0208 B7270000 		li	a5,8192
 370 020c 9387F770 		addi	a5,a5,1807
 371 0210 63EED700 		bgtu	a3,a5,.L27
 372              	.LBB11:
  79:src/workers.cpp ****             for (uint64 k = 0; k < 30000; k++) { /* busy wait */ }
 373              		.loc 1 79 25 is_stmt 0
 374 0214 13070000 		li	a4,0
 375              	.L29:
 376              	.LVL31:
 377              		.loc 1 79 34 is_stmt 1 discriminator 3
 378 0218 B7770000 		li	a5,28672
 379 021c 9387F752 		addi	a5,a5,1327
 380 0220 E3E2E7FE 		bgtu	a4,a5,.L28
 381              		.loc 1 79 13 discriminator 2
 382 0224 13071700 		addi	a4,a4,1
 383              	.LVL32:
 384 0228 6FF01FFF 		j	.L29
 385              	.LVL33:
 386              	.L27:
 387              	.LBE11:
 388              	.LBE10:
 389              	.LBE9:
  76:src/workers.cpp ****     for (uint64 i = 0; i < 16; i++) {
 390              		.loc 1 76 5 discriminator 2
GAS LISTING /tmp/cc9ghjxq.s 			page 10


 391 022c 93841400 		addi	s1,s1,1
 392              	.LVL34:
 393              	.L31:
  76:src/workers.cpp ****     for (uint64 i = 0; i < 16; i++) {
 394              		.loc 1 76 26 discriminator 1
 395 0230 9307F000 		li	a5,15
 396 0234 63EC9702 		bgtu	s1,a5,.L26
 397              	.LBB13:
  77:src/workers.cpp ****         pprintString("B: i="); printInteger(i); pprintString("\n");
 398              		.loc 1 77 9
  77:src/workers.cpp ****         pprintString("B: i="); printInteger(i); pprintString("\n");
 399              		.loc 1 77 21 is_stmt 0
 400 0238 17050000 		lla	a0,.LC4
 400      13050500 
 401 0240 97000000 		call	_Z12pprintStringPKc@plt
 401      E7800000 
 402              	.LVL35:
  77:src/workers.cpp ****         pprintString("B: i="); printInteger(i); pprintString("\n");
 403              		.loc 1 77 32 is_stmt 1
  77:src/workers.cpp ****         pprintString("B: i="); printInteger(i); pprintString("\n");
 404              		.loc 1 77 44 is_stmt 0
 405 0248 13850400 		mv	a0,s1
 406 024c 97000000 		call	_Z12printIntegerm@plt
 406      E7800000 
 407              	.LVL36:
  77:src/workers.cpp ****         pprintString("B: i="); printInteger(i); pprintString("\n");
 408              		.loc 1 77 49 is_stmt 1
  77:src/workers.cpp ****         pprintString("B: i="); printInteger(i); pprintString("\n");
 409              		.loc 1 77 61 is_stmt 0
 410 0254 17050000 		lla	a0,.LC2
 410      13050500 
 411 025c 97000000 		call	_Z12pprintStringPKc@plt
 411      E7800000 
 412              	.LVL37:
  78:src/workers.cpp ****             for (uint64 k = 0; k < 30000; k++) { /* busy wait */ }
 413              		.loc 1 78 9 is_stmt 1
 414              	.LBB12:
  78:src/workers.cpp ****             for (uint64 k = 0; k < 30000; k++) { /* busy wait */ }
 415              		.loc 1 78 21 is_stmt 0
 416 0264 93060000 		li	a3,0
 417 0268 6FF01FFA 		j	.L30
 418              	.LVL38:
 419              	.L26:
 420              	.LBE12:
 421              	.LBE13:
 422              	.LBE8:
  80:src/workers.cpp ****             // TCB::yield();
  81:src/workers.cpp ****         }
  82:src/workers.cpp ****     }
  83:src/workers.cpp ****     pprintString("B finished!\n");
 423              		.loc 1 83 5 is_stmt 1
 424              		.loc 1 83 17 is_stmt 0
 425 026c 17050000 		lla	a0,.LC5
 425      13050500 
 426 0274 97000000 		call	_Z12pprintStringPKc@plt
 426      E7800000 
 427              	.LVL39:
GAS LISTING /tmp/cc9ghjxq.s 			page 11


  84:src/workers.cpp ****     semaphore->signal();
 428              		.loc 1 84 5 is_stmt 1
 429              		.loc 1 84 22 is_stmt 0
 430 027c 17050000 		ld	a0,.LANCHOR0
 430      03350500 
 431 0284 97000000 		call	_ZN9Semaphore6signalEv@plt
 431      E7800000 
 432              	.LVL40:
  85:src/workers.cpp **** }
 433              		.loc 1 85 1
 434 028c 83308101 		ld	ra,24(sp)
 435              		.cfi_restore 1
 436 0290 03340101 		ld	s0,16(sp)
 437              		.cfi_restore 8
 438              		.cfi_def_cfa 2, 32
 439 0294 83348100 		ld	s1,8(sp)
 440              		.cfi_restore 9
 441              	.LVL41:
 442 0298 13010102 		addi	sp,sp,32
 443              		.cfi_def_cfa_offset 0
 444 029c 67800000 		jr	ra
 445              		.cfi_endproc
 446              	.LFE32:
 448              		.section	.rodata.str1.8
 449 003d 000000   		.align	3
 450              	.LC6:
 451 0040 433A2069 		.string	"C: i="
 451      3D00
 452 0046 0000     		.align	3
 453              	.LC7:
 454 0048 43206669 		.string	"C finished!\n"
 454      6E697368 
 454      6564210A 
 454      00
 455              		.text
 456              		.align	2
 457              		.globl	_Z11workerBodyCv
 459              	_Z11workerBodyCv:
 460              	.LFB33:
  86:src/workers.cpp **** 
  87:src/workers.cpp **** void workerBodyC() {
 461              		.loc 1 87 20 is_stmt 1
 462              		.cfi_startproc
 463 02a0 130101FE 		addi	sp,sp,-32
 464              		.cfi_def_cfa_offset 32
 465 02a4 233C1100 		sd	ra,24(sp)
 466 02a8 23388100 		sd	s0,16(sp)
 467 02ac 23349100 		sd	s1,8(sp)
 468              		.cfi_offset 1, -8
 469              		.cfi_offset 8, -16
 470              		.cfi_offset 9, -24
 471 02b0 13040102 		addi	s0,sp,32
 472              		.cfi_def_cfa 8, 0
  88:src/workers.cpp ****     initSemaphore();
 473              		.loc 1 88 5
 474              		.loc 1 88 18 is_stmt 0
 475 02b4 97000000 		call	_Z13initSemaphorev
GAS LISTING /tmp/cc9ghjxq.s 			page 12


 475      E7800000 
 476              	.LVL42:
  89:src/workers.cpp ****     semaphore->wait();
 477              		.loc 1 89 5 is_stmt 1
 478              		.loc 1 89 20 is_stmt 0
 479 02bc 17050000 		ld	a0,.LANCHOR0
 479      03350500 
 480 02c4 97000000 		call	_ZN9Semaphore4waitEv@plt
 480      E7800000 
 481              	.LVL43:
  90:src/workers.cpp ****     time_sleep(8);
 482              		.loc 1 90 5 is_stmt 1
 483              		.loc 1 90 15 is_stmt 0
 484 02cc 13058000 		li	a0,8
 485 02d0 97000000 		call	_Z10time_sleepm@plt
 485      E7800000 
 486              	.LVL44:
  91:src/workers.cpp ****     for (uint64 i = 0; i < 5; i++) {
 487              		.loc 1 91 5 is_stmt 1
 488              	.LBB14:
 489              		.loc 1 91 17 is_stmt 0
 490 02d8 93040000 		li	s1,0
 491 02dc 6F000003 		j	.L39
 492              	.LVL45:
 493              	.L36:
 494              	.LBB15:
 495              	.LBB16:
  92:src/workers.cpp ****         pprintString("C: i="); printInteger(i); pprintString("\n");
  93:src/workers.cpp ****         for (uint64 j = 0; j < 10000; j++) {
 496              		.loc 1 93 9 is_stmt 1 discriminator 2
 497 02e0 93861600 		addi	a3,a3,1
 498              	.LVL46:
 499              	.L38:
 500              		.loc 1 93 30 discriminator 1
 501 02e4 B7270000 		li	a5,8192
 502 02e8 9387F770 		addi	a5,a5,1807
 503 02ec 63EED700 		bgtu	a3,a5,.L35
 504              	.LBB17:
  94:src/workers.cpp ****             for (uint64 k = 0; k < 30000; k++) { /* busy wait */ }
 505              		.loc 1 94 25 is_stmt 0
 506 02f0 13070000 		li	a4,0
 507              	.L37:
 508              	.LVL47:
 509              		.loc 1 94 34 is_stmt 1 discriminator 3
 510 02f4 B7770000 		li	a5,28672
 511 02f8 9387F752 		addi	a5,a5,1327
 512 02fc E3E2E7FE 		bgtu	a4,a5,.L36
 513              		.loc 1 94 13 discriminator 2
 514 0300 13071700 		addi	a4,a4,1
 515              	.LVL48:
 516 0304 6FF01FFF 		j	.L37
 517              	.LVL49:
 518              	.L35:
 519              	.LBE17:
 520              	.LBE16:
 521              	.LBE15:
  91:src/workers.cpp ****     for (uint64 i = 0; i < 5; i++) {
GAS LISTING /tmp/cc9ghjxq.s 			page 13


 522              		.loc 1 91 5 discriminator 2
 523 0308 93841400 		addi	s1,s1,1
 524              	.LVL50:
 525              	.L39:
  91:src/workers.cpp ****     for (uint64 i = 0; i < 5; i++) {
 526              		.loc 1 91 26 discriminator 1
 527 030c 93074000 		li	a5,4
 528 0310 63EC9702 		bgtu	s1,a5,.L34
 529              	.LBB19:
  92:src/workers.cpp ****         pprintString("C: i="); printInteger(i); pprintString("\n");
 530              		.loc 1 92 9
  92:src/workers.cpp ****         pprintString("C: i="); printInteger(i); pprintString("\n");
 531              		.loc 1 92 21 is_stmt 0
 532 0314 17050000 		lla	a0,.LC6
 532      13050500 
 533 031c 97000000 		call	_Z12pprintStringPKc@plt
 533      E7800000 
 534              	.LVL51:
  92:src/workers.cpp ****         pprintString("C: i="); printInteger(i); pprintString("\n");
 535              		.loc 1 92 32 is_stmt 1
  92:src/workers.cpp ****         pprintString("C: i="); printInteger(i); pprintString("\n");
 536              		.loc 1 92 44 is_stmt 0
 537 0324 13850400 		mv	a0,s1
 538 0328 97000000 		call	_Z12printIntegerm@plt
 538      E7800000 
 539              	.LVL52:
  92:src/workers.cpp ****         pprintString("C: i="); printInteger(i); pprintString("\n");
 540              		.loc 1 92 49 is_stmt 1
  92:src/workers.cpp ****         pprintString("C: i="); printInteger(i); pprintString("\n");
 541              		.loc 1 92 61 is_stmt 0
 542 0330 17050000 		lla	a0,.LC2
 542      13050500 
 543 0338 97000000 		call	_Z12pprintStringPKc@plt
 543      E7800000 
 544              	.LVL53:
  93:src/workers.cpp ****             for (uint64 k = 0; k < 30000; k++) { /* busy wait */ }
 545              		.loc 1 93 9 is_stmt 1
 546              	.LBB18:
  93:src/workers.cpp ****             for (uint64 k = 0; k < 30000; k++) { /* busy wait */ }
 547              		.loc 1 93 21 is_stmt 0
 548 0340 93060000 		li	a3,0
 549 0344 6FF01FFA 		j	.L38
 550              	.LVL54:
 551              	.L34:
 552              	.LBE18:
 553              	.LBE19:
 554              	.LBE14:
  95:src/workers.cpp ****             // TCB::yield();
  96:src/workers.cpp ****         }
  97:src/workers.cpp ****     }
  98:src/workers.cpp ****     pprintString("C finished!\n");
 555              		.loc 1 98 5 is_stmt 1
 556              		.loc 1 98 17 is_stmt 0
 557 0348 17050000 		lla	a0,.LC7
 557      13050500 
 558 0350 97000000 		call	_Z12pprintStringPKc@plt
 558      E7800000 
GAS LISTING /tmp/cc9ghjxq.s 			page 14


 559              	.LVL55:
  99:src/workers.cpp ****     // uint8 i = 20;
 100:src/workers.cpp ****     // for (; i < 28; i++) {
 101:src/workers.cpp ****     //     pprintString("C: i="); printInteger(i); pprintString("\n");
 102:src/workers.cpp ****     //     for (uint64 j = 0; j < 10000; j++) {
 103:src/workers.cpp ****     //         for (uint64 k = 0; k < 30000; k++) { /* busy wait */ }
 104:src/workers.cpp ****     //         // TCB::yield();
 105:src/workers.cpp ****     //     }
 106:src/workers.cpp ****     // }
 107:src/workers.cpp ****     //
 108:src/workers.cpp ****     // pprintString("C: yield\n");
 109:src/workers.cpp ****     // __asm__ ("li t1, 9");
 110:src/workers.cpp ****     // thread_dispatch();
 111:src/workers.cpp ****     //
 112:src/workers.cpp ****     // uint64 result = fibonacci(35);
 113:src/workers.cpp ****     // pprintString("C: fibonaci="); printInteger(result); pprintString("\n");
 114:src/workers.cpp ****     //
 115:src/workers.cpp ****     // for (; i < 26; i++) { pprintString("C: i="); printInteger(i); pprintString("\n"); }
 116:src/workers.cpp ****     // pprintString("C finished!\n");
 117:src/workers.cpp ****     semaphore->signal();
 560              		.loc 1 117 5 is_stmt 1
 561              		.loc 1 117 22 is_stmt 0
 562 0358 17050000 		ld	a0,.LANCHOR0
 562      03350500 
 563 0360 97000000 		call	_ZN9Semaphore6signalEv@plt
 563      E7800000 
 564              	.LVL56:
 118:src/workers.cpp **** }
 565              		.loc 1 118 1
 566 0368 83308101 		ld	ra,24(sp)
 567              		.cfi_restore 1
 568 036c 03340101 		ld	s0,16(sp)
 569              		.cfi_restore 8
 570              		.cfi_def_cfa 2, 32
 571 0370 83348100 		ld	s1,8(sp)
 572              		.cfi_restore 9
 573              	.LVL57:
 574 0374 13010102 		addi	sp,sp,32
 575              		.cfi_def_cfa_offset 0
 576 0378 67800000 		jr	ra
 577              		.cfi_endproc
 578              	.LFE33:
 580              		.section	.rodata.str1.8
 581 0055 000000   		.align	3
 582              	.LC8:
 583 0058 54752073 		.string	"Tu sam\n"
 583      616D0A00 
 584              		.text
 585              		.align	2
 586              		.globl	_ZN7WorkerP11workerBodyPEPv
 588              	_ZN7WorkerP11workerBodyPEPv:
 589              	.LFB34:
 119:src/workers.cpp **** 
 120:src/workers.cpp **** 
 121:src/workers.cpp **** 
 122:src/workers.cpp **** 
 123:src/workers.cpp **** void WorkerP::workerBodyP(void* arg) {
GAS LISTING /tmp/cc9ghjxq.s 			page 15


 590              		.loc 1 123 38 is_stmt 1
 591              		.cfi_startproc
 592              	.LVL58:
 593 037c 130101FE 		addi	sp,sp,-32
 594              		.cfi_def_cfa_offset 32
 595 0380 233C1100 		sd	ra,24(sp)
 596 0384 23388100 		sd	s0,16(sp)
 597 0388 23349100 		sd	s1,8(sp)
 598              		.cfi_offset 1, -8
 599              		.cfi_offset 8, -16
 600              		.cfi_offset 9, -24
 601 038c 13040102 		addi	s0,sp,32
 602              		.cfi_def_cfa 8, 0
 603 0390 93040500 		mv	s1,a0
 124:src/workers.cpp ****     static int da=0;
 604              		.loc 1 124 5
 125:src/workers.cpp ****     pprintString("Tu sam\n");
 605              		.loc 1 125 5
 606              		.loc 1 125 17 is_stmt 0
 607 0394 17050000 		lla	a0,.LC8
 607      13050500 
 608              	.LVL59:
 609 039c 97000000 		call	_Z12pprintStringPKc@plt
 609      E7800000 
 610              	.LVL60:
 126:src/workers.cpp ****     da++;
 611              		.loc 1 126 5 is_stmt 1
 612              		.loc 1 126 7 is_stmt 0
 613 03a4 17070000 		lla	a4,.LANCHOR0
 613      13070700 
 614 03ac 83278700 		lw	a5,8(a4)
 615 03b0 9B871700 		addiw	a5,a5,1
 616 03b4 9B860700 		sext.w	a3,a5
 617 03b8 2324F700 		sw	a5,8(a4)
 127:src/workers.cpp ****     if (da==4) {
 618              		.loc 1 127 5 is_stmt 1
 619 03bc 93074000 		li	a5,4
 620 03c0 638CF600 		beq	a3,a5,.L44
 621              	.L41:
 128:src/workers.cpp ****         terminate();
 129:src/workers.cpp ****     }
 130:src/workers.cpp **** 
 131:src/workers.cpp **** }
 622              		.loc 1 131 1 is_stmt 0
 623 03c4 83308101 		ld	ra,24(sp)
 624              		.cfi_remember_state
 625              		.cfi_restore 1
 626 03c8 03340101 		ld	s0,16(sp)
 627              		.cfi_restore 8
 628              		.cfi_def_cfa 2, 32
 629 03cc 83348100 		ld	s1,8(sp)
 630              		.cfi_restore 9
 631              	.LVL61:
 632 03d0 13010102 		addi	sp,sp,32
 633              		.cfi_def_cfa_offset 0
 634 03d4 67800000 		jr	ra
 635              	.LVL62:
GAS LISTING /tmp/cc9ghjxq.s 			page 16


 636              	.L44:
 637              		.cfi_restore_state
 128:src/workers.cpp ****         terminate();
 638              		.loc 1 128 9 is_stmt 1
 128:src/workers.cpp ****         terminate();
 639              		.loc 1 128 18 is_stmt 0
 640 03d8 13850400 		mv	a0,s1
 641 03dc 97000000 		call	_ZN14PeriodicThread9terminateEv@plt
 641      E7800000 
 642              	.LVL63:
 643              		.loc 1 131 1
 644 03e4 6FF01FFE 		j	.L41
 645              		.cfi_endproc
 646              	.LFE34:
 648              		.globl	semaphore
 649              		.bss
 650              		.align	3
 651              		.set	.LANCHOR0,. + 0
 654              	semaphore:
 655 0000 00000000 		.zero	8
 655      00000000 
 658              	_ZZN7WorkerP11workerBodyPEPvE2da:
 659 0008 00000000 		.zero	4
 660              		.text
 661              	.Letext0:
 662              		.file 2 "src/../h/../lib/hw.h"
 663              		.file 3 "src/../h/../h/syscall_cpp.hpp"
 664              		.file 4 "src/../h/syscall_c.hpp"
 665              		.file 5 "src/../h/print.hpp"
 666              		.file 6 "src/../h/workers.hpp"
 2380              		.align	3
 2383              	DW.ref.__gxx_personality_v0:
 2384 0000 00000000 		.dword	__gxx_personality_v0
 2384      00000000 
 2385              		.ident	"GCC: (Ubuntu 9.4.0-1ubuntu1~20.04) 9.4.0"
 2386              		.section	.note.GNU-stack,"",@progbits
GAS LISTING /tmp/cc9ghjxq.s 			page 17

