GAS LISTING /tmp/cccTagjj.s 			page 1


   1              		.file	"System_Mode_test.cpp"
   2              		.option pic
   3              		.option norelax
   4              		.text
   5              	.Ltext0:
   6              		.align	2
   8              	_ZL9fibonaccim:
   9              	.LFB19:
  10              		.file 1 "Test/System_Mode_test.cpp"
   1:Test/System_Mode_test.cpp **** 
   2:Test/System_Mode_test.cpp **** #include "../h/syscall_c.hpp"
   3:Test/System_Mode_test.cpp **** 
   4:Test/System_Mode_test.cpp **** #include "../h/print.hpp"
   5:Test/System_Mode_test.cpp **** 
   6:Test/System_Mode_test.cpp **** static volatile bool finishedA = false;
   7:Test/System_Mode_test.cpp **** static volatile bool finishedB = false;
   8:Test/System_Mode_test.cpp **** static volatile bool finishedC = false;
   9:Test/System_Mode_test.cpp **** static volatile bool finishedD = false;
  10:Test/System_Mode_test.cpp **** 
  11:Test/System_Mode_test.cpp **** static uint64 fibonacci(uint64 n) {
  11              		.loc 1 11 35
  12              		.cfi_startproc
  13              	.LVL0:
  14 0000 130101FE 		addi	sp,sp,-32
  15              		.cfi_def_cfa_offset 32
  16 0004 233C1100 		sd	ra,24(sp)
  17 0008 23388100 		sd	s0,16(sp)
  18 000c 23349100 		sd	s1,8(sp)
  19 0010 23302101 		sd	s2,0(sp)
  20              		.cfi_offset 1, -8
  21              		.cfi_offset 8, -16
  22              		.cfi_offset 9, -24
  23              		.cfi_offset 18, -32
  24 0014 13040102 		addi	s0,sp,32
  25              		.cfi_def_cfa 8, 0
  26 0018 93040500 		mv	s1,a0
  12:Test/System_Mode_test.cpp ****     if (n == 0 || n == 1) { return n; }
  27              		.loc 1 12 5
  28 001c 93071000 		li	a5,1
  29 0020 63F8A702 		bleu	a0,a5,.L1
  13:Test/System_Mode_test.cpp ****     if (n % 10 == 0) { thread_dispatch(); }
  30              		.loc 1 13 5
  31              		.loc 1 13 11 is_stmt 0
  32 0024 9307A000 		li	a5,10
  33 0028 B377F502 		remu	a5,a0,a5
  34              		.loc 1 13 5
  35 002c 638E0702 		beqz	a5,.L6
  36              	.LVL1:
  37              	.L3:
  14:Test/System_Mode_test.cpp ****     return fibonacci(n - 1) + fibonacci(n - 2);
  38              		.loc 1 14 5 is_stmt 1
  39              		.loc 1 14 21 is_stmt 0
  40 0030 1385F4FF 		addi	a0,s1,-1
  41 0034 97000000 		call	_ZL9fibonaccim
  41      E7800000 
  42              	.LVL2:
  43 003c 13090500 		mv	s2,a0
GAS LISTING /tmp/cccTagjj.s 			page 2


  44              		.loc 1 14 40
  45 0040 1385E4FF 		addi	a0,s1,-2
  46 0044 97000000 		call	_ZL9fibonaccim
  46      E7800000 
  47              	.LVL3:
  48              		.loc 1 14 46
  49 004c 3305A900 		add	a0,s2,a0
  50              	.L1:
  15:Test/System_Mode_test.cpp **** }
  51              		.loc 1 15 1
  52 0050 83308101 		ld	ra,24(sp)
  53              		.cfi_remember_state
  54              		.cfi_restore 1
  55 0054 03340101 		ld	s0,16(sp)
  56              		.cfi_restore 8
  57              		.cfi_def_cfa 2, 32
  58 0058 83348100 		ld	s1,8(sp)
  59              		.cfi_restore 9
  60              	.LVL4:
  61 005c 03390100 		ld	s2,0(sp)
  62              		.cfi_restore 18
  63 0060 13010102 		addi	sp,sp,32
  64              		.cfi_def_cfa_offset 0
  65 0064 67800000 		jr	ra
  66              	.LVL5:
  67              	.L6:
  68              		.cfi_restore_state
  13:Test/System_Mode_test.cpp ****     if (n % 10 == 0) { thread_dispatch(); }
  69              		.loc 1 13 24 is_stmt 1 discriminator 1
  13:Test/System_Mode_test.cpp ****     if (n % 10 == 0) { thread_dispatch(); }
  70              		.loc 1 13 39 is_stmt 0 discriminator 1
  71 0068 97000000 		call	_Z15thread_dispatchv@plt
  71      E7800000 
  72              	.LVL6:
  73 0070 6FF01FFC 		j	.L3
  74              		.cfi_endproc
  75              	.LFE19:
  77              		.section	.rodata.str1.8,"aMS",@progbits,1
  78              		.align	3
  79              	.LC0:
  80 0000 443A2069 		.string	"D: i="
  80      3D00
  81 0006 0000     		.align	3
  82              	.LC1:
  83 0008 0A00     		.string	"\n"
  84 000a 00000000 		.align	3
  84      0000
  85              	.LC2:
  86 0010 443A2064 		.string	"D: dispatch\n"
  86      69737061 
  86      7463680A 
  86      00
  87 001d 000000   		.align	3
  88              	.LC3:
  89 0020 443A2066 		.string	"D: fibonaci="
  89      69626F6E 
  89      6163693D 
GAS LISTING /tmp/cccTagjj.s 			page 3


  89      00
  90 002d 000000   		.align	3
  91              	.LC4:
  92 0030 44206669 		.string	"D finished!\n"
  92      6E697368 
  92      6564210A 
  92      00
  93              		.text
  94              		.align	2
  96              	_ZL11workerBodyDPv:
  97              	.LFB23:
  16:Test/System_Mode_test.cpp **** 
  17:Test/System_Mode_test.cpp **** static void workerBodyA(void* arg) {
  18:Test/System_Mode_test.cpp ****     for (uint64 i = 0; i < 10; i++) {
  19:Test/System_Mode_test.cpp ****         pprintString("A: i="); printInteger(i); pprintString("\n");
  20:Test/System_Mode_test.cpp ****         for (uint64 j = 0; j < 10000; j++) {
  21:Test/System_Mode_test.cpp ****             for (uint64 k = 0; k < 30000; k++) { /* busy wait */ }
  22:Test/System_Mode_test.cpp ****             thread_dispatch();
  23:Test/System_Mode_test.cpp ****         }
  24:Test/System_Mode_test.cpp ****     }
  25:Test/System_Mode_test.cpp ****     pprintString("A finished!\n");
  26:Test/System_Mode_test.cpp ****     finishedA = true;
  27:Test/System_Mode_test.cpp **** }
  28:Test/System_Mode_test.cpp **** 
  29:Test/System_Mode_test.cpp **** static void workerBodyB(void* arg) {
  30:Test/System_Mode_test.cpp ****     for (uint64 i = 0; i < 16; i++) {
  31:Test/System_Mode_test.cpp ****         pprintString("B: i="); printInteger(i); pprintString("\n");
  32:Test/System_Mode_test.cpp ****         for (uint64 j = 0; j < 10000; j++) {
  33:Test/System_Mode_test.cpp ****             for (uint64 k = 0; k < 30000; k++) { /* busy wait */ }
  34:Test/System_Mode_test.cpp ****             thread_dispatch();
  35:Test/System_Mode_test.cpp ****         }
  36:Test/System_Mode_test.cpp ****         if (i == 10) {
  37:Test/System_Mode_test.cpp ****             asm volatile("csrr t6, sepc");
  38:Test/System_Mode_test.cpp ****         }
  39:Test/System_Mode_test.cpp ****     }
  40:Test/System_Mode_test.cpp ****     pprintString("B finished!\n");
  41:Test/System_Mode_test.cpp ****     finishedB = true;
  42:Test/System_Mode_test.cpp ****     thread_dispatch();
  43:Test/System_Mode_test.cpp **** }
  44:Test/System_Mode_test.cpp **** 
  45:Test/System_Mode_test.cpp **** static void workerBodyC(void* arg) {
  46:Test/System_Mode_test.cpp ****     uint8 i = 0;
  47:Test/System_Mode_test.cpp ****     for (; i < 3; i++) {
  48:Test/System_Mode_test.cpp ****         pprintString("C: i="); printInteger(i); pprintString("\n");
  49:Test/System_Mode_test.cpp ****     }
  50:Test/System_Mode_test.cpp **** 
  51:Test/System_Mode_test.cpp ****     pprintString("C: dispatch\n");
  52:Test/System_Mode_test.cpp ****     __asm__ ("li t1, 7");
  53:Test/System_Mode_test.cpp ****     thread_dispatch();
  54:Test/System_Mode_test.cpp **** 
  55:Test/System_Mode_test.cpp ****     uint64 t1 = 0;
  56:Test/System_Mode_test.cpp ****     __asm__ ("mv %[t1], t1" : [t1] "=r"(t1));
  57:Test/System_Mode_test.cpp **** 
  58:Test/System_Mode_test.cpp ****     pprintString("C: t1="); printInteger(t1); pprintString("\n");
  59:Test/System_Mode_test.cpp **** 
  60:Test/System_Mode_test.cpp ****     uint64 result = fibonacci(12);
  61:Test/System_Mode_test.cpp ****     pprintString("C: fibonaci="); printInteger(result); pprintString("\n");
GAS LISTING /tmp/cccTagjj.s 			page 4


  62:Test/System_Mode_test.cpp **** 
  63:Test/System_Mode_test.cpp ****     for (; i < 6; i++) {
  64:Test/System_Mode_test.cpp ****         pprintString("C: i="); printInteger(i); pprintString("\n");
  65:Test/System_Mode_test.cpp ****     }
  66:Test/System_Mode_test.cpp **** 
  67:Test/System_Mode_test.cpp ****     pprintString("C finished!\n");
  68:Test/System_Mode_test.cpp ****     finishedC = true;
  69:Test/System_Mode_test.cpp ****     thread_dispatch();
  70:Test/System_Mode_test.cpp **** }
  71:Test/System_Mode_test.cpp **** 
  72:Test/System_Mode_test.cpp **** static void workerBodyD(void* arg) {
  98              		.loc 1 72 36 is_stmt 1
  99              		.cfi_startproc
 100              	.LVL7:
 101 0074 130101FE 		addi	sp,sp,-32
 102              		.cfi_def_cfa_offset 32
 103 0078 233C1100 		sd	ra,24(sp)
 104 007c 23388100 		sd	s0,16(sp)
 105 0080 23349100 		sd	s1,8(sp)
 106 0084 23302101 		sd	s2,0(sp)
 107              		.cfi_offset 1, -8
 108              		.cfi_offset 8, -16
 109              		.cfi_offset 9, -24
 110              		.cfi_offset 18, -32
 111 0088 13040102 		addi	s0,sp,32
 112              		.cfi_def_cfa 8, 0
  73:Test/System_Mode_test.cpp ****     uint8 i = 10;
 113              		.loc 1 73 5
 114              	.LVL8:
 115              		.loc 1 73 11 is_stmt 0
 116 008c 9304A000 		li	s1,10
 117 0090 6F008003 		j	.L9
 118              	.LVL9:
 119              	.L13:
  74:Test/System_Mode_test.cpp ****     for (; i < 13; i++) {
  75:Test/System_Mode_test.cpp ****         pprintString("D: i="); printInteger(i); pprintString("\n");
 120              		.loc 1 75 9 is_stmt 1 discriminator 1
 121              		.loc 1 75 21 is_stmt 0 discriminator 1
 122 0094 17050000 		lla	a0,.LC0
 122      13050500 
 123 009c 97000000 		call	_Z12pprintStringPKc@plt
 123      E7800000 
 124              	.LVL10:
 125              		.loc 1 75 32 is_stmt 1 discriminator 1
 126              		.loc 1 75 44 is_stmt 0 discriminator 1
 127 00a4 13850400 		mv	a0,s1
 128 00a8 97000000 		call	_Z12printIntegerm@plt
 128      E7800000 
 129              	.LVL11:
 130              		.loc 1 75 49 is_stmt 1 discriminator 1
 131              		.loc 1 75 61 is_stmt 0 discriminator 1
 132 00b0 17050000 		lla	a0,.LC1
 132      13050500 
 133 00b8 97000000 		call	_Z12pprintStringPKc@plt
 133      E7800000 
 134              	.LVL12:
  74:Test/System_Mode_test.cpp ****     for (; i < 13; i++) {
GAS LISTING /tmp/cccTagjj.s 			page 5


 135              		.loc 1 74 5 is_stmt 1 discriminator 1
 136 00c0 9B841400 		addiw	s1,s1,1
 137              	.LVL13:
 138 00c4 93F4F40F 		andi	s1,s1,0xff
 139              	.LVL14:
 140              	.L9:
  74:Test/System_Mode_test.cpp ****     for (; i < 13; i++) {
 141              		.loc 1 74 5 discriminator 2
  74:Test/System_Mode_test.cpp ****     for (; i < 13; i++) {
 142              		.loc 1 74 14 discriminator 2
 143 00c8 9307C000 		li	a5,12
 144 00cc E3F497FC 		bleu	s1,a5,.L13
  76:Test/System_Mode_test.cpp ****     }
  77:Test/System_Mode_test.cpp **** 
  78:Test/System_Mode_test.cpp ****     pprintString("D: dispatch\n");
 145              		.loc 1 78 5
 146              		.loc 1 78 17 is_stmt 0
 147 00d0 17050000 		lla	a0,.LC2
 147      13050500 
 148 00d8 97000000 		call	_Z12pprintStringPKc@plt
 148      E7800000 
 149              	.LVL15:
  79:Test/System_Mode_test.cpp ****     __asm__ ("li t1, 5");
 150              		.loc 1 79 5 is_stmt 1
 151              		.loc 1 79 25 is_stmt 0
 152              	#APP
 153              	# 79 "Test/System_Mode_test.cpp" 1
  80              	    thread_dispatch();
 154              		li t1, 5
 155              	# 0 "" 2
 156              		.loc 1 80 5 is_stmt 1
 157              		.loc 1 80 20 is_stmt 0
 158              	#NO_APP
 159 00e4 97000000 		call	_Z15thread_dispatchv@plt
 159      E7800000 
 160              	.LVL16:
  81:Test/System_Mode_test.cpp **** 
  82:Test/System_Mode_test.cpp ****     uint64 result = fibonacci(16);
 161              		.loc 1 82 5 is_stmt 1
 162              		.loc 1 82 30 is_stmt 0
 163 00ec 13050001 		li	a0,16
 164 00f0 97000000 		call	_ZL9fibonaccim
 164      E7800000 
 165              	.LVL17:
 166 00f8 13090500 		mv	s2,a0
 167              	.LVL18:
  83:Test/System_Mode_test.cpp ****     pprintString("D: fibonaci="); printInteger(result); pprintString("\n");
 168              		.loc 1 83 5 is_stmt 1
 169              		.loc 1 83 17 is_stmt 0
 170 00fc 17050000 		lla	a0,.LC3
 170      13050500 
 171              	.LVL19:
 172 0104 97000000 		call	_Z12pprintStringPKc@plt
 172      E7800000 
 173              	.LVL20:
 174              		.loc 1 83 35 is_stmt 1
 175              		.loc 1 83 47 is_stmt 0
GAS LISTING /tmp/cccTagjj.s 			page 6


 176 010c 13050900 		mv	a0,s2
 177 0110 97000000 		call	_Z12printIntegerm@plt
 177      E7800000 
 178              	.LVL21:
 179              		.loc 1 83 57 is_stmt 1
 180              		.loc 1 83 69 is_stmt 0
 181 0118 17050000 		lla	a0,.LC1
 181      13050500 
 182 0120 97000000 		call	_Z12pprintStringPKc@plt
 182      E7800000 
 183              	.LVL22:
 184 0128 6F008003 		j	.L11
 185              	.L14:
  84:Test/System_Mode_test.cpp **** 
  85:Test/System_Mode_test.cpp ****     for (; i < 16; i++) {
  86:Test/System_Mode_test.cpp ****         pprintString("D: i="); printInteger(i); pprintString("\n");
 186              		.loc 1 86 9 is_stmt 1 discriminator 1
 187              		.loc 1 86 21 is_stmt 0 discriminator 1
 188 012c 17050000 		lla	a0,.LC0
 188      13050500 
 189 0134 97000000 		call	_Z12pprintStringPKc@plt
 189      E7800000 
 190              	.LVL23:
 191              		.loc 1 86 32 is_stmt 1 discriminator 1
 192              		.loc 1 86 44 is_stmt 0 discriminator 1
 193 013c 13850400 		mv	a0,s1
 194 0140 97000000 		call	_Z12printIntegerm@plt
 194      E7800000 
 195              	.LVL24:
 196              		.loc 1 86 49 is_stmt 1 discriminator 1
 197              		.loc 1 86 61 is_stmt 0 discriminator 1
 198 0148 17050000 		lla	a0,.LC1
 198      13050500 
 199 0150 97000000 		call	_Z12pprintStringPKc@plt
 199      E7800000 
 200              	.LVL25:
  85:Test/System_Mode_test.cpp ****         pprintString("D: i="); printInteger(i); pprintString("\n");
 201              		.loc 1 85 5 is_stmt 1 discriminator 1
 202 0158 9B841400 		addiw	s1,s1,1
 203              	.LVL26:
 204 015c 93F4F40F 		andi	s1,s1,0xff
 205              	.LVL27:
 206              	.L11:
  85:Test/System_Mode_test.cpp ****         pprintString("D: i="); printInteger(i); pprintString("\n");
 207              		.loc 1 85 5 discriminator 2
  85:Test/System_Mode_test.cpp ****         pprintString("D: i="); printInteger(i); pprintString("\n");
 208              		.loc 1 85 14 discriminator 2
 209 0160 9307F000 		li	a5,15
 210 0164 E3F497FC 		bleu	s1,a5,.L14
  87:Test/System_Mode_test.cpp ****     }
  88:Test/System_Mode_test.cpp **** 
  89:Test/System_Mode_test.cpp ****     pprintString("D finished!\n");
 211              		.loc 1 89 5
 212              		.loc 1 89 17 is_stmt 0
 213 0168 17050000 		lla	a0,.LC4
 213      13050500 
 214 0170 97000000 		call	_Z12pprintStringPKc@plt
GAS LISTING /tmp/cccTagjj.s 			page 7


 214      E7800000 
 215              	.LVL28:
  90:Test/System_Mode_test.cpp ****     finishedD = true;
 216              		.loc 1 90 5 is_stmt 1
 217              		.loc 1 90 15 is_stmt 0
 218 0178 93071000 		li	a5,1
 219 017c 17070000 		sb	a5,.LANCHOR0,a4
 219      2300F700 
  91:Test/System_Mode_test.cpp ****     thread_dispatch();
 220              		.loc 1 91 5 is_stmt 1
 221              		.loc 1 91 20 is_stmt 0
 222 0184 97000000 		call	_Z15thread_dispatchv@plt
 222      E7800000 
 223              	.LVL29:
  92:Test/System_Mode_test.cpp **** }
 224              		.loc 1 92 1
 225 018c 83308101 		ld	ra,24(sp)
 226              		.cfi_restore 1
 227 0190 03340101 		ld	s0,16(sp)
 228              		.cfi_restore 8
 229              		.cfi_def_cfa 2, 32
 230 0194 83348100 		ld	s1,8(sp)
 231              		.cfi_restore 9
 232              	.LVL30:
 233 0198 03390100 		ld	s2,0(sp)
 234              		.cfi_restore 18
 235              	.LVL31:
 236 019c 13010102 		addi	sp,sp,32
 237              		.cfi_def_cfa_offset 0
 238 01a0 67800000 		jr	ra
 239              		.cfi_endproc
 240              	.LFE23:
 242              		.section	.rodata.str1.8
 243 003d 000000   		.align	3
 244              	.LC5:
 245 0040 433A2069 		.string	"C: i="
 245      3D00
 246 0046 0000     		.align	3
 247              	.LC6:
 248 0048 433A2064 		.string	"C: dispatch\n"
 248      69737061 
 248      7463680A 
 248      00
 249 0055 000000   		.align	3
 250              	.LC7:
 251 0058 433A2074 		.string	"C: t1="
 251      313D00
 252 005f 00       		.align	3
 253              	.LC8:
 254 0060 433A2066 		.string	"C: fibonaci="
 254      69626F6E 
 254      6163693D 
 254      00
 255 006d 000000   		.align	3
 256              	.LC9:
 257 0070 43206669 		.string	"C finished!\n"
 257      6E697368 
GAS LISTING /tmp/cccTagjj.s 			page 8


 257      6564210A 
 257      00
 258              		.text
 259              		.align	2
 261              	_ZL11workerBodyCPv:
 262              	.LFB22:
  45:Test/System_Mode_test.cpp ****     uint8 i = 0;
 263              		.loc 1 45 36 is_stmt 1
 264              		.cfi_startproc
 265              	.LVL32:
 266 01a4 130101FE 		addi	sp,sp,-32
 267              		.cfi_def_cfa_offset 32
 268 01a8 233C1100 		sd	ra,24(sp)
 269 01ac 23388100 		sd	s0,16(sp)
 270 01b0 23349100 		sd	s1,8(sp)
 271 01b4 23302101 		sd	s2,0(sp)
 272              		.cfi_offset 1, -8
 273              		.cfi_offset 8, -16
 274              		.cfi_offset 9, -24
 275              		.cfi_offset 18, -32
 276 01b8 13040102 		addi	s0,sp,32
 277              		.cfi_def_cfa 8, 0
  46:Test/System_Mode_test.cpp ****     for (; i < 3; i++) {
 278              		.loc 1 46 5
 279              	.LVL33:
  46:Test/System_Mode_test.cpp ****     for (; i < 3; i++) {
 280              		.loc 1 46 11 is_stmt 0
 281 01bc 93040000 		li	s1,0
 282 01c0 6F008003 		j	.L17
 283              	.LVL34:
 284              	.L21:
  48:Test/System_Mode_test.cpp ****     }
 285              		.loc 1 48 9 is_stmt 1 discriminator 1
  48:Test/System_Mode_test.cpp ****     }
 286              		.loc 1 48 21 is_stmt 0 discriminator 1
 287 01c4 17050000 		lla	a0,.LC5
 287      13050500 
 288 01cc 97000000 		call	_Z12pprintStringPKc@plt
 288      E7800000 
 289              	.LVL35:
  48:Test/System_Mode_test.cpp ****     }
 290              		.loc 1 48 32 is_stmt 1 discriminator 1
  48:Test/System_Mode_test.cpp ****     }
 291              		.loc 1 48 44 is_stmt 0 discriminator 1
 292 01d4 13850400 		mv	a0,s1
 293 01d8 97000000 		call	_Z12printIntegerm@plt
 293      E7800000 
 294              	.LVL36:
  48:Test/System_Mode_test.cpp ****     }
 295              		.loc 1 48 49 is_stmt 1 discriminator 1
  48:Test/System_Mode_test.cpp ****     }
 296              		.loc 1 48 61 is_stmt 0 discriminator 1
 297 01e0 17050000 		lla	a0,.LC1
 297      13050500 
 298 01e8 97000000 		call	_Z12pprintStringPKc@plt
 298      E7800000 
 299              	.LVL37:
GAS LISTING /tmp/cccTagjj.s 			page 9


  47:Test/System_Mode_test.cpp ****         pprintString("C: i="); printInteger(i); pprintString("\n");
 300              		.loc 1 47 5 is_stmt 1 discriminator 1
 301 01f0 9B841400 		addiw	s1,s1,1
 302              	.LVL38:
 303 01f4 93F4F40F 		andi	s1,s1,0xff
 304              	.LVL39:
 305              	.L17:
  47:Test/System_Mode_test.cpp ****         pprintString("C: i="); printInteger(i); pprintString("\n");
 306              		.loc 1 47 5 discriminator 2
  47:Test/System_Mode_test.cpp ****         pprintString("C: i="); printInteger(i); pprintString("\n");
 307              		.loc 1 47 14 discriminator 2
 308 01f8 93072000 		li	a5,2
 309 01fc E3F497FC 		bleu	s1,a5,.L21
  51:Test/System_Mode_test.cpp ****     __asm__ ("li t1, 7");
 310              		.loc 1 51 5
  51:Test/System_Mode_test.cpp ****     __asm__ ("li t1, 7");
 311              		.loc 1 51 17 is_stmt 0
 312 0200 17050000 		lla	a0,.LC6
 312      13050500 
 313 0208 97000000 		call	_Z12pprintStringPKc@plt
 313      E7800000 
 314              	.LVL40:
  52:Test/System_Mode_test.cpp ****     thread_dispatch();
 315              		.loc 1 52 5 is_stmt 1
  52:Test/System_Mode_test.cpp ****     thread_dispatch();
 316              		.loc 1 52 25 is_stmt 0
 317              	#APP
 318              	# 52 "Test/System_Mode_test.cpp" 1
  53:Test/System_Mode_test.cpp **** 
 319              		li t1, 7
 320              	# 0 "" 2
 321              		.loc 1 53 5 is_stmt 1
  53:Test/System_Mode_test.cpp **** 
 322              		.loc 1 53 20 is_stmt 0
 323              	#NO_APP
 324 0214 97000000 		call	_Z15thread_dispatchv@plt
 324      E7800000 
 325              	.LVL41:
  55:Test/System_Mode_test.cpp ****     __asm__ ("mv %[t1], t1" : [t1] "=r"(t1));
 326              		.loc 1 55 5 is_stmt 1
  56:Test/System_Mode_test.cpp **** 
 327              		.loc 1 56 5
  56:Test/System_Mode_test.cpp **** 
 328              		.loc 1 56 45 is_stmt 0
 329              	#APP
 330              	# 56 "Test/System_Mode_test.cpp" 1
 331              		mv s2, t1
 332              	# 0 "" 2
 333              	.LVL42:
  58:Test/System_Mode_test.cpp **** 
 334              		.loc 1 58 5 is_stmt 1
  58:Test/System_Mode_test.cpp **** 
 335              		.loc 1 58 17 is_stmt 0
 336              	#NO_APP
 337 0220 17050000 		lla	a0,.LC7
 337      13050500 
 338 0228 97000000 		call	_Z12pprintStringPKc@plt
GAS LISTING /tmp/cccTagjj.s 			page 10


 338      E7800000 
 339              	.LVL43:
  58:Test/System_Mode_test.cpp **** 
 340              		.loc 1 58 29 is_stmt 1
  58:Test/System_Mode_test.cpp **** 
 341              		.loc 1 58 41 is_stmt 0
 342 0230 13050900 		mv	a0,s2
 343 0234 97000000 		call	_Z12printIntegerm@plt
 343      E7800000 
 344              	.LVL44:
  58:Test/System_Mode_test.cpp **** 
 345              		.loc 1 58 47 is_stmt 1
  58:Test/System_Mode_test.cpp **** 
 346              		.loc 1 58 59 is_stmt 0
 347 023c 17050000 		lla	a0,.LC1
 347      13050500 
 348 0244 97000000 		call	_Z12pprintStringPKc@plt
 348      E7800000 
 349              	.LVL45:
  60:Test/System_Mode_test.cpp ****     pprintString("C: fibonaci="); printInteger(result); pprintString("\n");
 350              		.loc 1 60 5 is_stmt 1
  60:Test/System_Mode_test.cpp ****     pprintString("C: fibonaci="); printInteger(result); pprintString("\n");
 351              		.loc 1 60 30 is_stmt 0
 352 024c 1305C000 		li	a0,12
 353 0250 97000000 		call	_ZL9fibonaccim
 353      E7800000 
 354              	.LVL46:
 355 0258 13090500 		mv	s2,a0
 356              	.LVL47:
  61:Test/System_Mode_test.cpp **** 
 357              		.loc 1 61 5 is_stmt 1
  61:Test/System_Mode_test.cpp **** 
 358              		.loc 1 61 17 is_stmt 0
 359 025c 17050000 		lla	a0,.LC8
 359      13050500 
 360              	.LVL48:
 361 0264 97000000 		call	_Z12pprintStringPKc@plt
 361      E7800000 
 362              	.LVL49:
  61:Test/System_Mode_test.cpp **** 
 363              		.loc 1 61 35 is_stmt 1
  61:Test/System_Mode_test.cpp **** 
 364              		.loc 1 61 47 is_stmt 0
 365 026c 13050900 		mv	a0,s2
 366 0270 97000000 		call	_Z12printIntegerm@plt
 366      E7800000 
 367              	.LVL50:
  61:Test/System_Mode_test.cpp **** 
 368              		.loc 1 61 57 is_stmt 1
  61:Test/System_Mode_test.cpp **** 
 369              		.loc 1 61 69 is_stmt 0
 370 0278 17050000 		lla	a0,.LC1
 370      13050500 
 371 0280 97000000 		call	_Z12pprintStringPKc@plt
 371      E7800000 
 372              	.LVL51:
 373 0288 6F008003 		j	.L19
GAS LISTING /tmp/cccTagjj.s 			page 11


 374              	.L22:
  64:Test/System_Mode_test.cpp ****     }
 375              		.loc 1 64 9 is_stmt 1 discriminator 1
  64:Test/System_Mode_test.cpp ****     }
 376              		.loc 1 64 21 is_stmt 0 discriminator 1
 377 028c 17050000 		lla	a0,.LC5
 377      13050500 
 378 0294 97000000 		call	_Z12pprintStringPKc@plt
 378      E7800000 
 379              	.LVL52:
  64:Test/System_Mode_test.cpp ****     }
 380              		.loc 1 64 32 is_stmt 1 discriminator 1
  64:Test/System_Mode_test.cpp ****     }
 381              		.loc 1 64 44 is_stmt 0 discriminator 1
 382 029c 13850400 		mv	a0,s1
 383 02a0 97000000 		call	_Z12printIntegerm@plt
 383      E7800000 
 384              	.LVL53:
  64:Test/System_Mode_test.cpp ****     }
 385              		.loc 1 64 49 is_stmt 1 discriminator 1
  64:Test/System_Mode_test.cpp ****     }
 386              		.loc 1 64 61 is_stmt 0 discriminator 1
 387 02a8 17050000 		lla	a0,.LC1
 387      13050500 
 388 02b0 97000000 		call	_Z12pprintStringPKc@plt
 388      E7800000 
 389              	.LVL54:
  63:Test/System_Mode_test.cpp ****         pprintString("C: i="); printInteger(i); pprintString("\n");
 390              		.loc 1 63 5 is_stmt 1 discriminator 1
 391 02b8 9B841400 		addiw	s1,s1,1
 392              	.LVL55:
 393 02bc 93F4F40F 		andi	s1,s1,0xff
 394              	.LVL56:
 395              	.L19:
  63:Test/System_Mode_test.cpp ****         pprintString("C: i="); printInteger(i); pprintString("\n");
 396              		.loc 1 63 5 discriminator 2
  63:Test/System_Mode_test.cpp ****         pprintString("C: i="); printInteger(i); pprintString("\n");
 397              		.loc 1 63 14 discriminator 2
 398 02c0 93075000 		li	a5,5
 399 02c4 E3F497FC 		bleu	s1,a5,.L22
  67:Test/System_Mode_test.cpp ****     finishedC = true;
 400              		.loc 1 67 5
  67:Test/System_Mode_test.cpp ****     finishedC = true;
 401              		.loc 1 67 17 is_stmt 0
 402 02c8 17050000 		lla	a0,.LC9
 402      13050500 
 403 02d0 97000000 		call	_Z12pprintStringPKc@plt
 403      E7800000 
 404              	.LVL57:
  68:Test/System_Mode_test.cpp ****     thread_dispatch();
 405              		.loc 1 68 5 is_stmt 1
  68:Test/System_Mode_test.cpp ****     thread_dispatch();
 406              		.loc 1 68 15 is_stmt 0
 407 02d8 93071000 		li	a5,1
 408 02dc 17070000 		sb	a5,.LANCHOR0+1,a4
 408      2300F700 
  69:Test/System_Mode_test.cpp **** }
GAS LISTING /tmp/cccTagjj.s 			page 12


 409              		.loc 1 69 5 is_stmt 1
  69:Test/System_Mode_test.cpp **** }
 410              		.loc 1 69 20 is_stmt 0
 411 02e4 97000000 		call	_Z15thread_dispatchv@plt
 411      E7800000 
 412              	.LVL58:
  70:Test/System_Mode_test.cpp **** 
 413              		.loc 1 70 1
 414 02ec 83308101 		ld	ra,24(sp)
 415              		.cfi_restore 1
 416 02f0 03340101 		ld	s0,16(sp)
 417              		.cfi_restore 8
 418              		.cfi_def_cfa 2, 32
 419 02f4 83348100 		ld	s1,8(sp)
 420              		.cfi_restore 9
 421              	.LVL59:
 422 02f8 03390100 		ld	s2,0(sp)
 423              		.cfi_restore 18
 424              	.LVL60:
 425 02fc 13010102 		addi	sp,sp,32
 426              		.cfi_def_cfa_offset 0
 427 0300 67800000 		jr	ra
 428              		.cfi_endproc
 429              	.LFE22:
 431              		.section	.rodata.str1.8
 432 007d 000000   		.align	3
 433              	.LC10:
 434 0080 423A2069 		.string	"B: i="
 434      3D00
 435 0086 0000     		.align	3
 436              	.LC11:
 437 0088 42206669 		.string	"B finished!\n"
 437      6E697368 
 437      6564210A 
 437      00
 438              		.text
 439              		.align	2
 441              	_ZL11workerBodyBPv:
 442              	.LFB21:
  29:Test/System_Mode_test.cpp ****     for (uint64 i = 0; i < 16; i++) {
 443              		.loc 1 29 36 is_stmt 1
 444              		.cfi_startproc
 445              	.LVL61:
 446 0304 130101FE 		addi	sp,sp,-32
 447              		.cfi_def_cfa_offset 32
 448 0308 233C1100 		sd	ra,24(sp)
 449 030c 23388100 		sd	s0,16(sp)
 450 0310 23349100 		sd	s1,8(sp)
 451 0314 23302101 		sd	s2,0(sp)
 452              		.cfi_offset 1, -8
 453              		.cfi_offset 8, -16
 454              		.cfi_offset 9, -24
 455              		.cfi_offset 18, -32
 456 0318 13040102 		addi	s0,sp,32
 457              		.cfi_def_cfa 8, 0
  30:Test/System_Mode_test.cpp ****         pprintString("B: i="); printInteger(i); pprintString("\n");
 458              		.loc 1 30 5
GAS LISTING /tmp/cccTagjj.s 			page 13


 459              	.LVL62:
 460              	.LBB2:
  30:Test/System_Mode_test.cpp ****         pprintString("B: i="); printInteger(i); pprintString("\n");
 461              		.loc 1 30 17 is_stmt 0
 462 031c 13090000 		li	s2,0
 463 0320 6F000004 		j	.L30
 464              	.LVL63:
 465              	.L26:
 466              	.LBB3:
 467              	.LBB4:
 468              	.LBB5:
  34:Test/System_Mode_test.cpp ****         }
 469              		.loc 1 34 13 is_stmt 1 discriminator 2
  34:Test/System_Mode_test.cpp ****         }
 470              		.loc 1 34 28 is_stmt 0 discriminator 2
 471 0324 97000000 		call	_Z15thread_dispatchv@plt
 471      E7800000 
 472              	.LVL64:
 473              	.LBE5:
  32:Test/System_Mode_test.cpp ****             for (uint64 k = 0; k < 30000; k++) { /* busy wait */ }
 474              		.loc 1 32 9 is_stmt 1 discriminator 2
 475 032c 93841400 		addi	s1,s1,1
 476              	.LVL65:
 477              	.L28:
  32:Test/System_Mode_test.cpp ****             for (uint64 k = 0; k < 30000; k++) { /* busy wait */ }
 478              		.loc 1 32 30 discriminator 1
 479 0330 B7270000 		li	a5,8192
 480 0334 9387F770 		addi	a5,a5,1807
 481 0338 63EE9700 		bgtu	s1,a5,.L25
 482              	.LBB7:
 483              	.LBB6:
  33:Test/System_Mode_test.cpp ****             thread_dispatch();
 484              		.loc 1 33 25 is_stmt 0
 485 033c 13070000 		li	a4,0
 486              	.L27:
 487              	.LVL66:
  33:Test/System_Mode_test.cpp ****             thread_dispatch();
 488              		.loc 1 33 34 is_stmt 1 discriminator 3
 489 0340 B7770000 		li	a5,28672
 490 0344 9387F752 		addi	a5,a5,1327
 491 0348 E3EEE7FC 		bgtu	a4,a5,.L26
  33:Test/System_Mode_test.cpp ****             thread_dispatch();
 492              		.loc 1 33 13 discriminator 2
 493 034c 13071700 		addi	a4,a4,1
 494              	.LVL67:
 495 0350 6FF01FFF 		j	.L27
 496              	.LVL68:
 497              	.L25:
 498              	.LBE6:
 499              	.LBE7:
 500              	.LBE4:
  36:Test/System_Mode_test.cpp ****             asm volatile("csrr t6, sepc");
 501              		.loc 1 36 9
 502 0354 9307A000 		li	a5,10
 503 0358 6302F904 		beq	s2,a5,.L32
 504              	.L29:
 505              	.LBE3:
GAS LISTING /tmp/cccTagjj.s 			page 14


  30:Test/System_Mode_test.cpp ****         pprintString("B: i="); printInteger(i); pprintString("\n");
 506              		.loc 1 30 5 discriminator 2
 507 035c 13091900 		addi	s2,s2,1
 508              	.LVL69:
 509              	.L30:
  30:Test/System_Mode_test.cpp ****         pprintString("B: i="); printInteger(i); pprintString("\n");
 510              		.loc 1 30 26 discriminator 1
 511 0360 9307F000 		li	a5,15
 512 0364 63E02705 		bgtu	s2,a5,.L24
 513              	.LBB9:
  31:Test/System_Mode_test.cpp ****         for (uint64 j = 0; j < 10000; j++) {
 514              		.loc 1 31 9
  31:Test/System_Mode_test.cpp ****         for (uint64 j = 0; j < 10000; j++) {
 515              		.loc 1 31 21 is_stmt 0
 516 0368 17050000 		lla	a0,.LC10
 516      13050500 
 517 0370 97000000 		call	_Z12pprintStringPKc@plt
 517      E7800000 
 518              	.LVL70:
  31:Test/System_Mode_test.cpp ****         for (uint64 j = 0; j < 10000; j++) {
 519              		.loc 1 31 32 is_stmt 1
  31:Test/System_Mode_test.cpp ****         for (uint64 j = 0; j < 10000; j++) {
 520              		.loc 1 31 44 is_stmt 0
 521 0378 13050900 		mv	a0,s2
 522 037c 97000000 		call	_Z12printIntegerm@plt
 522      E7800000 
 523              	.LVL71:
  31:Test/System_Mode_test.cpp ****         for (uint64 j = 0; j < 10000; j++) {
 524              		.loc 1 31 49 is_stmt 1
  31:Test/System_Mode_test.cpp ****         for (uint64 j = 0; j < 10000; j++) {
 525              		.loc 1 31 61 is_stmt 0
 526 0384 17050000 		lla	a0,.LC1
 526      13050500 
 527 038c 97000000 		call	_Z12pprintStringPKc@plt
 527      E7800000 
 528              	.LVL72:
  32:Test/System_Mode_test.cpp ****             for (uint64 k = 0; k < 30000; k++) { /* busy wait */ }
 529              		.loc 1 32 9 is_stmt 1
 530              	.LBB8:
  32:Test/System_Mode_test.cpp ****             for (uint64 k = 0; k < 30000; k++) { /* busy wait */ }
 531              		.loc 1 32 21 is_stmt 0
 532 0394 93040000 		li	s1,0
 533 0398 6FF09FF9 		j	.L28
 534              	.LVL73:
 535              	.L32:
 536              	.LBE8:
  37:Test/System_Mode_test.cpp ****         }
 537              		.loc 1 37 13 is_stmt 1
  37:Test/System_Mode_test.cpp ****         }
 538              		.loc 1 37 42 is_stmt 0
 539              	#APP
 540              	# 37 "Test/System_Mode_test.cpp" 1
 541              		csrr t6, sepc
 542              	# 0 "" 2
 543              	#NO_APP
 544 03a0 6FF0DFFB 		j	.L29
 545              	.LVL74:
GAS LISTING /tmp/cccTagjj.s 			page 15


 546              	.L24:
 547              	.LBE9:
 548              	.LBE2:
  40:Test/System_Mode_test.cpp ****     finishedB = true;
 549              		.loc 1 40 5 is_stmt 1
  40:Test/System_Mode_test.cpp ****     finishedB = true;
 550              		.loc 1 40 17 is_stmt 0
 551 03a4 17050000 		lla	a0,.LC11
 551      13050500 
 552 03ac 97000000 		call	_Z12pprintStringPKc@plt
 552      E7800000 
 553              	.LVL75:
  41:Test/System_Mode_test.cpp ****     thread_dispatch();
 554              		.loc 1 41 5 is_stmt 1
  41:Test/System_Mode_test.cpp ****     thread_dispatch();
 555              		.loc 1 41 15 is_stmt 0
 556 03b4 93071000 		li	a5,1
 557 03b8 17070000 		sb	a5,.LANCHOR0+2,a4
 557      2300F700 
  42:Test/System_Mode_test.cpp **** }
 558              		.loc 1 42 5 is_stmt 1
  42:Test/System_Mode_test.cpp **** }
 559              		.loc 1 42 20 is_stmt 0
 560 03c0 97000000 		call	_Z15thread_dispatchv@plt
 560      E7800000 
 561              	.LVL76:
  43:Test/System_Mode_test.cpp **** 
 562              		.loc 1 43 1
 563 03c8 83308101 		ld	ra,24(sp)
 564              		.cfi_restore 1
 565 03cc 03340101 		ld	s0,16(sp)
 566              		.cfi_restore 8
 567              		.cfi_def_cfa 2, 32
 568 03d0 83348100 		ld	s1,8(sp)
 569              		.cfi_restore 9
 570 03d4 03390100 		ld	s2,0(sp)
 571              		.cfi_restore 18
 572              	.LVL77:
 573 03d8 13010102 		addi	sp,sp,32
 574              		.cfi_def_cfa_offset 0
 575 03dc 67800000 		jr	ra
 576              		.cfi_endproc
 577              	.LFE21:
 579              		.section	.rodata.str1.8
 580 0095 000000   		.align	3
 581              	.LC12:
 582 0098 413A2069 		.string	"A: i="
 582      3D00
 583 009e 0000     		.align	3
 584              	.LC13:
 585 00a0 41206669 		.string	"A finished!\n"
 585      6E697368 
 585      6564210A 
 585      00
 586              		.text
 587              		.align	2
 589              	_ZL11workerBodyAPv:
GAS LISTING /tmp/cccTagjj.s 			page 16


 590              	.LFB20:
  17:Test/System_Mode_test.cpp ****     for (uint64 i = 0; i < 10; i++) {
 591              		.loc 1 17 36 is_stmt 1
 592              		.cfi_startproc
 593              	.LVL78:
 594 03e0 130101FE 		addi	sp,sp,-32
 595              		.cfi_def_cfa_offset 32
 596 03e4 233C1100 		sd	ra,24(sp)
 597 03e8 23388100 		sd	s0,16(sp)
 598 03ec 23349100 		sd	s1,8(sp)
 599 03f0 23302101 		sd	s2,0(sp)
 600              		.cfi_offset 1, -8
 601              		.cfi_offset 8, -16
 602              		.cfi_offset 9, -24
 603              		.cfi_offset 18, -32
 604 03f4 13040102 		addi	s0,sp,32
 605              		.cfi_def_cfa 8, 0
  18:Test/System_Mode_test.cpp ****         pprintString("A: i="); printInteger(i); pprintString("\n");
 606              		.loc 1 18 5
 607              	.LVL79:
 608              	.LBB10:
  18:Test/System_Mode_test.cpp ****         pprintString("A: i="); printInteger(i); pprintString("\n");
 609              		.loc 1 18 17 is_stmt 0
 610 03f8 13090000 		li	s2,0
 611 03fc 6F008003 		j	.L39
 612              	.LVL80:
 613              	.L36:
 614              	.LBB11:
 615              	.LBB12:
 616              	.LBB13:
  22:Test/System_Mode_test.cpp ****         }
 617              		.loc 1 22 13 is_stmt 1 discriminator 2
  22:Test/System_Mode_test.cpp ****         }
 618              		.loc 1 22 28 is_stmt 0 discriminator 2
 619 0400 97000000 		call	_Z15thread_dispatchv@plt
 619      E7800000 
 620              	.LVL81:
 621              	.LBE13:
  20:Test/System_Mode_test.cpp ****             for (uint64 k = 0; k < 30000; k++) { /* busy wait */ }
 622              		.loc 1 20 9 is_stmt 1 discriminator 2
 623 0408 93841400 		addi	s1,s1,1
 624              	.LVL82:
 625              	.L38:
  20:Test/System_Mode_test.cpp ****             for (uint64 k = 0; k < 30000; k++) { /* busy wait */ }
 626              		.loc 1 20 30 discriminator 1
 627 040c B7270000 		li	a5,8192
 628 0410 9387F770 		addi	a5,a5,1807
 629 0414 63EE9700 		bgtu	s1,a5,.L35
 630              	.LBB15:
 631              	.LBB14:
  21:Test/System_Mode_test.cpp ****             thread_dispatch();
 632              		.loc 1 21 25 is_stmt 0
 633 0418 13070000 		li	a4,0
 634              	.L37:
 635              	.LVL83:
  21:Test/System_Mode_test.cpp ****             thread_dispatch();
 636              		.loc 1 21 34 is_stmt 1 discriminator 3
GAS LISTING /tmp/cccTagjj.s 			page 17


 637 041c B7770000 		li	a5,28672
 638 0420 9387F752 		addi	a5,a5,1327
 639 0424 E3EEE7FC 		bgtu	a4,a5,.L36
  21:Test/System_Mode_test.cpp ****             thread_dispatch();
 640              		.loc 1 21 13 discriminator 2
 641 0428 13071700 		addi	a4,a4,1
 642              	.LVL84:
 643 042c 6FF01FFF 		j	.L37
 644              	.LVL85:
 645              	.L35:
 646              	.LBE14:
 647              	.LBE15:
 648              	.LBE12:
 649              	.LBE11:
  18:Test/System_Mode_test.cpp ****         pprintString("A: i="); printInteger(i); pprintString("\n");
 650              		.loc 1 18 5 discriminator 2
 651 0430 13091900 		addi	s2,s2,1
 652              	.LVL86:
 653              	.L39:
  18:Test/System_Mode_test.cpp ****         pprintString("A: i="); printInteger(i); pprintString("\n");
 654              		.loc 1 18 26 discriminator 1
 655 0434 93079000 		li	a5,9
 656 0438 63EC2703 		bgtu	s2,a5,.L34
 657              	.LBB17:
  19:Test/System_Mode_test.cpp ****         for (uint64 j = 0; j < 10000; j++) {
 658              		.loc 1 19 9
  19:Test/System_Mode_test.cpp ****         for (uint64 j = 0; j < 10000; j++) {
 659              		.loc 1 19 21 is_stmt 0
 660 043c 17050000 		lla	a0,.LC12
 660      13050500 
 661 0444 97000000 		call	_Z12pprintStringPKc@plt
 661      E7800000 
 662              	.LVL87:
  19:Test/System_Mode_test.cpp ****         for (uint64 j = 0; j < 10000; j++) {
 663              		.loc 1 19 32 is_stmt 1
  19:Test/System_Mode_test.cpp ****         for (uint64 j = 0; j < 10000; j++) {
 664              		.loc 1 19 44 is_stmt 0
 665 044c 13050900 		mv	a0,s2
 666 0450 97000000 		call	_Z12printIntegerm@plt
 666      E7800000 
 667              	.LVL88:
  19:Test/System_Mode_test.cpp ****         for (uint64 j = 0; j < 10000; j++) {
 668              		.loc 1 19 49 is_stmt 1
  19:Test/System_Mode_test.cpp ****         for (uint64 j = 0; j < 10000; j++) {
 669              		.loc 1 19 61 is_stmt 0
 670 0458 17050000 		lla	a0,.LC1
 670      13050500 
 671 0460 97000000 		call	_Z12pprintStringPKc@plt
 671      E7800000 
 672              	.LVL89:
  20:Test/System_Mode_test.cpp ****             for (uint64 k = 0; k < 30000; k++) { /* busy wait */ }
 673              		.loc 1 20 9 is_stmt 1
 674              	.LBB16:
  20:Test/System_Mode_test.cpp ****             for (uint64 k = 0; k < 30000; k++) { /* busy wait */ }
 675              		.loc 1 20 21 is_stmt 0
 676 0468 93040000 		li	s1,0
 677 046c 6FF01FFA 		j	.L38
GAS LISTING /tmp/cccTagjj.s 			page 18


 678              	.LVL90:
 679              	.L34:
 680              	.LBE16:
 681              	.LBE17:
 682              	.LBE10:
  25:Test/System_Mode_test.cpp ****     finishedA = true;
 683              		.loc 1 25 5 is_stmt 1
  25:Test/System_Mode_test.cpp ****     finishedA = true;
 684              		.loc 1 25 17 is_stmt 0
 685 0470 17050000 		lla	a0,.LC13
 685      13050500 
 686 0478 97000000 		call	_Z12pprintStringPKc@plt
 686      E7800000 
 687              	.LVL91:
  26:Test/System_Mode_test.cpp **** }
 688              		.loc 1 26 5 is_stmt 1
  26:Test/System_Mode_test.cpp **** }
 689              		.loc 1 26 15 is_stmt 0
 690 0480 93071000 		li	a5,1
 691 0484 17070000 		sb	a5,.LANCHOR0+3,a4
 691      2300F700 
  27:Test/System_Mode_test.cpp **** 
 692              		.loc 1 27 1
 693 048c 83308101 		ld	ra,24(sp)
 694              		.cfi_restore 1
 695 0490 03340101 		ld	s0,16(sp)
 696              		.cfi_restore 8
 697              		.cfi_def_cfa 2, 32
 698 0494 83348100 		ld	s1,8(sp)
 699              		.cfi_restore 9
 700 0498 03390100 		ld	s2,0(sp)
 701              		.cfi_restore 18
 702              	.LVL92:
 703 049c 13010102 		addi	sp,sp,32
 704              		.cfi_def_cfa_offset 0
 705 04a0 67800000 		jr	ra
 706              		.cfi_endproc
 707              	.LFE20:
 709              		.section	.rodata.str1.8
 710 00ad 000000   		.align	3
 711              	.LC14:
 712 00b0 54687265 		.string	"ThreadA created\n"
 712      61644120 
 712      63726561 
 712      7465640A 
 712      00
 713 00c1 00000000 		.align	3
 713      000000
 714              	.LC15:
 715 00c8 54687265 		.string	"ThreadB created\n"
 715      61644220 
 715      63726561 
 715      7465640A 
 715      00
 716 00d9 00000000 		.align	3
 716      000000
 717              	.LC16:
GAS LISTING /tmp/cccTagjj.s 			page 19


 718 00e0 54687265 		.string	"ThreadC created\n"
 718      61644320 
 718      63726561 
 718      7465640A 
 718      00
 719 00f1 00000000 		.align	3
 719      000000
 720              	.LC17:
 721 00f8 54687265 		.string	"ThreadD created\n"
 721      61644420 
 721      63726561 
 721      7465640A 
 721      00
 722              		.text
 723              		.align	2
 724              		.globl	_Z16System_Mode_testv
 726              	_Z16System_Mode_testv:
 727              	.LFB24:
  93:Test/System_Mode_test.cpp **** 
  94:Test/System_Mode_test.cpp **** 
  95:Test/System_Mode_test.cpp **** void System_Mode_test() {
 728              		.loc 1 95 25 is_stmt 1
 729              		.cfi_startproc
 730 04a4 130101FD 		addi	sp,sp,-48
 731              		.cfi_def_cfa_offset 48
 732 04a8 23341102 		sd	ra,40(sp)
 733 04ac 23308102 		sd	s0,32(sp)
 734              		.cfi_offset 1, -8
 735              		.cfi_offset 8, -16
 736 04b0 13040103 		addi	s0,sp,48
 737              		.cfi_def_cfa 8, 0
  96:Test/System_Mode_test.cpp ****     thread_t threads[4];
 738              		.loc 1 96 5
  97:Test/System_Mode_test.cpp ****     thread_create(&threads[0], workerBodyA, nullptr);
 739              		.loc 1 97 5
 740              		.loc 1 97 18 is_stmt 0
 741 04b4 13060000 		li	a2,0
 742 04b8 97050000 		lla	a1,_ZL11workerBodyAPv
 742      93850500 
 743 04c0 130504FD 		addi	a0,s0,-48
 744 04c4 97000000 		call	_Z13thread_createPP3TCBPFvPvES2_@plt
 744      E7800000 
 745              	.LVL93:
  98:Test/System_Mode_test.cpp ****     pprintString("ThreadA created\n");
 746              		.loc 1 98 5 is_stmt 1
 747              		.loc 1 98 17 is_stmt 0
 748 04cc 17050000 		lla	a0,.LC14
 748      13050500 
 749 04d4 97000000 		call	_Z12pprintStringPKc@plt
 749      E7800000 
 750              	.LVL94:
  99:Test/System_Mode_test.cpp **** 
 100:Test/System_Mode_test.cpp ****     thread_create(&threads[1], workerBodyB, nullptr);
 751              		.loc 1 100 5 is_stmt 1
 752              		.loc 1 100 18 is_stmt 0
 753 04dc 13060000 		li	a2,0
 754 04e0 97050000 		lla	a1,_ZL11workerBodyBPv
GAS LISTING /tmp/cccTagjj.s 			page 20


 754      93850500 
 755 04e8 130584FD 		addi	a0,s0,-40
 756 04ec 97000000 		call	_Z13thread_createPP3TCBPFvPvES2_@plt
 756      E7800000 
 757              	.LVL95:
 101:Test/System_Mode_test.cpp ****     pprintString("ThreadB created\n");
 758              		.loc 1 101 5 is_stmt 1
 759              		.loc 1 101 17 is_stmt 0
 760 04f4 17050000 		lla	a0,.LC15
 760      13050500 
 761 04fc 97000000 		call	_Z12pprintStringPKc@plt
 761      E7800000 
 762              	.LVL96:
 102:Test/System_Mode_test.cpp **** 
 103:Test/System_Mode_test.cpp ****     thread_create(&threads[2], workerBodyC, nullptr);
 763              		.loc 1 103 5 is_stmt 1
 764              		.loc 1 103 18 is_stmt 0
 765 0504 13060000 		li	a2,0
 766 0508 97050000 		lla	a1,_ZL11workerBodyCPv
 766      93850500 
 767 0510 130504FE 		addi	a0,s0,-32
 768 0514 97000000 		call	_Z13thread_createPP3TCBPFvPvES2_@plt
 768      E7800000 
 769              	.LVL97:
 104:Test/System_Mode_test.cpp ****     pprintString("ThreadC created\n");
 770              		.loc 1 104 5 is_stmt 1
 771              		.loc 1 104 17 is_stmt 0
 772 051c 17050000 		lla	a0,.LC16
 772      13050500 
 773 0524 97000000 		call	_Z12pprintStringPKc@plt
 773      E7800000 
 774              	.LVL98:
 105:Test/System_Mode_test.cpp **** 
 106:Test/System_Mode_test.cpp ****     thread_create(&threads[3], workerBodyD, nullptr);
 775              		.loc 1 106 5 is_stmt 1
 776              		.loc 1 106 18 is_stmt 0
 777 052c 13060000 		li	a2,0
 778 0530 97050000 		lla	a1,_ZL11workerBodyDPv
 778      93850500 
 779 0538 130584FE 		addi	a0,s0,-24
 780 053c 97000000 		call	_Z13thread_createPP3TCBPFvPvES2_@plt
 780      E7800000 
 781              	.LVL99:
 107:Test/System_Mode_test.cpp ****     pprintString("ThreadD created\n");
 782              		.loc 1 107 5 is_stmt 1
 783              		.loc 1 107 17 is_stmt 0
 784 0544 17050000 		lla	a0,.LC17
 784      13050500 
 785 054c 97000000 		call	_Z12pprintStringPKc@plt
 785      E7800000 
 786              	.LVL100:
 787 0554 6F00C000 		j	.L43
 788              	.L42:
 108:Test/System_Mode_test.cpp **** 
 109:Test/System_Mode_test.cpp ****     while (!(finishedA && finishedB && finishedC && finishedD)) {
 110:Test/System_Mode_test.cpp ****         thread_dispatch();
 789              		.loc 1 110 9 is_stmt 1
GAS LISTING /tmp/cccTagjj.s 			page 21


 790              		.loc 1 110 24 is_stmt 0
 791 0558 97000000 		call	_Z15thread_dispatchv@plt
 791      E7800000 
 792              	.LVL101:
 793              	.L43:
 109:Test/System_Mode_test.cpp ****         thread_dispatch();
 794              		.loc 1 109 5 is_stmt 1
 109:Test/System_Mode_test.cpp ****         thread_dispatch();
 795              		.loc 1 109 12
 109:Test/System_Mode_test.cpp ****         thread_dispatch();
 796              		.loc 1 109 14 is_stmt 0
 797 0560 97070000 		lbu	a5,.LANCHOR0+3
 797      83C70700 
 109:Test/System_Mode_test.cpp ****         thread_dispatch();
 798              		.loc 1 109 12
 799 0568 E38807FE 		beqz	a5,.L42
 109:Test/System_Mode_test.cpp ****         thread_dispatch();
 800              		.loc 1 109 27 discriminator 2
 801 056c 97070000 		lbu	a5,.LANCHOR0+2
 801      83C70700 
 109:Test/System_Mode_test.cpp ****         thread_dispatch();
 802              		.loc 1 109 24 discriminator 2
 803 0574 E38207FE 		beqz	a5,.L42
 109:Test/System_Mode_test.cpp ****         thread_dispatch();
 804              		.loc 1 109 40 discriminator 4
 805 0578 97070000 		lbu	a5,.LANCHOR0+1
 805      83C70700 
 109:Test/System_Mode_test.cpp ****         thread_dispatch();
 806              		.loc 1 109 37 discriminator 4
 807 0580 E38C07FC 		beqz	a5,.L42
 109:Test/System_Mode_test.cpp ****         thread_dispatch();
 808              		.loc 1 109 53 discriminator 6
 809 0584 97070000 		lbu	a5,.LANCHOR0
 809      83C70700 
 109:Test/System_Mode_test.cpp ****         thread_dispatch();
 810              		.loc 1 109 12 discriminator 6
 811 058c E38607FC 		beqz	a5,.L42
 111:Test/System_Mode_test.cpp ****     }
 112:Test/System_Mode_test.cpp **** 
 113:Test/System_Mode_test.cpp **** }
 812              		.loc 1 113 1
 813 0590 83308102 		ld	ra,40(sp)
 814              		.cfi_restore 1
 815 0594 03340102 		ld	s0,32(sp)
 816              		.cfi_restore 8
 817              		.cfi_def_cfa 2, 48
 818 0598 13010103 		addi	sp,sp,48
 819              		.cfi_def_cfa_offset 0
 820 059c 67800000 		jr	ra
 821              		.cfi_endproc
 822              	.LFE24:
 824              		.bss
 825              		.set	.LANCHOR0,. + 0
 828              	_ZL9finishedD:
 829 0000 00       		.zero	1
 832              	_ZL9finishedC:
 833 0001 00       		.zero	1
GAS LISTING /tmp/cccTagjj.s 			page 22


 836              	_ZL9finishedB:
 837 0002 00       		.zero	1
 840              	_ZL9finishedA:
 841 0003 00       		.zero	1
 842              		.text
 843              	.Letext0:
 844              		.file 2 "Test/../h/../lib/hw.h"
 845              		.file 3 "Test/../h/TCB.hpp"
 846              		.file 4 "Test/../h/syscall_c.hpp"
 847              		.file 5 "Test/../h/print.hpp"
GAS LISTING /tmp/cccTagjj.s 			page 23

