GAS LISTING /tmp/ccUYvfV2.s 			page 1


   1              		.file	"Threads_C_API_test.cpp"
   2              		.option pic
   3              		.option norelax
   4              		.text
   5              	.Ltext0:
   6              		.align	2
   8              	_ZL9fibonaccim:
   9              	.LFB19:
  10              		.file 1 "Test/Threads_C_API_test.cpp"
   1:Test/Threads_C_API_test.cpp **** 
   2:Test/Threads_C_API_test.cpp **** #include "../h/syscall_c.hpp"
   3:Test/Threads_C_API_test.cpp **** #include "Threads_C_API_test.hpp"
   4:Test/Threads_C_API_test.cpp **** 
   5:Test/Threads_C_API_test.cpp **** #include "../h/print.hpp"
   6:Test/Threads_C_API_test.cpp **** 
   7:Test/Threads_C_API_test.cpp **** static volatile bool finishedA = false;
   8:Test/Threads_C_API_test.cpp **** static volatile bool finishedB = false;
   9:Test/Threads_C_API_test.cpp **** static volatile bool finishedC = false;
  10:Test/Threads_C_API_test.cpp **** static volatile bool finishedD = false;
  11:Test/Threads_C_API_test.cpp **** 
  12:Test/Threads_C_API_test.cpp **** static uint64 fibonacci(uint64 n) {
  11              		.loc 1 12 35
  12              		.cfi_startproc
  13              	.LVL0:
  14 0000 130101FE 		addi	sp,sp,-32
  15              		.cfi_def_cfa_offset 32
  16 0004 233C1100 		sd	ra,24(sp)
  17 0008 23388100 		sd	s0,16(sp)
  18 000c 23349100 		sd	s1,8(sp)
  19 0010 23302101 		sd	s2,0(sp)
  20              		.cfi_offset 1, -8
  21              		.cfi_offset 8, -16
  22              		.cfi_offset 9, -24
  23              		.cfi_offset 18, -32
  24 0014 13040102 		addi	s0,sp,32
  25              		.cfi_def_cfa 8, 0
  26 0018 93040500 		mv	s1,a0
  13:Test/Threads_C_API_test.cpp ****     if (n == 0 || n == 1) { return n; }
  27              		.loc 1 13 5
  28 001c 93071000 		li	a5,1
  29 0020 63F8A702 		bleu	a0,a5,.L1
  14:Test/Threads_C_API_test.cpp ****     if (n % 10 == 0) { thread_dispatch(); }
  30              		.loc 1 14 5
  31              		.loc 1 14 11 is_stmt 0
  32 0024 9307A000 		li	a5,10
  33 0028 B377F502 		remu	a5,a0,a5
  34              		.loc 1 14 5
  35 002c 638E0702 		beqz	a5,.L6
  36              	.LVL1:
  37              	.L3:
  15:Test/Threads_C_API_test.cpp ****     return fibonacci(n - 1) + fibonacci(n - 2);
  38              		.loc 1 15 5 is_stmt 1
  39              		.loc 1 15 21 is_stmt 0
  40 0030 1385F4FF 		addi	a0,s1,-1
  41 0034 97000000 		call	_ZL9fibonaccim
  41      E7800000 
  42              	.LVL2:
GAS LISTING /tmp/ccUYvfV2.s 			page 2


  43 003c 13090500 		mv	s2,a0
  44              		.loc 1 15 40
  45 0040 1385E4FF 		addi	a0,s1,-2
  46 0044 97000000 		call	_ZL9fibonaccim
  46      E7800000 
  47              	.LVL3:
  48              		.loc 1 15 46
  49 004c 3305A900 		add	a0,s2,a0
  50              	.L1:
  16:Test/Threads_C_API_test.cpp **** }
  51              		.loc 1 16 1
  52 0050 83308101 		ld	ra,24(sp)
  53              		.cfi_remember_state
  54              		.cfi_restore 1
  55 0054 03340101 		ld	s0,16(sp)
  56              		.cfi_restore 8
  57              		.cfi_def_cfa 2, 32
  58 0058 83348100 		ld	s1,8(sp)
  59              		.cfi_restore 9
  60              	.LVL4:
  61 005c 03390100 		ld	s2,0(sp)
  62              		.cfi_restore 18
  63 0060 13010102 		addi	sp,sp,32
  64              		.cfi_def_cfa_offset 0
  65 0064 67800000 		jr	ra
  66              	.LVL5:
  67              	.L6:
  68              		.cfi_restore_state
  14:Test/Threads_C_API_test.cpp ****     if (n % 10 == 0) { thread_dispatch(); }
  69              		.loc 1 14 24 is_stmt 1 discriminator 1
  14:Test/Threads_C_API_test.cpp ****     if (n % 10 == 0) { thread_dispatch(); }
  70              		.loc 1 14 39 is_stmt 0 discriminator 1
  71 0068 97000000 		call	_Z15thread_dispatchv@plt
  71      E7800000 
  72              	.LVL6:
  73 0070 6FF01FFC 		j	.L3
  74              		.cfi_endproc
  75              	.LFE19:
  77              		.section	.rodata.str1.8,"aMS",@progbits,1
  78              		.align	3
  79              	.LC0:
  80 0000 443A2069 		.string	"D: i="
  80      3D00
  81 0006 0000     		.align	3
  82              	.LC1:
  83 0008 0A00     		.string	"\n"
  84 000a 00000000 		.align	3
  84      0000
  85              	.LC2:
  86 0010 443A2064 		.string	"D: dispatch\n"
  86      69737061 
  86      7463680A 
  86      00
  87 001d 000000   		.align	3
  88              	.LC3:
  89 0020 443A2066 		.string	"D: fibonaci="
  89      69626F6E 
GAS LISTING /tmp/ccUYvfV2.s 			page 3


  89      6163693D 
  89      00
  90 002d 000000   		.align	3
  91              	.LC4:
  92 0030 44206669 		.string	"D finished!\n"
  92      6E697368 
  92      6564210A 
  92      00
  93              		.text
  94              		.align	2
  96              	_ZL11workerBodyDPv:
  97              	.LFB23:
  17:Test/Threads_C_API_test.cpp **** 
  18:Test/Threads_C_API_test.cpp **** static void workerBodyA(void* arg) {
  19:Test/Threads_C_API_test.cpp ****     for (uint64 i = 0; i < 10; i++) {
  20:Test/Threads_C_API_test.cpp ****         pprintString("A: i="); printInteger(i); pprintString("\n");
  21:Test/Threads_C_API_test.cpp ****         for (uint64 j = 0; j < 10000; j++) {
  22:Test/Threads_C_API_test.cpp ****             for (uint64 k = 0; k < 30000; k++) { /* busy wait */ }
  23:Test/Threads_C_API_test.cpp ****             thread_dispatch();
  24:Test/Threads_C_API_test.cpp ****         }
  25:Test/Threads_C_API_test.cpp ****     }
  26:Test/Threads_C_API_test.cpp ****     pprintString("A finished!\n");
  27:Test/Threads_C_API_test.cpp ****     finishedA = true;
  28:Test/Threads_C_API_test.cpp **** }
  29:Test/Threads_C_API_test.cpp **** 
  30:Test/Threads_C_API_test.cpp **** static void workerBodyB(void* arg) {
  31:Test/Threads_C_API_test.cpp ****     for (uint64 i = 0; i < 16; i++) {
  32:Test/Threads_C_API_test.cpp ****         pprintString("B: i="); printInteger(i); pprintString("\n");
  33:Test/Threads_C_API_test.cpp ****         for (uint64 j = 0; j < 10000; j++) {
  34:Test/Threads_C_API_test.cpp ****             for (uint64 k = 0; k < 30000; k++) { /* busy wait */ }
  35:Test/Threads_C_API_test.cpp ****             thread_dispatch();
  36:Test/Threads_C_API_test.cpp ****         }
  37:Test/Threads_C_API_test.cpp ****     }
  38:Test/Threads_C_API_test.cpp ****     pprintString("B finished!\n");
  39:Test/Threads_C_API_test.cpp ****     finishedB = true;
  40:Test/Threads_C_API_test.cpp ****     thread_dispatch();
  41:Test/Threads_C_API_test.cpp **** }
  42:Test/Threads_C_API_test.cpp **** 
  43:Test/Threads_C_API_test.cpp **** static void workerBodyC(void* arg) {
  44:Test/Threads_C_API_test.cpp ****     uint8 i = 0;
  45:Test/Threads_C_API_test.cpp ****     for (; i < 3; i++) {
  46:Test/Threads_C_API_test.cpp ****         pprintString("C: i="); printInteger(i); pprintString("\n");
  47:Test/Threads_C_API_test.cpp ****     }
  48:Test/Threads_C_API_test.cpp **** 
  49:Test/Threads_C_API_test.cpp ****     pprintString("C: dispatch\n");
  50:Test/Threads_C_API_test.cpp ****     __asm__ ("li t1, 7");
  51:Test/Threads_C_API_test.cpp ****     thread_dispatch();
  52:Test/Threads_C_API_test.cpp **** 
  53:Test/Threads_C_API_test.cpp ****     uint64 t1 = 0;
  54:Test/Threads_C_API_test.cpp ****     __asm__ ("mv %[t1], t1" : [t1] "=r"(t1));
  55:Test/Threads_C_API_test.cpp **** 
  56:Test/Threads_C_API_test.cpp ****     pprintString("C: t1="); printInteger(t1); pprintString("\n");
  57:Test/Threads_C_API_test.cpp **** 
  58:Test/Threads_C_API_test.cpp ****     uint64 result = fibonacci(12);
  59:Test/Threads_C_API_test.cpp ****     pprintString("C: fibonaci="); printInteger(result); pprintString("\n");
  60:Test/Threads_C_API_test.cpp **** 
  61:Test/Threads_C_API_test.cpp ****     for (; i < 6; i++) {
GAS LISTING /tmp/ccUYvfV2.s 			page 4


  62:Test/Threads_C_API_test.cpp ****         pprintString("C: i="); printInteger(i); pprintString("\n");
  63:Test/Threads_C_API_test.cpp ****     }
  64:Test/Threads_C_API_test.cpp **** 
  65:Test/Threads_C_API_test.cpp ****     pprintString("C finished!\n");
  66:Test/Threads_C_API_test.cpp ****     finishedC = true;
  67:Test/Threads_C_API_test.cpp ****     thread_dispatch();
  68:Test/Threads_C_API_test.cpp **** }
  69:Test/Threads_C_API_test.cpp **** 
  70:Test/Threads_C_API_test.cpp **** static void workerBodyD(void* arg) {
  98              		.loc 1 70 36 is_stmt 1
  99              		.cfi_startproc
 100              	.LVL7:
 101 0074 130101FE 		addi	sp,sp,-32
 102              		.cfi_def_cfa_offset 32
 103 0078 233C1100 		sd	ra,24(sp)
 104 007c 23388100 		sd	s0,16(sp)
 105 0080 23349100 		sd	s1,8(sp)
 106 0084 23302101 		sd	s2,0(sp)
 107              		.cfi_offset 1, -8
 108              		.cfi_offset 8, -16
 109              		.cfi_offset 9, -24
 110              		.cfi_offset 18, -32
 111 0088 13040102 		addi	s0,sp,32
 112              		.cfi_def_cfa 8, 0
  71:Test/Threads_C_API_test.cpp ****     uint8 i = 10;
 113              		.loc 1 71 5
 114              	.LVL8:
 115              		.loc 1 71 11 is_stmt 0
 116 008c 9304A000 		li	s1,10
 117 0090 6F008003 		j	.L9
 118              	.LVL9:
 119              	.L13:
  72:Test/Threads_C_API_test.cpp ****     for (; i < 13; i++) {
  73:Test/Threads_C_API_test.cpp ****         pprintString("D: i="); printInteger(i); pprintString("\n");
 120              		.loc 1 73 9 is_stmt 1 discriminator 1
 121              		.loc 1 73 21 is_stmt 0 discriminator 1
 122 0094 17050000 		lla	a0,.LC0
 122      13050500 
 123 009c 97000000 		call	_Z12pprintStringPKc@plt
 123      E7800000 
 124              	.LVL10:
 125              		.loc 1 73 32 is_stmt 1 discriminator 1
 126              		.loc 1 73 44 is_stmt 0 discriminator 1
 127 00a4 13850400 		mv	a0,s1
 128 00a8 97000000 		call	_Z12printIntegerm@plt
 128      E7800000 
 129              	.LVL11:
 130              		.loc 1 73 49 is_stmt 1 discriminator 1
 131              		.loc 1 73 61 is_stmt 0 discriminator 1
 132 00b0 17050000 		lla	a0,.LC1
 132      13050500 
 133 00b8 97000000 		call	_Z12pprintStringPKc@plt
 133      E7800000 
 134              	.LVL12:
  72:Test/Threads_C_API_test.cpp ****     for (; i < 13; i++) {
 135              		.loc 1 72 5 is_stmt 1 discriminator 1
 136 00c0 9B841400 		addiw	s1,s1,1
GAS LISTING /tmp/ccUYvfV2.s 			page 5


 137              	.LVL13:
 138 00c4 93F4F40F 		andi	s1,s1,0xff
 139              	.LVL14:
 140              	.L9:
  72:Test/Threads_C_API_test.cpp ****     for (; i < 13; i++) {
 141              		.loc 1 72 5 discriminator 2
  72:Test/Threads_C_API_test.cpp ****     for (; i < 13; i++) {
 142              		.loc 1 72 14 discriminator 2
 143 00c8 9307C000 		li	a5,12
 144 00cc E3F497FC 		bleu	s1,a5,.L13
  74:Test/Threads_C_API_test.cpp ****     }
  75:Test/Threads_C_API_test.cpp **** 
  76:Test/Threads_C_API_test.cpp ****     pprintString("D: dispatch\n");
 145              		.loc 1 76 5
 146              		.loc 1 76 17 is_stmt 0
 147 00d0 17050000 		lla	a0,.LC2
 147      13050500 
 148 00d8 97000000 		call	_Z12pprintStringPKc@plt
 148      E7800000 
 149              	.LVL15:
  77:Test/Threads_C_API_test.cpp ****     __asm__ ("li t1, 5");
 150              		.loc 1 77 5 is_stmt 1
 151              		.loc 1 77 25 is_stmt 0
 152              	#APP
 153              	# 77 "Test/Threads_C_API_test.cpp" 1
  78              	    thread_dispatch();
 154              		li t1, 5
 155              	# 0 "" 2
 156              		.loc 1 78 5 is_stmt 1
 157              		.loc 1 78 20 is_stmt 0
 158              	#NO_APP
 159 00e4 97000000 		call	_Z15thread_dispatchv@plt
 159      E7800000 
 160              	.LVL16:
  79:Test/Threads_C_API_test.cpp **** 
  80:Test/Threads_C_API_test.cpp ****     uint64 result = fibonacci(16);
 161              		.loc 1 80 5 is_stmt 1
 162              		.loc 1 80 30 is_stmt 0
 163 00ec 13050001 		li	a0,16
 164 00f0 97000000 		call	_ZL9fibonaccim
 164      E7800000 
 165              	.LVL17:
 166 00f8 13090500 		mv	s2,a0
 167              	.LVL18:
  81:Test/Threads_C_API_test.cpp ****     pprintString("D: fibonaci="); printInteger(result); pprintString("\n");
 168              		.loc 1 81 5 is_stmt 1
 169              		.loc 1 81 17 is_stmt 0
 170 00fc 17050000 		lla	a0,.LC3
 170      13050500 
 171              	.LVL19:
 172 0104 97000000 		call	_Z12pprintStringPKc@plt
 172      E7800000 
 173              	.LVL20:
 174              		.loc 1 81 35 is_stmt 1
 175              		.loc 1 81 47 is_stmt 0
 176 010c 13050900 		mv	a0,s2
 177 0110 97000000 		call	_Z12printIntegerm@plt
GAS LISTING /tmp/ccUYvfV2.s 			page 6


 177      E7800000 
 178              	.LVL21:
 179              		.loc 1 81 57 is_stmt 1
 180              		.loc 1 81 69 is_stmt 0
 181 0118 17050000 		lla	a0,.LC1
 181      13050500 
 182 0120 97000000 		call	_Z12pprintStringPKc@plt
 182      E7800000 
 183              	.LVL22:
 184 0128 6F008003 		j	.L11
 185              	.L14:
  82:Test/Threads_C_API_test.cpp **** 
  83:Test/Threads_C_API_test.cpp ****     for (; i < 16; i++) {
  84:Test/Threads_C_API_test.cpp ****         pprintString("D: i="); printInteger(i); pprintString("\n");
 186              		.loc 1 84 9 is_stmt 1 discriminator 1
 187              		.loc 1 84 21 is_stmt 0 discriminator 1
 188 012c 17050000 		lla	a0,.LC0
 188      13050500 
 189 0134 97000000 		call	_Z12pprintStringPKc@plt
 189      E7800000 
 190              	.LVL23:
 191              		.loc 1 84 32 is_stmt 1 discriminator 1
 192              		.loc 1 84 44 is_stmt 0 discriminator 1
 193 013c 13850400 		mv	a0,s1
 194 0140 97000000 		call	_Z12printIntegerm@plt
 194      E7800000 
 195              	.LVL24:
 196              		.loc 1 84 49 is_stmt 1 discriminator 1
 197              		.loc 1 84 61 is_stmt 0 discriminator 1
 198 0148 17050000 		lla	a0,.LC1
 198      13050500 
 199 0150 97000000 		call	_Z12pprintStringPKc@plt
 199      E7800000 
 200              	.LVL25:
  83:Test/Threads_C_API_test.cpp ****         pprintString("D: i="); printInteger(i); pprintString("\n");
 201              		.loc 1 83 5 is_stmt 1 discriminator 1
 202 0158 9B841400 		addiw	s1,s1,1
 203              	.LVL26:
 204 015c 93F4F40F 		andi	s1,s1,0xff
 205              	.LVL27:
 206              	.L11:
  83:Test/Threads_C_API_test.cpp ****         pprintString("D: i="); printInteger(i); pprintString("\n");
 207              		.loc 1 83 5 discriminator 2
  83:Test/Threads_C_API_test.cpp ****         pprintString("D: i="); printInteger(i); pprintString("\n");
 208              		.loc 1 83 14 discriminator 2
 209 0160 9307F000 		li	a5,15
 210 0164 E3F497FC 		bleu	s1,a5,.L14
  85:Test/Threads_C_API_test.cpp ****     }
  86:Test/Threads_C_API_test.cpp **** 
  87:Test/Threads_C_API_test.cpp ****     pprintString("D finished!\n");
 211              		.loc 1 87 5
 212              		.loc 1 87 17 is_stmt 0
 213 0168 17050000 		lla	a0,.LC4
 213      13050500 
 214 0170 97000000 		call	_Z12pprintStringPKc@plt
 214      E7800000 
 215              	.LVL28:
GAS LISTING /tmp/ccUYvfV2.s 			page 7


  88:Test/Threads_C_API_test.cpp ****     finishedD = true;
 216              		.loc 1 88 5 is_stmt 1
 217              		.loc 1 88 15 is_stmt 0
 218 0178 93071000 		li	a5,1
 219 017c 17070000 		sb	a5,.LANCHOR0,a4
 219      2300F700 
  89:Test/Threads_C_API_test.cpp ****     thread_dispatch();
 220              		.loc 1 89 5 is_stmt 1
 221              		.loc 1 89 20 is_stmt 0
 222 0184 97000000 		call	_Z15thread_dispatchv@plt
 222      E7800000 
 223              	.LVL29:
  90:Test/Threads_C_API_test.cpp **** }
 224              		.loc 1 90 1
 225 018c 83308101 		ld	ra,24(sp)
 226              		.cfi_restore 1
 227 0190 03340101 		ld	s0,16(sp)
 228              		.cfi_restore 8
 229              		.cfi_def_cfa 2, 32
 230 0194 83348100 		ld	s1,8(sp)
 231              		.cfi_restore 9
 232              	.LVL30:
 233 0198 03390100 		ld	s2,0(sp)
 234              		.cfi_restore 18
 235              	.LVL31:
 236 019c 13010102 		addi	sp,sp,32
 237              		.cfi_def_cfa_offset 0
 238 01a0 67800000 		jr	ra
 239              		.cfi_endproc
 240              	.LFE23:
 242              		.section	.rodata.str1.8
 243 003d 000000   		.align	3
 244              	.LC5:
 245 0040 433A2069 		.string	"C: i="
 245      3D00
 246 0046 0000     		.align	3
 247              	.LC6:
 248 0048 433A2064 		.string	"C: dispatch\n"
 248      69737061 
 248      7463680A 
 248      00
 249 0055 000000   		.align	3
 250              	.LC7:
 251 0058 433A2074 		.string	"C: t1="
 251      313D00
 252 005f 00       		.align	3
 253              	.LC8:
 254 0060 433A2066 		.string	"C: fibonaci="
 254      69626F6E 
 254      6163693D 
 254      00
 255 006d 000000   		.align	3
 256              	.LC9:
 257 0070 43206669 		.string	"C finished!\n"
 257      6E697368 
 257      6564210A 
 257      00
GAS LISTING /tmp/ccUYvfV2.s 			page 8


 258              		.text
 259              		.align	2
 261              	_ZL11workerBodyCPv:
 262              	.LFB22:
  43:Test/Threads_C_API_test.cpp ****     uint8 i = 0;
 263              		.loc 1 43 36 is_stmt 1
 264              		.cfi_startproc
 265              	.LVL32:
 266 01a4 130101FE 		addi	sp,sp,-32
 267              		.cfi_def_cfa_offset 32
 268 01a8 233C1100 		sd	ra,24(sp)
 269 01ac 23388100 		sd	s0,16(sp)
 270 01b0 23349100 		sd	s1,8(sp)
 271 01b4 23302101 		sd	s2,0(sp)
 272              		.cfi_offset 1, -8
 273              		.cfi_offset 8, -16
 274              		.cfi_offset 9, -24
 275              		.cfi_offset 18, -32
 276 01b8 13040102 		addi	s0,sp,32
 277              		.cfi_def_cfa 8, 0
  44:Test/Threads_C_API_test.cpp ****     for (; i < 3; i++) {
 278              		.loc 1 44 5
 279              	.LVL33:
  44:Test/Threads_C_API_test.cpp ****     for (; i < 3; i++) {
 280              		.loc 1 44 11 is_stmt 0
 281 01bc 93040000 		li	s1,0
 282 01c0 6F008003 		j	.L17
 283              	.LVL34:
 284              	.L21:
  46:Test/Threads_C_API_test.cpp ****     }
 285              		.loc 1 46 9 is_stmt 1 discriminator 1
  46:Test/Threads_C_API_test.cpp ****     }
 286              		.loc 1 46 21 is_stmt 0 discriminator 1
 287 01c4 17050000 		lla	a0,.LC5
 287      13050500 
 288 01cc 97000000 		call	_Z12pprintStringPKc@plt
 288      E7800000 
 289              	.LVL35:
  46:Test/Threads_C_API_test.cpp ****     }
 290              		.loc 1 46 32 is_stmt 1 discriminator 1
  46:Test/Threads_C_API_test.cpp ****     }
 291              		.loc 1 46 44 is_stmt 0 discriminator 1
 292 01d4 13850400 		mv	a0,s1
 293 01d8 97000000 		call	_Z12printIntegerm@plt
 293      E7800000 
 294              	.LVL36:
  46:Test/Threads_C_API_test.cpp ****     }
 295              		.loc 1 46 49 is_stmt 1 discriminator 1
  46:Test/Threads_C_API_test.cpp ****     }
 296              		.loc 1 46 61 is_stmt 0 discriminator 1
 297 01e0 17050000 		lla	a0,.LC1
 297      13050500 
 298 01e8 97000000 		call	_Z12pprintStringPKc@plt
 298      E7800000 
 299              	.LVL37:
  45:Test/Threads_C_API_test.cpp ****         pprintString("C: i="); printInteger(i); pprintString("\n");
 300              		.loc 1 45 5 is_stmt 1 discriminator 1
GAS LISTING /tmp/ccUYvfV2.s 			page 9


 301 01f0 9B841400 		addiw	s1,s1,1
 302              	.LVL38:
 303 01f4 93F4F40F 		andi	s1,s1,0xff
 304              	.LVL39:
 305              	.L17:
  45:Test/Threads_C_API_test.cpp ****         pprintString("C: i="); printInteger(i); pprintString("\n");
 306              		.loc 1 45 5 discriminator 2
  45:Test/Threads_C_API_test.cpp ****         pprintString("C: i="); printInteger(i); pprintString("\n");
 307              		.loc 1 45 14 discriminator 2
 308 01f8 93072000 		li	a5,2
 309 01fc E3F497FC 		bleu	s1,a5,.L21
  49:Test/Threads_C_API_test.cpp ****     __asm__ ("li t1, 7");
 310              		.loc 1 49 5
  49:Test/Threads_C_API_test.cpp ****     __asm__ ("li t1, 7");
 311              		.loc 1 49 17 is_stmt 0
 312 0200 17050000 		lla	a0,.LC6
 312      13050500 
 313 0208 97000000 		call	_Z12pprintStringPKc@plt
 313      E7800000 
 314              	.LVL40:
  50:Test/Threads_C_API_test.cpp ****     thread_dispatch();
 315              		.loc 1 50 5 is_stmt 1
  50:Test/Threads_C_API_test.cpp ****     thread_dispatch();
 316              		.loc 1 50 25 is_stmt 0
 317              	#APP
 318              	# 50 "Test/Threads_C_API_test.cpp" 1
  51:Test/Threads_C_API_test.cpp **** 
 319              		li t1, 7
 320              	# 0 "" 2
 321              		.loc 1 51 5 is_stmt 1
  51:Test/Threads_C_API_test.cpp **** 
 322              		.loc 1 51 20 is_stmt 0
 323              	#NO_APP
 324 0214 97000000 		call	_Z15thread_dispatchv@plt
 324      E7800000 
 325              	.LVL41:
  53:Test/Threads_C_API_test.cpp ****     __asm__ ("mv %[t1], t1" : [t1] "=r"(t1));
 326              		.loc 1 53 5 is_stmt 1
  54:Test/Threads_C_API_test.cpp **** 
 327              		.loc 1 54 5
  54:Test/Threads_C_API_test.cpp **** 
 328              		.loc 1 54 45 is_stmt 0
 329              	#APP
 330              	# 54 "Test/Threads_C_API_test.cpp" 1
 331              		mv s2, t1
 332              	# 0 "" 2
 333              	.LVL42:
  56:Test/Threads_C_API_test.cpp **** 
 334              		.loc 1 56 5 is_stmt 1
  56:Test/Threads_C_API_test.cpp **** 
 335              		.loc 1 56 17 is_stmt 0
 336              	#NO_APP
 337 0220 17050000 		lla	a0,.LC7
 337      13050500 
 338 0228 97000000 		call	_Z12pprintStringPKc@plt
 338      E7800000 
 339              	.LVL43:
GAS LISTING /tmp/ccUYvfV2.s 			page 10


  56:Test/Threads_C_API_test.cpp **** 
 340              		.loc 1 56 29 is_stmt 1
  56:Test/Threads_C_API_test.cpp **** 
 341              		.loc 1 56 41 is_stmt 0
 342 0230 13050900 		mv	a0,s2
 343 0234 97000000 		call	_Z12printIntegerm@plt
 343      E7800000 
 344              	.LVL44:
  56:Test/Threads_C_API_test.cpp **** 
 345              		.loc 1 56 47 is_stmt 1
  56:Test/Threads_C_API_test.cpp **** 
 346              		.loc 1 56 59 is_stmt 0
 347 023c 17050000 		lla	a0,.LC1
 347      13050500 
 348 0244 97000000 		call	_Z12pprintStringPKc@plt
 348      E7800000 
 349              	.LVL45:
  58:Test/Threads_C_API_test.cpp ****     pprintString("C: fibonaci="); printInteger(result); pprintString("\n");
 350              		.loc 1 58 5 is_stmt 1
  58:Test/Threads_C_API_test.cpp ****     pprintString("C: fibonaci="); printInteger(result); pprintString("\n");
 351              		.loc 1 58 30 is_stmt 0
 352 024c 1305C000 		li	a0,12
 353 0250 97000000 		call	_ZL9fibonaccim
 353      E7800000 
 354              	.LVL46:
 355 0258 13090500 		mv	s2,a0
 356              	.LVL47:
  59:Test/Threads_C_API_test.cpp **** 
 357              		.loc 1 59 5 is_stmt 1
  59:Test/Threads_C_API_test.cpp **** 
 358              		.loc 1 59 17 is_stmt 0
 359 025c 17050000 		lla	a0,.LC8
 359      13050500 
 360              	.LVL48:
 361 0264 97000000 		call	_Z12pprintStringPKc@plt
 361      E7800000 
 362              	.LVL49:
  59:Test/Threads_C_API_test.cpp **** 
 363              		.loc 1 59 35 is_stmt 1
  59:Test/Threads_C_API_test.cpp **** 
 364              		.loc 1 59 47 is_stmt 0
 365 026c 13050900 		mv	a0,s2
 366 0270 97000000 		call	_Z12printIntegerm@plt
 366      E7800000 
 367              	.LVL50:
  59:Test/Threads_C_API_test.cpp **** 
 368              		.loc 1 59 57 is_stmt 1
  59:Test/Threads_C_API_test.cpp **** 
 369              		.loc 1 59 69 is_stmt 0
 370 0278 17050000 		lla	a0,.LC1
 370      13050500 
 371 0280 97000000 		call	_Z12pprintStringPKc@plt
 371      E7800000 
 372              	.LVL51:
 373 0288 6F008003 		j	.L19
 374              	.L22:
  62:Test/Threads_C_API_test.cpp ****     }
GAS LISTING /tmp/ccUYvfV2.s 			page 11


 375              		.loc 1 62 9 is_stmt 1 discriminator 1
  62:Test/Threads_C_API_test.cpp ****     }
 376              		.loc 1 62 21 is_stmt 0 discriminator 1
 377 028c 17050000 		lla	a0,.LC5
 377      13050500 
 378 0294 97000000 		call	_Z12pprintStringPKc@plt
 378      E7800000 
 379              	.LVL52:
  62:Test/Threads_C_API_test.cpp ****     }
 380              		.loc 1 62 32 is_stmt 1 discriminator 1
  62:Test/Threads_C_API_test.cpp ****     }
 381              		.loc 1 62 44 is_stmt 0 discriminator 1
 382 029c 13850400 		mv	a0,s1
 383 02a0 97000000 		call	_Z12printIntegerm@plt
 383      E7800000 
 384              	.LVL53:
  62:Test/Threads_C_API_test.cpp ****     }
 385              		.loc 1 62 49 is_stmt 1 discriminator 1
  62:Test/Threads_C_API_test.cpp ****     }
 386              		.loc 1 62 61 is_stmt 0 discriminator 1
 387 02a8 17050000 		lla	a0,.LC1
 387      13050500 
 388 02b0 97000000 		call	_Z12pprintStringPKc@plt
 388      E7800000 
 389              	.LVL54:
  61:Test/Threads_C_API_test.cpp ****         pprintString("C: i="); printInteger(i); pprintString("\n");
 390              		.loc 1 61 5 is_stmt 1 discriminator 1
 391 02b8 9B841400 		addiw	s1,s1,1
 392              	.LVL55:
 393 02bc 93F4F40F 		andi	s1,s1,0xff
 394              	.LVL56:
 395              	.L19:
  61:Test/Threads_C_API_test.cpp ****         pprintString("C: i="); printInteger(i); pprintString("\n");
 396              		.loc 1 61 5 discriminator 2
  61:Test/Threads_C_API_test.cpp ****         pprintString("C: i="); printInteger(i); pprintString("\n");
 397              		.loc 1 61 14 discriminator 2
 398 02c0 93075000 		li	a5,5
 399 02c4 E3F497FC 		bleu	s1,a5,.L22
  65:Test/Threads_C_API_test.cpp ****     finishedC = true;
 400              		.loc 1 65 5
  65:Test/Threads_C_API_test.cpp ****     finishedC = true;
 401              		.loc 1 65 17 is_stmt 0
 402 02c8 17050000 		lla	a0,.LC9
 402      13050500 
 403 02d0 97000000 		call	_Z12pprintStringPKc@plt
 403      E7800000 
 404              	.LVL57:
  66:Test/Threads_C_API_test.cpp ****     thread_dispatch();
 405              		.loc 1 66 5 is_stmt 1
  66:Test/Threads_C_API_test.cpp ****     thread_dispatch();
 406              		.loc 1 66 15 is_stmt 0
 407 02d8 93071000 		li	a5,1
 408 02dc 17070000 		sb	a5,.LANCHOR0+1,a4
 408      2300F700 
  67:Test/Threads_C_API_test.cpp **** }
 409              		.loc 1 67 5 is_stmt 1
  67:Test/Threads_C_API_test.cpp **** }
GAS LISTING /tmp/ccUYvfV2.s 			page 12


 410              		.loc 1 67 20 is_stmt 0
 411 02e4 97000000 		call	_Z15thread_dispatchv@plt
 411      E7800000 
 412              	.LVL58:
  68:Test/Threads_C_API_test.cpp **** 
 413              		.loc 1 68 1
 414 02ec 83308101 		ld	ra,24(sp)
 415              		.cfi_restore 1
 416 02f0 03340101 		ld	s0,16(sp)
 417              		.cfi_restore 8
 418              		.cfi_def_cfa 2, 32
 419 02f4 83348100 		ld	s1,8(sp)
 420              		.cfi_restore 9
 421              	.LVL59:
 422 02f8 03390100 		ld	s2,0(sp)
 423              		.cfi_restore 18
 424              	.LVL60:
 425 02fc 13010102 		addi	sp,sp,32
 426              		.cfi_def_cfa_offset 0
 427 0300 67800000 		jr	ra
 428              		.cfi_endproc
 429              	.LFE22:
 431              		.section	.rodata.str1.8
 432 007d 000000   		.align	3
 433              	.LC10:
 434 0080 423A2069 		.string	"B: i="
 434      3D00
 435 0086 0000     		.align	3
 436              	.LC11:
 437 0088 42206669 		.string	"B finished!\n"
 437      6E697368 
 437      6564210A 
 437      00
 438              		.text
 439              		.align	2
 441              	_ZL11workerBodyBPv:
 442              	.LFB21:
  30:Test/Threads_C_API_test.cpp ****     for (uint64 i = 0; i < 16; i++) {
 443              		.loc 1 30 36 is_stmt 1
 444              		.cfi_startproc
 445              	.LVL61:
 446 0304 130101FE 		addi	sp,sp,-32
 447              		.cfi_def_cfa_offset 32
 448 0308 233C1100 		sd	ra,24(sp)
 449 030c 23388100 		sd	s0,16(sp)
 450 0310 23349100 		sd	s1,8(sp)
 451 0314 23302101 		sd	s2,0(sp)
 452              		.cfi_offset 1, -8
 453              		.cfi_offset 8, -16
 454              		.cfi_offset 9, -24
 455              		.cfi_offset 18, -32
 456 0318 13040102 		addi	s0,sp,32
 457              		.cfi_def_cfa 8, 0
  31:Test/Threads_C_API_test.cpp ****         pprintString("B: i="); printInteger(i); pprintString("\n");
 458              		.loc 1 31 5
 459              	.LVL62:
 460              	.LBB2:
GAS LISTING /tmp/ccUYvfV2.s 			page 13


  31:Test/Threads_C_API_test.cpp ****         pprintString("B: i="); printInteger(i); pprintString("\n");
 461              		.loc 1 31 17 is_stmt 0
 462 031c 13090000 		li	s2,0
 463 0320 6F008003 		j	.L29
 464              	.LVL63:
 465              	.L26:
 466              	.LBB3:
 467              	.LBB4:
 468              	.LBB5:
  35:Test/Threads_C_API_test.cpp ****         }
 469              		.loc 1 35 13 is_stmt 1 discriminator 2
  35:Test/Threads_C_API_test.cpp ****         }
 470              		.loc 1 35 28 is_stmt 0 discriminator 2
 471 0324 97000000 		call	_Z15thread_dispatchv@plt
 471      E7800000 
 472              	.LVL64:
 473              	.LBE5:
  33:Test/Threads_C_API_test.cpp ****             for (uint64 k = 0; k < 30000; k++) { /* busy wait */ }
 474              		.loc 1 33 9 is_stmt 1 discriminator 2
 475 032c 93841400 		addi	s1,s1,1
 476              	.LVL65:
 477              	.L28:
  33:Test/Threads_C_API_test.cpp ****             for (uint64 k = 0; k < 30000; k++) { /* busy wait */ }
 478              		.loc 1 33 30 discriminator 1
 479 0330 B7270000 		li	a5,8192
 480 0334 9387F770 		addi	a5,a5,1807
 481 0338 63EE9700 		bgtu	s1,a5,.L25
 482              	.LBB7:
 483              	.LBB6:
  34:Test/Threads_C_API_test.cpp ****             thread_dispatch();
 484              		.loc 1 34 25 is_stmt 0
 485 033c 13070000 		li	a4,0
 486              	.L27:
 487              	.LVL66:
  34:Test/Threads_C_API_test.cpp ****             thread_dispatch();
 488              		.loc 1 34 34 is_stmt 1 discriminator 3
 489 0340 B7770000 		li	a5,28672
 490 0344 9387F752 		addi	a5,a5,1327
 491 0348 E3EEE7FC 		bgtu	a4,a5,.L26
  34:Test/Threads_C_API_test.cpp ****             thread_dispatch();
 492              		.loc 1 34 13 discriminator 2
 493 034c 13071700 		addi	a4,a4,1
 494              	.LVL67:
 495 0350 6FF01FFF 		j	.L27
 496              	.LVL68:
 497              	.L25:
 498              	.LBE6:
 499              	.LBE7:
 500              	.LBE4:
 501              	.LBE3:
  31:Test/Threads_C_API_test.cpp ****         pprintString("B: i="); printInteger(i); pprintString("\n");
 502              		.loc 1 31 5 discriminator 2
 503 0354 13091900 		addi	s2,s2,1
 504              	.LVL69:
 505              	.L29:
  31:Test/Threads_C_API_test.cpp ****         pprintString("B: i="); printInteger(i); pprintString("\n");
 506              		.loc 1 31 26 discriminator 1
GAS LISTING /tmp/ccUYvfV2.s 			page 14


 507 0358 9307F000 		li	a5,15
 508 035c 63EC2703 		bgtu	s2,a5,.L24
 509              	.LBB9:
  32:Test/Threads_C_API_test.cpp ****         for (uint64 j = 0; j < 10000; j++) {
 510              		.loc 1 32 9
  32:Test/Threads_C_API_test.cpp ****         for (uint64 j = 0; j < 10000; j++) {
 511              		.loc 1 32 21 is_stmt 0
 512 0360 17050000 		lla	a0,.LC10
 512      13050500 
 513 0368 97000000 		call	_Z12pprintStringPKc@plt
 513      E7800000 
 514              	.LVL70:
  32:Test/Threads_C_API_test.cpp ****         for (uint64 j = 0; j < 10000; j++) {
 515              		.loc 1 32 32 is_stmt 1
  32:Test/Threads_C_API_test.cpp ****         for (uint64 j = 0; j < 10000; j++) {
 516              		.loc 1 32 44 is_stmt 0
 517 0370 13050900 		mv	a0,s2
 518 0374 97000000 		call	_Z12printIntegerm@plt
 518      E7800000 
 519              	.LVL71:
  32:Test/Threads_C_API_test.cpp ****         for (uint64 j = 0; j < 10000; j++) {
 520              		.loc 1 32 49 is_stmt 1
  32:Test/Threads_C_API_test.cpp ****         for (uint64 j = 0; j < 10000; j++) {
 521              		.loc 1 32 61 is_stmt 0
 522 037c 17050000 		lla	a0,.LC1
 522      13050500 
 523 0384 97000000 		call	_Z12pprintStringPKc@plt
 523      E7800000 
 524              	.LVL72:
  33:Test/Threads_C_API_test.cpp ****             for (uint64 k = 0; k < 30000; k++) { /* busy wait */ }
 525              		.loc 1 33 9 is_stmt 1
 526              	.LBB8:
  33:Test/Threads_C_API_test.cpp ****             for (uint64 k = 0; k < 30000; k++) { /* busy wait */ }
 527              		.loc 1 33 21 is_stmt 0
 528 038c 93040000 		li	s1,0
 529 0390 6FF01FFA 		j	.L28
 530              	.LVL73:
 531              	.L24:
 532              	.LBE8:
 533              	.LBE9:
 534              	.LBE2:
  38:Test/Threads_C_API_test.cpp ****     finishedB = true;
 535              		.loc 1 38 5 is_stmt 1
  38:Test/Threads_C_API_test.cpp ****     finishedB = true;
 536              		.loc 1 38 17 is_stmt 0
 537 0394 17050000 		lla	a0,.LC11
 537      13050500 
 538 039c 97000000 		call	_Z12pprintStringPKc@plt
 538      E7800000 
 539              	.LVL74:
  39:Test/Threads_C_API_test.cpp ****     thread_dispatch();
 540              		.loc 1 39 5 is_stmt 1
  39:Test/Threads_C_API_test.cpp ****     thread_dispatch();
 541              		.loc 1 39 15 is_stmt 0
 542 03a4 93071000 		li	a5,1
 543 03a8 17070000 		sb	a5,.LANCHOR0+2,a4
 543      2300F700 
GAS LISTING /tmp/ccUYvfV2.s 			page 15


  40:Test/Threads_C_API_test.cpp **** }
 544              		.loc 1 40 5 is_stmt 1
  40:Test/Threads_C_API_test.cpp **** }
 545              		.loc 1 40 20 is_stmt 0
 546 03b0 97000000 		call	_Z15thread_dispatchv@plt
 546      E7800000 
 547              	.LVL75:
  41:Test/Threads_C_API_test.cpp **** 
 548              		.loc 1 41 1
 549 03b8 83308101 		ld	ra,24(sp)
 550              		.cfi_restore 1
 551 03bc 03340101 		ld	s0,16(sp)
 552              		.cfi_restore 8
 553              		.cfi_def_cfa 2, 32
 554 03c0 83348100 		ld	s1,8(sp)
 555              		.cfi_restore 9
 556 03c4 03390100 		ld	s2,0(sp)
 557              		.cfi_restore 18
 558              	.LVL76:
 559 03c8 13010102 		addi	sp,sp,32
 560              		.cfi_def_cfa_offset 0
 561 03cc 67800000 		jr	ra
 562              		.cfi_endproc
 563              	.LFE21:
 565              		.section	.rodata.str1.8
 566 0095 000000   		.align	3
 567              	.LC12:
 568 0098 413A2069 		.string	"A: i="
 568      3D00
 569 009e 0000     		.align	3
 570              	.LC13:
 571 00a0 41206669 		.string	"A finished!\n"
 571      6E697368 
 571      6564210A 
 571      00
 572              		.text
 573              		.align	2
 575              	_ZL11workerBodyAPv:
 576              	.LFB20:
  18:Test/Threads_C_API_test.cpp ****     for (uint64 i = 0; i < 10; i++) {
 577              		.loc 1 18 36 is_stmt 1
 578              		.cfi_startproc
 579              	.LVL77:
 580 03d0 130101FE 		addi	sp,sp,-32
 581              		.cfi_def_cfa_offset 32
 582 03d4 233C1100 		sd	ra,24(sp)
 583 03d8 23388100 		sd	s0,16(sp)
 584 03dc 23349100 		sd	s1,8(sp)
 585 03e0 23302101 		sd	s2,0(sp)
 586              		.cfi_offset 1, -8
 587              		.cfi_offset 8, -16
 588              		.cfi_offset 9, -24
 589              		.cfi_offset 18, -32
 590 03e4 13040102 		addi	s0,sp,32
 591              		.cfi_def_cfa 8, 0
  19:Test/Threads_C_API_test.cpp ****         pprintString("A: i="); printInteger(i); pprintString("\n");
 592              		.loc 1 19 5
GAS LISTING /tmp/ccUYvfV2.s 			page 16


 593              	.LVL78:
 594              	.LBB10:
  19:Test/Threads_C_API_test.cpp ****         pprintString("A: i="); printInteger(i); pprintString("\n");
 595              		.loc 1 19 17 is_stmt 0
 596 03e8 13090000 		li	s2,0
 597 03ec 6F008003 		j	.L37
 598              	.LVL79:
 599              	.L34:
 600              	.LBB11:
 601              	.LBB12:
 602              	.LBB13:
  23:Test/Threads_C_API_test.cpp ****         }
 603              		.loc 1 23 13 is_stmt 1 discriminator 2
  23:Test/Threads_C_API_test.cpp ****         }
 604              		.loc 1 23 28 is_stmt 0 discriminator 2
 605 03f0 97000000 		call	_Z15thread_dispatchv@plt
 605      E7800000 
 606              	.LVL80:
 607              	.LBE13:
  21:Test/Threads_C_API_test.cpp ****             for (uint64 k = 0; k < 30000; k++) { /* busy wait */ }
 608              		.loc 1 21 9 is_stmt 1 discriminator 2
 609 03f8 93841400 		addi	s1,s1,1
 610              	.LVL81:
 611              	.L36:
  21:Test/Threads_C_API_test.cpp ****             for (uint64 k = 0; k < 30000; k++) { /* busy wait */ }
 612              		.loc 1 21 30 discriminator 1
 613 03fc B7270000 		li	a5,8192
 614 0400 9387F770 		addi	a5,a5,1807
 615 0404 63EE9700 		bgtu	s1,a5,.L33
 616              	.LBB15:
 617              	.LBB14:
  22:Test/Threads_C_API_test.cpp ****             thread_dispatch();
 618              		.loc 1 22 25 is_stmt 0
 619 0408 13070000 		li	a4,0
 620              	.L35:
 621              	.LVL82:
  22:Test/Threads_C_API_test.cpp ****             thread_dispatch();
 622              		.loc 1 22 34 is_stmt 1 discriminator 3
 623 040c B7770000 		li	a5,28672
 624 0410 9387F752 		addi	a5,a5,1327
 625 0414 E3EEE7FC 		bgtu	a4,a5,.L34
  22:Test/Threads_C_API_test.cpp ****             thread_dispatch();
 626              		.loc 1 22 13 discriminator 2
 627 0418 13071700 		addi	a4,a4,1
 628              	.LVL83:
 629 041c 6FF01FFF 		j	.L35
 630              	.LVL84:
 631              	.L33:
 632              	.LBE14:
 633              	.LBE15:
 634              	.LBE12:
 635              	.LBE11:
  19:Test/Threads_C_API_test.cpp ****         pprintString("A: i="); printInteger(i); pprintString("\n");
 636              		.loc 1 19 5 discriminator 2
 637 0420 13091900 		addi	s2,s2,1
 638              	.LVL85:
 639              	.L37:
GAS LISTING /tmp/ccUYvfV2.s 			page 17


  19:Test/Threads_C_API_test.cpp ****         pprintString("A: i="); printInteger(i); pprintString("\n");
 640              		.loc 1 19 26 discriminator 1
 641 0424 93079000 		li	a5,9
 642 0428 63EC2703 		bgtu	s2,a5,.L32
 643              	.LBB17:
  20:Test/Threads_C_API_test.cpp ****         for (uint64 j = 0; j < 10000; j++) {
 644              		.loc 1 20 9
  20:Test/Threads_C_API_test.cpp ****         for (uint64 j = 0; j < 10000; j++) {
 645              		.loc 1 20 21 is_stmt 0
 646 042c 17050000 		lla	a0,.LC12
 646      13050500 
 647 0434 97000000 		call	_Z12pprintStringPKc@plt
 647      E7800000 
 648              	.LVL86:
  20:Test/Threads_C_API_test.cpp ****         for (uint64 j = 0; j < 10000; j++) {
 649              		.loc 1 20 32 is_stmt 1
  20:Test/Threads_C_API_test.cpp ****         for (uint64 j = 0; j < 10000; j++) {
 650              		.loc 1 20 44 is_stmt 0
 651 043c 13050900 		mv	a0,s2
 652 0440 97000000 		call	_Z12printIntegerm@plt
 652      E7800000 
 653              	.LVL87:
  20:Test/Threads_C_API_test.cpp ****         for (uint64 j = 0; j < 10000; j++) {
 654              		.loc 1 20 49 is_stmt 1
  20:Test/Threads_C_API_test.cpp ****         for (uint64 j = 0; j < 10000; j++) {
 655              		.loc 1 20 61 is_stmt 0
 656 0448 17050000 		lla	a0,.LC1
 656      13050500 
 657 0450 97000000 		call	_Z12pprintStringPKc@plt
 657      E7800000 
 658              	.LVL88:
  21:Test/Threads_C_API_test.cpp ****             for (uint64 k = 0; k < 30000; k++) { /* busy wait */ }
 659              		.loc 1 21 9 is_stmt 1
 660              	.LBB16:
  21:Test/Threads_C_API_test.cpp ****             for (uint64 k = 0; k < 30000; k++) { /* busy wait */ }
 661              		.loc 1 21 21 is_stmt 0
 662 0458 93040000 		li	s1,0
 663 045c 6FF01FFA 		j	.L36
 664              	.LVL89:
 665              	.L32:
 666              	.LBE16:
 667              	.LBE17:
 668              	.LBE10:
  26:Test/Threads_C_API_test.cpp ****     finishedA = true;
 669              		.loc 1 26 5 is_stmt 1
  26:Test/Threads_C_API_test.cpp ****     finishedA = true;
 670              		.loc 1 26 17 is_stmt 0
 671 0460 17050000 		lla	a0,.LC13
 671      13050500 
 672 0468 97000000 		call	_Z12pprintStringPKc@plt
 672      E7800000 
 673              	.LVL90:
  27:Test/Threads_C_API_test.cpp **** }
 674              		.loc 1 27 5 is_stmt 1
  27:Test/Threads_C_API_test.cpp **** }
 675              		.loc 1 27 15 is_stmt 0
 676 0470 93071000 		li	a5,1
GAS LISTING /tmp/ccUYvfV2.s 			page 18


 677 0474 17070000 		sb	a5,.LANCHOR0+3,a4
 677      2300F700 
  28:Test/Threads_C_API_test.cpp **** 
 678              		.loc 1 28 1
 679 047c 83308101 		ld	ra,24(sp)
 680              		.cfi_restore 1
 681 0480 03340101 		ld	s0,16(sp)
 682              		.cfi_restore 8
 683              		.cfi_def_cfa 2, 32
 684 0484 83348100 		ld	s1,8(sp)
 685              		.cfi_restore 9
 686 0488 03390100 		ld	s2,0(sp)
 687              		.cfi_restore 18
 688              	.LVL91:
 689 048c 13010102 		addi	sp,sp,32
 690              		.cfi_def_cfa_offset 0
 691 0490 67800000 		jr	ra
 692              		.cfi_endproc
 693              	.LFE20:
 695              		.section	.rodata.str1.8
 696 00ad 000000   		.align	3
 697              	.LC14:
 698 00b0 54687265 		.string	"ThreadA created\n"
 698      61644120 
 698      63726561 
 698      7465640A 
 698      00
 699 00c1 00000000 		.align	3
 699      000000
 700              	.LC15:
 701 00c8 54687265 		.string	"ThreadB created\n"
 701      61644220 
 701      63726561 
 701      7465640A 
 701      00
 702 00d9 00000000 		.align	3
 702      000000
 703              	.LC16:
 704 00e0 54687265 		.string	"ThreadC created\n"
 704      61644320 
 704      63726561 
 704      7465640A 
 704      00
 705 00f1 00000000 		.align	3
 705      000000
 706              	.LC17:
 707 00f8 54687265 		.string	"ThreadD created\n"
 707      61644420 
 707      63726561 
 707      7465640A 
 707      00
 708              		.text
 709              		.align	2
 710              		.globl	_Z18Threads_C_API_testv
 712              	_Z18Threads_C_API_testv:
 713              	.LFB24:
  91:Test/Threads_C_API_test.cpp **** 
GAS LISTING /tmp/ccUYvfV2.s 			page 19


  92:Test/Threads_C_API_test.cpp **** 
  93:Test/Threads_C_API_test.cpp **** void Threads_C_API_test() {
 714              		.loc 1 93 27 is_stmt 1
 715              		.cfi_startproc
 716 0494 130101FD 		addi	sp,sp,-48
 717              		.cfi_def_cfa_offset 48
 718 0498 23341102 		sd	ra,40(sp)
 719 049c 23308102 		sd	s0,32(sp)
 720              		.cfi_offset 1, -8
 721              		.cfi_offset 8, -16
 722 04a0 13040103 		addi	s0,sp,48
 723              		.cfi_def_cfa 8, 0
  94:Test/Threads_C_API_test.cpp ****     thread_t threads[4];
 724              		.loc 1 94 5
  95:Test/Threads_C_API_test.cpp ****     thread_create(&threads[0], workerBodyA, nullptr);
 725              		.loc 1 95 5
 726              		.loc 1 95 18 is_stmt 0
 727 04a4 13060000 		li	a2,0
 728 04a8 97050000 		lla	a1,_ZL11workerBodyAPv
 728      93850500 
 729 04b0 130504FD 		addi	a0,s0,-48
 730 04b4 97000000 		call	_Z13thread_createPP3TCBPFvPvES2_@plt
 730      E7800000 
 731              	.LVL92:
  96:Test/Threads_C_API_test.cpp ****     pprintString("ThreadA created\n");
 732              		.loc 1 96 5 is_stmt 1
 733              		.loc 1 96 17 is_stmt 0
 734 04bc 17050000 		lla	a0,.LC14
 734      13050500 
 735 04c4 97000000 		call	_Z12pprintStringPKc@plt
 735      E7800000 
 736              	.LVL93:
  97:Test/Threads_C_API_test.cpp **** 
  98:Test/Threads_C_API_test.cpp ****     thread_create(&threads[1], workerBodyB, nullptr);
 737              		.loc 1 98 5 is_stmt 1
 738              		.loc 1 98 18 is_stmt 0
 739 04cc 13060000 		li	a2,0
 740 04d0 97050000 		lla	a1,_ZL11workerBodyBPv
 740      93850500 
 741 04d8 130584FD 		addi	a0,s0,-40
 742 04dc 97000000 		call	_Z13thread_createPP3TCBPFvPvES2_@plt
 742      E7800000 
 743              	.LVL94:
  99:Test/Threads_C_API_test.cpp ****     pprintString("ThreadB created\n");
 744              		.loc 1 99 5 is_stmt 1
 745              		.loc 1 99 17 is_stmt 0
 746 04e4 17050000 		lla	a0,.LC15
 746      13050500 
 747 04ec 97000000 		call	_Z12pprintStringPKc@plt
 747      E7800000 
 748              	.LVL95:
 100:Test/Threads_C_API_test.cpp **** 
 101:Test/Threads_C_API_test.cpp ****     thread_create(&threads[2], workerBodyC, nullptr);
 749              		.loc 1 101 5 is_stmt 1
 750              		.loc 1 101 18 is_stmt 0
 751 04f4 13060000 		li	a2,0
 752 04f8 97050000 		lla	a1,_ZL11workerBodyCPv
GAS LISTING /tmp/ccUYvfV2.s 			page 20


 752      93850500 
 753 0500 130504FE 		addi	a0,s0,-32
 754 0504 97000000 		call	_Z13thread_createPP3TCBPFvPvES2_@plt
 754      E7800000 
 755              	.LVL96:
 102:Test/Threads_C_API_test.cpp ****     pprintString("ThreadC created\n");
 756              		.loc 1 102 5 is_stmt 1
 757              		.loc 1 102 17 is_stmt 0
 758 050c 17050000 		lla	a0,.LC16
 758      13050500 
 759 0514 97000000 		call	_Z12pprintStringPKc@plt
 759      E7800000 
 760              	.LVL97:
 103:Test/Threads_C_API_test.cpp **** 
 104:Test/Threads_C_API_test.cpp ****     thread_create(&threads[3], workerBodyD, nullptr);
 761              		.loc 1 104 5 is_stmt 1
 762              		.loc 1 104 18 is_stmt 0
 763 051c 13060000 		li	a2,0
 764 0520 97050000 		lla	a1,_ZL11workerBodyDPv
 764      93850500 
 765 0528 130584FE 		addi	a0,s0,-24
 766 052c 97000000 		call	_Z13thread_createPP3TCBPFvPvES2_@plt
 766      E7800000 
 767              	.LVL98:
 105:Test/Threads_C_API_test.cpp ****     pprintString("ThreadD created\n");
 768              		.loc 1 105 5 is_stmt 1
 769              		.loc 1 105 17 is_stmt 0
 770 0534 17050000 		lla	a0,.LC17
 770      13050500 
 771 053c 97000000 		call	_Z12pprintStringPKc@plt
 771      E7800000 
 772              	.LVL99:
 773 0544 6F00C000 		j	.L41
 774              	.L40:
 106:Test/Threads_C_API_test.cpp **** 
 107:Test/Threads_C_API_test.cpp ****     while (!(finishedA && finishedB && finishedC && finishedD)) {
 108:Test/Threads_C_API_test.cpp ****         thread_dispatch();
 775              		.loc 1 108 9 is_stmt 1
 776              		.loc 1 108 24 is_stmt 0
 777 0548 97000000 		call	_Z15thread_dispatchv@plt
 777      E7800000 
 778              	.LVL100:
 779              	.L41:
 107:Test/Threads_C_API_test.cpp ****         thread_dispatch();
 780              		.loc 1 107 5 is_stmt 1
 107:Test/Threads_C_API_test.cpp ****         thread_dispatch();
 781              		.loc 1 107 12
 107:Test/Threads_C_API_test.cpp ****         thread_dispatch();
 782              		.loc 1 107 14 is_stmt 0
 783 0550 97070000 		lbu	a5,.LANCHOR0+3
 783      83C70700 
 107:Test/Threads_C_API_test.cpp ****         thread_dispatch();
 784              		.loc 1 107 12
 785 0558 E38807FE 		beqz	a5,.L40
 107:Test/Threads_C_API_test.cpp ****         thread_dispatch();
 786              		.loc 1 107 27 discriminator 2
 787 055c 97070000 		lbu	a5,.LANCHOR0+2
GAS LISTING /tmp/ccUYvfV2.s 			page 21


 787      83C70700 
 107:Test/Threads_C_API_test.cpp ****         thread_dispatch();
 788              		.loc 1 107 24 discriminator 2
 789 0564 E38207FE 		beqz	a5,.L40
 107:Test/Threads_C_API_test.cpp ****         thread_dispatch();
 790              		.loc 1 107 40 discriminator 4
 791 0568 97070000 		lbu	a5,.LANCHOR0+1
 791      83C70700 
 107:Test/Threads_C_API_test.cpp ****         thread_dispatch();
 792              		.loc 1 107 37 discriminator 4
 793 0570 E38C07FC 		beqz	a5,.L40
 107:Test/Threads_C_API_test.cpp ****         thread_dispatch();
 794              		.loc 1 107 53 discriminator 6
 795 0574 97070000 		lbu	a5,.LANCHOR0
 795      83C70700 
 107:Test/Threads_C_API_test.cpp ****         thread_dispatch();
 796              		.loc 1 107 12 discriminator 6
 797 057c E38607FC 		beqz	a5,.L40
 109:Test/Threads_C_API_test.cpp ****     }
 110:Test/Threads_C_API_test.cpp **** 
 111:Test/Threads_C_API_test.cpp **** }
 798              		.loc 1 111 1
 799 0580 83308102 		ld	ra,40(sp)
 800              		.cfi_restore 1
 801 0584 03340102 		ld	s0,32(sp)
 802              		.cfi_restore 8
 803              		.cfi_def_cfa 2, 48
 804 0588 13010103 		addi	sp,sp,48
 805              		.cfi_def_cfa_offset 0
 806 058c 67800000 		jr	ra
 807              		.cfi_endproc
 808              	.LFE24:
 810              		.bss
 811              		.set	.LANCHOR0,. + 0
 814              	_ZL9finishedD:
 815 0000 00       		.zero	1
 818              	_ZL9finishedC:
 819 0001 00       		.zero	1
 822              	_ZL9finishedB:
 823 0002 00       		.zero	1
 826              	_ZL9finishedA:
 827 0003 00       		.zero	1
 828              		.text
 829              	.Letext0:
 830              		.file 2 "Test/../h/../lib/hw.h"
 831              		.file 3 "Test/../h/TCB.hpp"
 832              		.file 4 "Test/../h/syscall_c.hpp"
 833              		.file 5 "Test/../h/print.hpp"
GAS LISTING /tmp/ccUYvfV2.s 			page 22

