GAS LISTING /tmp/cc8DWlx1.s 			page 1


   1              		.file	"Threads_CPP_API_test.cpp"
   2              		.option pic
   3              		.option norelax
   4              		.text
   5              	.Ltext0:
   6              		.align	2
   8              	_ZL9fibonaccim:
   9              	.LFB28:
  10              		.file 1 "Test/Threads_CPP_API_test.cpp"
   1:Test/Threads_CPP_API_test.cpp **** #include "../h/syscall_cpp.hpp"
   2:Test/Threads_CPP_API_test.cpp **** #include "../h/syscall_c.hpp"
   3:Test/Threads_CPP_API_test.cpp **** #include "../h/print.hpp"
   4:Test/Threads_CPP_API_test.cpp **** 
   5:Test/Threads_CPP_API_test.cpp **** static volatile bool finishedA = false;
   6:Test/Threads_CPP_API_test.cpp **** static volatile bool finishedB = false;
   7:Test/Threads_CPP_API_test.cpp **** static volatile bool finishedC = false;
   8:Test/Threads_CPP_API_test.cpp **** static volatile bool finishedD = false;
   9:Test/Threads_CPP_API_test.cpp **** 
  10:Test/Threads_CPP_API_test.cpp **** static uint64 fibonacci(uint64 n) {
  11              		.loc 1 10 35
  12              		.cfi_startproc
  13              	.LVL0:
  14 0000 130101FE 		addi	sp,sp,-32
  15              		.cfi_def_cfa_offset 32
  16 0004 233C1100 		sd	ra,24(sp)
  17 0008 23388100 		sd	s0,16(sp)
  18 000c 23349100 		sd	s1,8(sp)
  19 0010 23302101 		sd	s2,0(sp)
  20              		.cfi_offset 1, -8
  21              		.cfi_offset 8, -16
  22              		.cfi_offset 9, -24
  23              		.cfi_offset 18, -32
  24 0014 13040102 		addi	s0,sp,32
  25              		.cfi_def_cfa 8, 0
  26 0018 93040500 		mv	s1,a0
  11:Test/Threads_CPP_API_test.cpp ****     if (n == 0 || n == 1) { return n; }
  27              		.loc 1 11 5
  28 001c 93071000 		li	a5,1
  29 0020 63F8A702 		bleu	a0,a5,.L1
  12:Test/Threads_CPP_API_test.cpp ****     if (n % 10 == 0) { thread_dispatch(); }
  30              		.loc 1 12 5
  31              		.loc 1 12 11 is_stmt 0
  32 0024 9307A000 		li	a5,10
  33 0028 B377F502 		remu	a5,a0,a5
  34              		.loc 1 12 5
  35 002c 638E0702 		beqz	a5,.L6
  36              	.LVL1:
  37              	.L3:
  13:Test/Threads_CPP_API_test.cpp ****     return fibonacci(n - 1) + fibonacci(n - 2);
  38              		.loc 1 13 5 is_stmt 1
  39              		.loc 1 13 21 is_stmt 0
  40 0030 1385F4FF 		addi	a0,s1,-1
  41 0034 97000000 		call	_ZL9fibonaccim
  41      E7800000 
  42              	.LVL2:
  43 003c 13090500 		mv	s2,a0
  44              		.loc 1 13 40
GAS LISTING /tmp/cc8DWlx1.s 			page 2


  45 0040 1385E4FF 		addi	a0,s1,-2
  46 0044 97000000 		call	_ZL9fibonaccim
  46      E7800000 
  47              	.LVL3:
  48              		.loc 1 13 46
  49 004c 3305A900 		add	a0,s2,a0
  50              	.L1:
  14:Test/Threads_CPP_API_test.cpp **** }
  51              		.loc 1 14 1
  52 0050 83308101 		ld	ra,24(sp)
  53              		.cfi_remember_state
  54              		.cfi_restore 1
  55 0054 03340101 		ld	s0,16(sp)
  56              		.cfi_restore 8
  57              		.cfi_def_cfa 2, 32
  58 0058 83348100 		ld	s1,8(sp)
  59              		.cfi_restore 9
  60              	.LVL4:
  61 005c 03390100 		ld	s2,0(sp)
  62              		.cfi_restore 18
  63 0060 13010102 		addi	sp,sp,32
  64              		.cfi_def_cfa_offset 0
  65 0064 67800000 		jr	ra
  66              	.LVL5:
  67              	.L6:
  68              		.cfi_restore_state
  12:Test/Threads_CPP_API_test.cpp ****     if (n % 10 == 0) { thread_dispatch(); }
  69              		.loc 1 12 24 is_stmt 1 discriminator 1
  12:Test/Threads_CPP_API_test.cpp ****     if (n % 10 == 0) { thread_dispatch(); }
  70              		.loc 1 12 39 is_stmt 0 discriminator 1
  71 0068 97000000 		call	_Z15thread_dispatchv@plt
  71      E7800000 
  72              	.LVL6:
  73 0070 6FF01FFC 		j	.L3
  74              		.cfi_endproc
  75              	.LFE28:
  77              		.section	.text._ZN7WorkerAD2Ev,"axG",@progbits,_ZN7WorkerAD5Ev,comdat
  78              		.align	2
  79              		.weak	_ZN7WorkerAD2Ev
  81              	_ZN7WorkerAD2Ev:
  82              	.LFB63:
  15:Test/Threads_CPP_API_test.cpp **** 
  16:Test/Threads_CPP_API_test.cpp **** class WorkerA: public Thread {
  83              		.loc 1 16 7 is_stmt 1
  84              		.cfi_startproc
  85              	.LVL7:
  86 0000 130101FF 		addi	sp,sp,-16
  87              		.cfi_def_cfa_offset 16
  88 0004 23341100 		sd	ra,8(sp)
  89 0008 23308100 		sd	s0,0(sp)
  90              		.cfi_offset 1, -8
  91              		.cfi_offset 8, -16
  92 000c 13040101 		addi	s0,sp,16
  93              		.cfi_def_cfa 8, 0
  94              	.LBB28:
  95              		.loc 1 16 7 is_stmt 0
  96 0010 97070000 		lla	a5,_ZTV7WorkerA+16
GAS LISTING /tmp/cc8DWlx1.s 			page 3


  96      93870700 
  97 0018 2330F500 		sd	a5,0(a0)
  98 001c 97000000 		call	_ZN6ThreadD2Ev@plt
  98      E7800000 
  99              	.LVL8:
 100              	.LBE28:
 101 0024 83308100 		ld	ra,8(sp)
 102              		.cfi_restore 1
 103 0028 03340100 		ld	s0,0(sp)
 104              		.cfi_restore 8
 105              		.cfi_def_cfa 2, 16
 106 002c 13010101 		addi	sp,sp,16
 107              		.cfi_def_cfa_offset 0
 108 0030 67800000 		jr	ra
 109              		.cfi_endproc
 110              	.LFE63:
 112              		.weak	_ZN7WorkerAD1Ev
 113              		.set	_ZN7WorkerAD1Ev,_ZN7WorkerAD2Ev
 114              		.section	.text._ZN7WorkerAD0Ev,"axG",@progbits,_ZN7WorkerAD5Ev,comdat
 115              		.align	2
 116              		.weak	_ZN7WorkerAD0Ev
 118              	_ZN7WorkerAD0Ev:
 119              	.LFB65:
 120              		.loc 1 16 7 is_stmt 1
 121              		.cfi_startproc
 122              	.LVL9:
 123 0000 130101FE 		addi	sp,sp,-32
 124              		.cfi_def_cfa_offset 32
 125 0004 233C1100 		sd	ra,24(sp)
 126 0008 23388100 		sd	s0,16(sp)
 127 000c 23349100 		sd	s1,8(sp)
 128              		.cfi_offset 1, -8
 129              		.cfi_offset 8, -16
 130              		.cfi_offset 9, -24
 131 0010 13040102 		addi	s0,sp,32
 132              		.cfi_def_cfa 8, 0
 133 0014 93040500 		mv	s1,a0
 134              	.LVL10:
 135              	.LBB29:
 136              	.LBB30:
 137              		.loc 1 16 7 is_stmt 0
 138 0018 97070000 		lla	a5,_ZTV7WorkerA+16
 138      93870700 
 139 0020 2330F500 		sd	a5,0(a0)
 140 0024 97000000 		call	_ZN6ThreadD2Ev@plt
 140      E7800000 
 141              	.LVL11:
 142              	.LBE30:
 143              	.LBE29:
 144 002c 13850400 		mv	a0,s1
 145 0030 97000000 		call	_ZdlPv@plt
 145      E7800000 
 146              	.LVL12:
 147 0038 83308101 		ld	ra,24(sp)
 148              		.cfi_restore 1
 149 003c 03340101 		ld	s0,16(sp)
 150              		.cfi_restore 8
GAS LISTING /tmp/cc8DWlx1.s 			page 4


 151              		.cfi_def_cfa 2, 32
 152 0040 83348100 		ld	s1,8(sp)
 153              		.cfi_restore 9
 154              	.LVL13:
 155 0044 13010102 		addi	sp,sp,32
 156              		.cfi_def_cfa_offset 0
 157 0048 67800000 		jr	ra
 158              		.cfi_endproc
 159              	.LFE65:
 161              		.section	.text._ZN7WorkerBD2Ev,"axG",@progbits,_ZN7WorkerBD5Ev,comdat
 162              		.align	2
 163              		.weak	_ZN7WorkerBD2Ev
 165              	_ZN7WorkerBD2Ev:
 166              	.LFB59:
  17:Test/Threads_CPP_API_test.cpp ****     void workerBodyA(void* arg);
  18:Test/Threads_CPP_API_test.cpp **** public:
  19:Test/Threads_CPP_API_test.cpp ****     WorkerA():Thread() {}
  20:Test/Threads_CPP_API_test.cpp **** 
  21:Test/Threads_CPP_API_test.cpp ****     void run() override {
  22:Test/Threads_CPP_API_test.cpp ****         workerBodyA(nullptr);
  23:Test/Threads_CPP_API_test.cpp ****     }
  24:Test/Threads_CPP_API_test.cpp **** };
  25:Test/Threads_CPP_API_test.cpp **** 
  26:Test/Threads_CPP_API_test.cpp **** class WorkerB: public Thread {
 167              		.loc 1 26 7 is_stmt 1
 168              		.cfi_startproc
 169              	.LVL14:
 170 0000 130101FF 		addi	sp,sp,-16
 171              		.cfi_def_cfa_offset 16
 172 0004 23341100 		sd	ra,8(sp)
 173 0008 23308100 		sd	s0,0(sp)
 174              		.cfi_offset 1, -8
 175              		.cfi_offset 8, -16
 176 000c 13040101 		addi	s0,sp,16
 177              		.cfi_def_cfa 8, 0
 178              	.LBB31:
 179              		.loc 1 26 7 is_stmt 0
 180 0010 97070000 		lla	a5,_ZTV7WorkerB+16
 180      93870700 
 181 0018 2330F500 		sd	a5,0(a0)
 182 001c 97000000 		call	_ZN6ThreadD2Ev@plt
 182      E7800000 
 183              	.LVL15:
 184              	.LBE31:
 185 0024 83308100 		ld	ra,8(sp)
 186              		.cfi_restore 1
 187 0028 03340100 		ld	s0,0(sp)
 188              		.cfi_restore 8
 189              		.cfi_def_cfa 2, 16
 190 002c 13010101 		addi	sp,sp,16
 191              		.cfi_def_cfa_offset 0
 192 0030 67800000 		jr	ra
 193              		.cfi_endproc
 194              	.LFE59:
 196              		.weak	_ZN7WorkerBD1Ev
 197              		.set	_ZN7WorkerBD1Ev,_ZN7WorkerBD2Ev
 198              		.section	.text._ZN7WorkerBD0Ev,"axG",@progbits,_ZN7WorkerBD5Ev,comdat
GAS LISTING /tmp/cc8DWlx1.s 			page 5


 199              		.align	2
 200              		.weak	_ZN7WorkerBD0Ev
 202              	_ZN7WorkerBD0Ev:
 203              	.LFB61:
 204              		.loc 1 26 7 is_stmt 1
 205              		.cfi_startproc
 206              	.LVL16:
 207 0000 130101FE 		addi	sp,sp,-32
 208              		.cfi_def_cfa_offset 32
 209 0004 233C1100 		sd	ra,24(sp)
 210 0008 23388100 		sd	s0,16(sp)
 211 000c 23349100 		sd	s1,8(sp)
 212              		.cfi_offset 1, -8
 213              		.cfi_offset 8, -16
 214              		.cfi_offset 9, -24
 215 0010 13040102 		addi	s0,sp,32
 216              		.cfi_def_cfa 8, 0
 217 0014 93040500 		mv	s1,a0
 218              	.LVL17:
 219              	.LBB32:
 220              	.LBB33:
 221              		.loc 1 26 7 is_stmt 0
 222 0018 97070000 		lla	a5,_ZTV7WorkerB+16
 222      93870700 
 223 0020 2330F500 		sd	a5,0(a0)
 224 0024 97000000 		call	_ZN6ThreadD2Ev@plt
 224      E7800000 
 225              	.LVL18:
 226              	.LBE33:
 227              	.LBE32:
 228 002c 13850400 		mv	a0,s1
 229 0030 97000000 		call	_ZdlPv@plt
 229      E7800000 
 230              	.LVL19:
 231 0038 83308101 		ld	ra,24(sp)
 232              		.cfi_restore 1
 233 003c 03340101 		ld	s0,16(sp)
 234              		.cfi_restore 8
 235              		.cfi_def_cfa 2, 32
 236 0040 83348100 		ld	s1,8(sp)
 237              		.cfi_restore 9
 238              	.LVL20:
 239 0044 13010102 		addi	sp,sp,32
 240              		.cfi_def_cfa_offset 0
 241 0048 67800000 		jr	ra
 242              		.cfi_endproc
 243              	.LFE61:
 245              		.section	.text._ZN7WorkerCD2Ev,"axG",@progbits,_ZN7WorkerCD5Ev,comdat
 246              		.align	2
 247              		.weak	_ZN7WorkerCD2Ev
 249              	_ZN7WorkerCD2Ev:
 250              	.LFB55:
  27:Test/Threads_CPP_API_test.cpp ****     void workerBodyB(void* arg);
  28:Test/Threads_CPP_API_test.cpp **** public:
  29:Test/Threads_CPP_API_test.cpp ****     WorkerB():Thread() {}
  30:Test/Threads_CPP_API_test.cpp **** 
  31:Test/Threads_CPP_API_test.cpp ****     void run() override {
GAS LISTING /tmp/cc8DWlx1.s 			page 6


  32:Test/Threads_CPP_API_test.cpp ****         workerBodyB(nullptr);
  33:Test/Threads_CPP_API_test.cpp ****     }
  34:Test/Threads_CPP_API_test.cpp **** };
  35:Test/Threads_CPP_API_test.cpp **** 
  36:Test/Threads_CPP_API_test.cpp **** class WorkerC: public Thread {
 251              		.loc 1 36 7 is_stmt 1
 252              		.cfi_startproc
 253              	.LVL21:
 254 0000 130101FF 		addi	sp,sp,-16
 255              		.cfi_def_cfa_offset 16
 256 0004 23341100 		sd	ra,8(sp)
 257 0008 23308100 		sd	s0,0(sp)
 258              		.cfi_offset 1, -8
 259              		.cfi_offset 8, -16
 260 000c 13040101 		addi	s0,sp,16
 261              		.cfi_def_cfa 8, 0
 262              	.LBB34:
 263              		.loc 1 36 7 is_stmt 0
 264 0010 97070000 		lla	a5,_ZTV7WorkerC+16
 264      93870700 
 265 0018 2330F500 		sd	a5,0(a0)
 266 001c 97000000 		call	_ZN6ThreadD2Ev@plt
 266      E7800000 
 267              	.LVL22:
 268              	.LBE34:
 269 0024 83308100 		ld	ra,8(sp)
 270              		.cfi_restore 1
 271 0028 03340100 		ld	s0,0(sp)
 272              		.cfi_restore 8
 273              		.cfi_def_cfa 2, 16
 274 002c 13010101 		addi	sp,sp,16
 275              		.cfi_def_cfa_offset 0
 276 0030 67800000 		jr	ra
 277              		.cfi_endproc
 278              	.LFE55:
 280              		.weak	_ZN7WorkerCD1Ev
 281              		.set	_ZN7WorkerCD1Ev,_ZN7WorkerCD2Ev
 282              		.section	.text._ZN7WorkerCD0Ev,"axG",@progbits,_ZN7WorkerCD5Ev,comdat
 283              		.align	2
 284              		.weak	_ZN7WorkerCD0Ev
 286              	_ZN7WorkerCD0Ev:
 287              	.LFB57:
 288              		.loc 1 36 7 is_stmt 1
 289              		.cfi_startproc
 290              	.LVL23:
 291 0000 130101FE 		addi	sp,sp,-32
 292              		.cfi_def_cfa_offset 32
 293 0004 233C1100 		sd	ra,24(sp)
 294 0008 23388100 		sd	s0,16(sp)
 295 000c 23349100 		sd	s1,8(sp)
 296              		.cfi_offset 1, -8
 297              		.cfi_offset 8, -16
 298              		.cfi_offset 9, -24
 299 0010 13040102 		addi	s0,sp,32
 300              		.cfi_def_cfa 8, 0
 301 0014 93040500 		mv	s1,a0
 302              	.LVL24:
GAS LISTING /tmp/cc8DWlx1.s 			page 7


 303              	.LBB35:
 304              	.LBB36:
 305              		.loc 1 36 7 is_stmt 0
 306 0018 97070000 		lla	a5,_ZTV7WorkerC+16
 306      93870700 
 307 0020 2330F500 		sd	a5,0(a0)
 308 0024 97000000 		call	_ZN6ThreadD2Ev@plt
 308      E7800000 
 309              	.LVL25:
 310              	.LBE36:
 311              	.LBE35:
 312 002c 13850400 		mv	a0,s1
 313 0030 97000000 		call	_ZdlPv@plt
 313      E7800000 
 314              	.LVL26:
 315 0038 83308101 		ld	ra,24(sp)
 316              		.cfi_restore 1
 317 003c 03340101 		ld	s0,16(sp)
 318              		.cfi_restore 8
 319              		.cfi_def_cfa 2, 32
 320 0040 83348100 		ld	s1,8(sp)
 321              		.cfi_restore 9
 322              	.LVL27:
 323 0044 13010102 		addi	sp,sp,32
 324              		.cfi_def_cfa_offset 0
 325 0048 67800000 		jr	ra
 326              		.cfi_endproc
 327              	.LFE57:
 329              		.section	.text._ZN7WorkerDD2Ev,"axG",@progbits,_ZN7WorkerDD5Ev,comdat
 330              		.align	2
 331              		.weak	_ZN7WorkerDD2Ev
 333              	_ZN7WorkerDD2Ev:
 334              	.LFB51:
  37:Test/Threads_CPP_API_test.cpp ****     void workerBodyC(void* arg);
  38:Test/Threads_CPP_API_test.cpp **** public:
  39:Test/Threads_CPP_API_test.cpp ****     WorkerC():Thread() {}
  40:Test/Threads_CPP_API_test.cpp **** 
  41:Test/Threads_CPP_API_test.cpp ****     void run() override {
  42:Test/Threads_CPP_API_test.cpp ****         workerBodyC(nullptr);
  43:Test/Threads_CPP_API_test.cpp ****     }
  44:Test/Threads_CPP_API_test.cpp **** };
  45:Test/Threads_CPP_API_test.cpp **** 
  46:Test/Threads_CPP_API_test.cpp **** class WorkerD: public Thread {
 335              		.loc 1 46 7 is_stmt 1
 336              		.cfi_startproc
 337              	.LVL28:
 338 0000 130101FF 		addi	sp,sp,-16
 339              		.cfi_def_cfa_offset 16
 340 0004 23341100 		sd	ra,8(sp)
 341 0008 23308100 		sd	s0,0(sp)
 342              		.cfi_offset 1, -8
 343              		.cfi_offset 8, -16
 344 000c 13040101 		addi	s0,sp,16
 345              		.cfi_def_cfa 8, 0
 346              	.LBB37:
 347              		.loc 1 46 7 is_stmt 0
 348 0010 97070000 		lla	a5,_ZTV7WorkerD+16
GAS LISTING /tmp/cc8DWlx1.s 			page 8


 348      93870700 
 349 0018 2330F500 		sd	a5,0(a0)
 350 001c 97000000 		call	_ZN6ThreadD2Ev@plt
 350      E7800000 
 351              	.LVL29:
 352              	.LBE37:
 353 0024 83308100 		ld	ra,8(sp)
 354              		.cfi_restore 1
 355 0028 03340100 		ld	s0,0(sp)
 356              		.cfi_restore 8
 357              		.cfi_def_cfa 2, 16
 358 002c 13010101 		addi	sp,sp,16
 359              		.cfi_def_cfa_offset 0
 360 0030 67800000 		jr	ra
 361              		.cfi_endproc
 362              	.LFE51:
 364              		.weak	_ZN7WorkerDD1Ev
 365              		.set	_ZN7WorkerDD1Ev,_ZN7WorkerDD2Ev
 366              		.section	.text._ZN7WorkerDD0Ev,"axG",@progbits,_ZN7WorkerDD5Ev,comdat
 367              		.align	2
 368              		.weak	_ZN7WorkerDD0Ev
 370              	_ZN7WorkerDD0Ev:
 371              	.LFB53:
 372              		.loc 1 46 7 is_stmt 1
 373              		.cfi_startproc
 374              	.LVL30:
 375 0000 130101FE 		addi	sp,sp,-32
 376              		.cfi_def_cfa_offset 32
 377 0004 233C1100 		sd	ra,24(sp)
 378 0008 23388100 		sd	s0,16(sp)
 379 000c 23349100 		sd	s1,8(sp)
 380              		.cfi_offset 1, -8
 381              		.cfi_offset 8, -16
 382              		.cfi_offset 9, -24
 383 0010 13040102 		addi	s0,sp,32
 384              		.cfi_def_cfa 8, 0
 385 0014 93040500 		mv	s1,a0
 386              	.LVL31:
 387              	.LBB38:
 388              	.LBB39:
 389              		.loc 1 46 7 is_stmt 0
 390 0018 97070000 		lla	a5,_ZTV7WorkerD+16
 390      93870700 
 391 0020 2330F500 		sd	a5,0(a0)
 392 0024 97000000 		call	_ZN6ThreadD2Ev@plt
 392      E7800000 
 393              	.LVL32:
 394              	.LBE39:
 395              	.LBE38:
 396 002c 13850400 		mv	a0,s1
 397 0030 97000000 		call	_ZdlPv@plt
 397      E7800000 
 398              	.LVL33:
 399 0038 83308101 		ld	ra,24(sp)
 400              		.cfi_restore 1
 401 003c 03340101 		ld	s0,16(sp)
 402              		.cfi_restore 8
GAS LISTING /tmp/cc8DWlx1.s 			page 9


 403              		.cfi_def_cfa 2, 32
 404 0040 83348100 		ld	s1,8(sp)
 405              		.cfi_restore 9
 406              	.LVL34:
 407 0044 13010102 		addi	sp,sp,32
 408              		.cfi_def_cfa_offset 0
 409 0048 67800000 		jr	ra
 410              		.cfi_endproc
 411              	.LFE53:
 413              		.section	.rodata.str1.8,"aMS",@progbits,1
 414              		.align	3
 415              	.LC0:
 416 0000 413A2069 		.string	"A: i="
 416      3D00
 417 0006 0000     		.align	3
 418              	.LC1:
 419 0008 0A00     		.string	"\n"
 420 000a 00000000 		.align	3
 420      0000
 421              	.LC2:
 422 0010 41206669 		.string	"A finished!\n"
 422      6E697368 
 422      6564210A 
 422      00
 423              		.text
 424              		.align	2
 425              		.globl	_ZN7WorkerA11workerBodyAEPv
 427              	_ZN7WorkerA11workerBodyAEPv:
 428              	.LFB45:
  47:Test/Threads_CPP_API_test.cpp ****     void workerBodyD(void* arg);
  48:Test/Threads_CPP_API_test.cpp **** public:
  49:Test/Threads_CPP_API_test.cpp ****     WorkerD():Thread() {}
  50:Test/Threads_CPP_API_test.cpp **** 
  51:Test/Threads_CPP_API_test.cpp ****     void run() override {
  52:Test/Threads_CPP_API_test.cpp ****         workerBodyD(nullptr);
  53:Test/Threads_CPP_API_test.cpp ****     }
  54:Test/Threads_CPP_API_test.cpp **** };
  55:Test/Threads_CPP_API_test.cpp **** 
  56:Test/Threads_CPP_API_test.cpp **** void WorkerA::workerBodyA(void *arg) {
 429              		.loc 1 56 38 is_stmt 1
 430              		.cfi_startproc
 431              	.LVL35:
 432 0074 130101FE 		addi	sp,sp,-32
 433              		.cfi_def_cfa_offset 32
 434 0078 233C1100 		sd	ra,24(sp)
 435 007c 23388100 		sd	s0,16(sp)
 436 0080 23349100 		sd	s1,8(sp)
 437 0084 23302101 		sd	s2,0(sp)
 438              		.cfi_offset 1, -8
 439              		.cfi_offset 8, -16
 440              		.cfi_offset 9, -24
 441              		.cfi_offset 18, -32
 442 0088 13040102 		addi	s0,sp,32
 443              		.cfi_def_cfa 8, 0
  57:Test/Threads_CPP_API_test.cpp ****     for (uint64 i = 0; i < 10; i++) {
 444              		.loc 1 57 5
 445              	.LVL36:
GAS LISTING /tmp/cc8DWlx1.s 			page 10


 446              	.LBB40:
 447              		.loc 1 57 17 is_stmt 0
 448 008c 13090000 		li	s2,0
 449 0090 6F008003 		j	.L29
 450              	.LVL37:
 451              	.L26:
 452              	.LBB41:
 453              	.LBB42:
 454              	.LBB43:
  58:Test/Threads_CPP_API_test.cpp ****         printString("A: i="); printInteger(i); printString("\n");
  59:Test/Threads_CPP_API_test.cpp ****         for (uint64 j = 0; j < 10000; j++) {
  60:Test/Threads_CPP_API_test.cpp ****             for (uint64 k = 0; k < 30000; k++) { /* busy wait */ }
  61:Test/Threads_CPP_API_test.cpp ****             thread_dispatch();
 455              		.loc 1 61 13 is_stmt 1 discriminator 2
 456              		.loc 1 61 28 is_stmt 0 discriminator 2
 457 0094 97000000 		call	_Z15thread_dispatchv@plt
 457      E7800000 
 458              	.LVL38:
 459              	.LBE43:
  59:Test/Threads_CPP_API_test.cpp ****             for (uint64 k = 0; k < 30000; k++) { /* busy wait */ }
 460              		.loc 1 59 9 is_stmt 1 discriminator 2
 461 009c 93841400 		addi	s1,s1,1
 462              	.LVL39:
 463              	.L28:
  59:Test/Threads_CPP_API_test.cpp ****             for (uint64 k = 0; k < 30000; k++) { /* busy wait */ }
 464              		.loc 1 59 30 discriminator 1
 465 00a0 B7270000 		li	a5,8192
 466 00a4 9387F770 		addi	a5,a5,1807
 467 00a8 63EE9700 		bgtu	s1,a5,.L25
 468              	.LBB45:
 469              	.LBB44:
  60:Test/Threads_CPP_API_test.cpp ****             thread_dispatch();
 470              		.loc 1 60 25 is_stmt 0
 471 00ac 13070000 		li	a4,0
 472              	.L27:
 473              	.LVL40:
  60:Test/Threads_CPP_API_test.cpp ****             thread_dispatch();
 474              		.loc 1 60 34 is_stmt 1 discriminator 3
 475 00b0 B7770000 		li	a5,28672
 476 00b4 9387F752 		addi	a5,a5,1327
 477 00b8 E3EEE7FC 		bgtu	a4,a5,.L26
  60:Test/Threads_CPP_API_test.cpp ****             thread_dispatch();
 478              		.loc 1 60 13 discriminator 2
 479 00bc 13071700 		addi	a4,a4,1
 480              	.LVL41:
 481 00c0 6FF01FFF 		j	.L27
 482              	.LVL42:
 483              	.L25:
 484              	.LBE44:
 485              	.LBE45:
 486              	.LBE42:
 487              	.LBE41:
  57:Test/Threads_CPP_API_test.cpp ****         printString("A: i="); printInteger(i); printString("\n");
 488              		.loc 1 57 5 discriminator 2
 489 00c4 13091900 		addi	s2,s2,1
 490              	.LVL43:
 491              	.L29:
GAS LISTING /tmp/cc8DWlx1.s 			page 11


  57:Test/Threads_CPP_API_test.cpp ****         printString("A: i="); printInteger(i); printString("\n");
 492              		.loc 1 57 26 discriminator 1
 493 00c8 93079000 		li	a5,9
 494 00cc 63EC2703 		bgtu	s2,a5,.L24
 495              	.LBB47:
  58:Test/Threads_CPP_API_test.cpp ****         for (uint64 j = 0; j < 10000; j++) {
 496              		.loc 1 58 9
  58:Test/Threads_CPP_API_test.cpp ****         for (uint64 j = 0; j < 10000; j++) {
 497              		.loc 1 58 20 is_stmt 0
 498 00d0 17050000 		lla	a0,.LC0
 498      13050500 
 499 00d8 97000000 		call	_Z11printStringPKc@plt
 499      E7800000 
 500              	.LVL44:
  58:Test/Threads_CPP_API_test.cpp ****         for (uint64 j = 0; j < 10000; j++) {
 501              		.loc 1 58 31 is_stmt 1
  58:Test/Threads_CPP_API_test.cpp ****         for (uint64 j = 0; j < 10000; j++) {
 502              		.loc 1 58 43 is_stmt 0
 503 00e0 13050900 		mv	a0,s2
 504 00e4 97000000 		call	_Z12printIntegerm@plt
 504      E7800000 
 505              	.LVL45:
  58:Test/Threads_CPP_API_test.cpp ****         for (uint64 j = 0; j < 10000; j++) {
 506              		.loc 1 58 48 is_stmt 1
  58:Test/Threads_CPP_API_test.cpp ****         for (uint64 j = 0; j < 10000; j++) {
 507              		.loc 1 58 59 is_stmt 0
 508 00ec 17050000 		lla	a0,.LC1
 508      13050500 
 509 00f4 97000000 		call	_Z11printStringPKc@plt
 509      E7800000 
 510              	.LVL46:
  59:Test/Threads_CPP_API_test.cpp ****             for (uint64 k = 0; k < 30000; k++) { /* busy wait */ }
 511              		.loc 1 59 9 is_stmt 1
 512              	.LBB46:
  59:Test/Threads_CPP_API_test.cpp ****             for (uint64 k = 0; k < 30000; k++) { /* busy wait */ }
 513              		.loc 1 59 21 is_stmt 0
 514 00fc 93040000 		li	s1,0
 515 0100 6FF01FFA 		j	.L28
 516              	.LVL47:
 517              	.L24:
 518              	.LBE46:
 519              	.LBE47:
 520              	.LBE40:
  62:Test/Threads_CPP_API_test.cpp ****         }
  63:Test/Threads_CPP_API_test.cpp ****     }
  64:Test/Threads_CPP_API_test.cpp ****     printString("A finished!\n");
 521              		.loc 1 64 5 is_stmt 1
 522              		.loc 1 64 16 is_stmt 0
 523 0104 17050000 		lla	a0,.LC2
 523      13050500 
 524 010c 97000000 		call	_Z11printStringPKc@plt
 524      E7800000 
 525              	.LVL48:
  65:Test/Threads_CPP_API_test.cpp ****     finishedA = true;
 526              		.loc 1 65 5 is_stmt 1
 527              		.loc 1 65 15 is_stmt 0
 528 0114 93071000 		li	a5,1
GAS LISTING /tmp/cc8DWlx1.s 			page 12


 529 0118 17070000 		sb	a5,.LANCHOR0,a4
 529      2300F700 
  66:Test/Threads_CPP_API_test.cpp **** }
 530              		.loc 1 66 1
 531 0120 83308101 		ld	ra,24(sp)
 532              		.cfi_restore 1
 533 0124 03340101 		ld	s0,16(sp)
 534              		.cfi_restore 8
 535              		.cfi_def_cfa 2, 32
 536 0128 83348100 		ld	s1,8(sp)
 537              		.cfi_restore 9
 538 012c 03390100 		ld	s2,0(sp)
 539              		.cfi_restore 18
 540              	.LVL49:
 541 0130 13010102 		addi	sp,sp,32
 542              		.cfi_def_cfa_offset 0
 543 0134 67800000 		jr	ra
 544              		.cfi_endproc
 545              	.LFE45:
 547              		.section	.text._ZN7WorkerA3runEv,"axG",@progbits,_ZN7WorkerA3runEv,comdat
 548              		.align	2
 549              		.weak	_ZN7WorkerA3runEv
 551              	_ZN7WorkerA3runEv:
 552              	.LFB32:
  21:Test/Threads_CPP_API_test.cpp ****         workerBodyA(nullptr);
 553              		.loc 1 21 10 is_stmt 1
 554              		.cfi_startproc
 555              	.LVL50:
 556 0000 130101FF 		addi	sp,sp,-16
 557              		.cfi_def_cfa_offset 16
 558 0004 23341100 		sd	ra,8(sp)
 559 0008 23308100 		sd	s0,0(sp)
 560              		.cfi_offset 1, -8
 561              		.cfi_offset 8, -16
 562 000c 13040101 		addi	s0,sp,16
 563              		.cfi_def_cfa 8, 0
  22:Test/Threads_CPP_API_test.cpp ****     }
 564              		.loc 1 22 9
  22:Test/Threads_CPP_API_test.cpp ****     }
 565              		.loc 1 22 20 is_stmt 0
 566 0010 93050000 		li	a1,0
 567 0014 97000000 		call	_ZN7WorkerA11workerBodyAEPv
 567      E7800000 
 568              	.LVL51:
  23:Test/Threads_CPP_API_test.cpp **** };
 569              		.loc 1 23 5
 570 001c 83308100 		ld	ra,8(sp)
 571              		.cfi_restore 1
 572 0020 03340100 		ld	s0,0(sp)
 573              		.cfi_restore 8
 574              		.cfi_def_cfa 2, 16
 575 0024 13010101 		addi	sp,sp,16
 576              		.cfi_def_cfa_offset 0
 577 0028 67800000 		jr	ra
 578              		.cfi_endproc
 579              	.LFE32:
 581              		.section	.rodata.str1.8
GAS LISTING /tmp/cc8DWlx1.s 			page 13


 582 001d 000000   		.align	3
 583              	.LC3:
 584 0020 423A2069 		.string	"B: i="
 584      3D00
 585 0026 0000     		.align	3
 586              	.LC4:
 587 0028 42206669 		.string	"B finished!\n"
 587      6E697368 
 587      6564210A 
 587      00
 588              		.text
 589              		.align	2
 590              		.globl	_ZN7WorkerB11workerBodyBEPv
 592              	_ZN7WorkerB11workerBodyBEPv:
 593              	.LFB46:
  67:Test/Threads_CPP_API_test.cpp **** 
  68:Test/Threads_CPP_API_test.cpp **** void WorkerB::workerBodyB(void *arg) {
 594              		.loc 1 68 38 is_stmt 1
 595              		.cfi_startproc
 596              	.LVL52:
 597 0138 130101FE 		addi	sp,sp,-32
 598              		.cfi_def_cfa_offset 32
 599 013c 233C1100 		sd	ra,24(sp)
 600 0140 23388100 		sd	s0,16(sp)
 601 0144 23349100 		sd	s1,8(sp)
 602 0148 23302101 		sd	s2,0(sp)
 603              		.cfi_offset 1, -8
 604              		.cfi_offset 8, -16
 605              		.cfi_offset 9, -24
 606              		.cfi_offset 18, -32
 607 014c 13040102 		addi	s0,sp,32
 608              		.cfi_def_cfa 8, 0
  69:Test/Threads_CPP_API_test.cpp ****     for (uint64 i = 0; i < 16; i++) {
 609              		.loc 1 69 5
 610              	.LVL53:
 611              	.LBB48:
 612              		.loc 1 69 17 is_stmt 0
 613 0150 13090000 		li	s2,0
 614 0154 6F008003 		j	.L39
 615              	.LVL54:
 616              	.L36:
 617              	.LBB49:
 618              	.LBB50:
 619              	.LBB51:
  70:Test/Threads_CPP_API_test.cpp ****         printString("B: i="); printInteger(i); printString("\n");
  71:Test/Threads_CPP_API_test.cpp ****         for (uint64 j = 0; j < 10000; j++) {
  72:Test/Threads_CPP_API_test.cpp ****             for (uint64 k = 0; k < 30000; k++) { /* busy wait */ }
  73:Test/Threads_CPP_API_test.cpp ****             thread_dispatch();
 620              		.loc 1 73 13 is_stmt 1 discriminator 2
 621              		.loc 1 73 28 is_stmt 0 discriminator 2
 622 0158 97000000 		call	_Z15thread_dispatchv@plt
 622      E7800000 
 623              	.LVL55:
 624              	.LBE51:
  71:Test/Threads_CPP_API_test.cpp ****             for (uint64 k = 0; k < 30000; k++) { /* busy wait */ }
 625              		.loc 1 71 9 is_stmt 1 discriminator 2
 626 0160 93841400 		addi	s1,s1,1
GAS LISTING /tmp/cc8DWlx1.s 			page 14


 627              	.LVL56:
 628              	.L38:
  71:Test/Threads_CPP_API_test.cpp ****             for (uint64 k = 0; k < 30000; k++) { /* busy wait */ }
 629              		.loc 1 71 30 discriminator 1
 630 0164 B7270000 		li	a5,8192
 631 0168 9387F770 		addi	a5,a5,1807
 632 016c 63EE9700 		bgtu	s1,a5,.L35
 633              	.LBB53:
 634              	.LBB52:
  72:Test/Threads_CPP_API_test.cpp ****             thread_dispatch();
 635              		.loc 1 72 25 is_stmt 0
 636 0170 13070000 		li	a4,0
 637              	.L37:
 638              	.LVL57:
  72:Test/Threads_CPP_API_test.cpp ****             thread_dispatch();
 639              		.loc 1 72 34 is_stmt 1 discriminator 3
 640 0174 B7770000 		li	a5,28672
 641 0178 9387F752 		addi	a5,a5,1327
 642 017c E3EEE7FC 		bgtu	a4,a5,.L36
  72:Test/Threads_CPP_API_test.cpp ****             thread_dispatch();
 643              		.loc 1 72 13 discriminator 2
 644 0180 13071700 		addi	a4,a4,1
 645              	.LVL58:
 646 0184 6FF01FFF 		j	.L37
 647              	.LVL59:
 648              	.L35:
 649              	.LBE52:
 650              	.LBE53:
 651              	.LBE50:
 652              	.LBE49:
  69:Test/Threads_CPP_API_test.cpp ****         printString("B: i="); printInteger(i); printString("\n");
 653              		.loc 1 69 5 discriminator 2
 654 0188 13091900 		addi	s2,s2,1
 655              	.LVL60:
 656              	.L39:
  69:Test/Threads_CPP_API_test.cpp ****         printString("B: i="); printInteger(i); printString("\n");
 657              		.loc 1 69 26 discriminator 1
 658 018c 9307F000 		li	a5,15
 659 0190 63EC2703 		bgtu	s2,a5,.L34
 660              	.LBB55:
  70:Test/Threads_CPP_API_test.cpp ****         for (uint64 j = 0; j < 10000; j++) {
 661              		.loc 1 70 9
  70:Test/Threads_CPP_API_test.cpp ****         for (uint64 j = 0; j < 10000; j++) {
 662              		.loc 1 70 20 is_stmt 0
 663 0194 17050000 		lla	a0,.LC3
 663      13050500 
 664 019c 97000000 		call	_Z11printStringPKc@plt
 664      E7800000 
 665              	.LVL61:
  70:Test/Threads_CPP_API_test.cpp ****         for (uint64 j = 0; j < 10000; j++) {
 666              		.loc 1 70 31 is_stmt 1
  70:Test/Threads_CPP_API_test.cpp ****         for (uint64 j = 0; j < 10000; j++) {
 667              		.loc 1 70 43 is_stmt 0
 668 01a4 13050900 		mv	a0,s2
 669 01a8 97000000 		call	_Z12printIntegerm@plt
 669      E7800000 
 670              	.LVL62:
GAS LISTING /tmp/cc8DWlx1.s 			page 15


  70:Test/Threads_CPP_API_test.cpp ****         for (uint64 j = 0; j < 10000; j++) {
 671              		.loc 1 70 48 is_stmt 1
  70:Test/Threads_CPP_API_test.cpp ****         for (uint64 j = 0; j < 10000; j++) {
 672              		.loc 1 70 59 is_stmt 0
 673 01b0 17050000 		lla	a0,.LC1
 673      13050500 
 674 01b8 97000000 		call	_Z11printStringPKc@plt
 674      E7800000 
 675              	.LVL63:
  71:Test/Threads_CPP_API_test.cpp ****             for (uint64 k = 0; k < 30000; k++) { /* busy wait */ }
 676              		.loc 1 71 9 is_stmt 1
 677              	.LBB54:
  71:Test/Threads_CPP_API_test.cpp ****             for (uint64 k = 0; k < 30000; k++) { /* busy wait */ }
 678              		.loc 1 71 21 is_stmt 0
 679 01c0 93040000 		li	s1,0
 680 01c4 6FF01FFA 		j	.L38
 681              	.LVL64:
 682              	.L34:
 683              	.LBE54:
 684              	.LBE55:
 685              	.LBE48:
  74:Test/Threads_CPP_API_test.cpp ****         }
  75:Test/Threads_CPP_API_test.cpp ****     }
  76:Test/Threads_CPP_API_test.cpp ****     printString("B finished!\n");
 686              		.loc 1 76 5 is_stmt 1
 687              		.loc 1 76 16 is_stmt 0
 688 01c8 17050000 		lla	a0,.LC4
 688      13050500 
 689 01d0 97000000 		call	_Z11printStringPKc@plt
 689      E7800000 
 690              	.LVL65:
  77:Test/Threads_CPP_API_test.cpp ****     finishedB = true;
 691              		.loc 1 77 5 is_stmt 1
 692              		.loc 1 77 15 is_stmt 0
 693 01d8 93071000 		li	a5,1
 694 01dc 17070000 		sb	a5,.LANCHOR0+1,a4
 694      2300F700 
  78:Test/Threads_CPP_API_test.cpp ****     thread_dispatch();
 695              		.loc 1 78 5 is_stmt 1
 696              		.loc 1 78 20 is_stmt 0
 697 01e4 97000000 		call	_Z15thread_dispatchv@plt
 697      E7800000 
 698              	.LVL66:
  79:Test/Threads_CPP_API_test.cpp **** }
 699              		.loc 1 79 1
 700 01ec 83308101 		ld	ra,24(sp)
 701              		.cfi_restore 1
 702 01f0 03340101 		ld	s0,16(sp)
 703              		.cfi_restore 8
 704              		.cfi_def_cfa 2, 32
 705 01f4 83348100 		ld	s1,8(sp)
 706              		.cfi_restore 9
 707 01f8 03390100 		ld	s2,0(sp)
 708              		.cfi_restore 18
 709              	.LVL67:
 710 01fc 13010102 		addi	sp,sp,32
 711              		.cfi_def_cfa_offset 0
GAS LISTING /tmp/cc8DWlx1.s 			page 16


 712 0200 67800000 		jr	ra
 713              		.cfi_endproc
 714              	.LFE46:
 716              		.section	.text._ZN7WorkerB3runEv,"axG",@progbits,_ZN7WorkerB3runEv,comdat
 717              		.align	2
 718              		.weak	_ZN7WorkerB3runEv
 720              	_ZN7WorkerB3runEv:
 721              	.LFB36:
  31:Test/Threads_CPP_API_test.cpp ****         workerBodyB(nullptr);
 722              		.loc 1 31 10 is_stmt 1
 723              		.cfi_startproc
 724              	.LVL68:
 725 0000 130101FF 		addi	sp,sp,-16
 726              		.cfi_def_cfa_offset 16
 727 0004 23341100 		sd	ra,8(sp)
 728 0008 23308100 		sd	s0,0(sp)
 729              		.cfi_offset 1, -8
 730              		.cfi_offset 8, -16
 731 000c 13040101 		addi	s0,sp,16
 732              		.cfi_def_cfa 8, 0
  32:Test/Threads_CPP_API_test.cpp ****     }
 733              		.loc 1 32 9
  32:Test/Threads_CPP_API_test.cpp ****     }
 734              		.loc 1 32 20 is_stmt 0
 735 0010 93050000 		li	a1,0
 736 0014 97000000 		call	_ZN7WorkerB11workerBodyBEPv
 736      E7800000 
 737              	.LVL69:
  33:Test/Threads_CPP_API_test.cpp **** };
 738              		.loc 1 33 5
 739 001c 83308100 		ld	ra,8(sp)
 740              		.cfi_restore 1
 741 0020 03340100 		ld	s0,0(sp)
 742              		.cfi_restore 8
 743              		.cfi_def_cfa 2, 16
 744 0024 13010101 		addi	sp,sp,16
 745              		.cfi_def_cfa_offset 0
 746 0028 67800000 		jr	ra
 747              		.cfi_endproc
 748              	.LFE36:
 750              		.section	.rodata.str1.8
 751 0035 000000   		.align	3
 752              	.LC5:
 753 0038 433A2069 		.string	"C: i="
 753      3D00
 754 003e 0000     		.align	3
 755              	.LC6:
 756 0040 433A2064 		.string	"C: dispatch\n"
 756      69737061 
 756      7463680A 
 756      00
 757 004d 000000   		.align	3
 758              	.LC7:
 759 0050 433A2074 		.string	"C: t1="
 759      313D00
 760 0057 00       		.align	3
 761              	.LC8:
GAS LISTING /tmp/cc8DWlx1.s 			page 17


 762 0058 433A2066 		.string	"C: fibonaci="
 762      69626F6E 
 762      6163693D 
 762      00
 763 0065 000000   		.align	3
 764              	.LC9:
 765 0068 43206669 		.string	"C finished!\n"
 765      6E697368 
 765      6564210A 
 765      00
 766              		.text
 767              		.align	2
 768              		.globl	_ZN7WorkerC11workerBodyCEPv
 770              	_ZN7WorkerC11workerBodyCEPv:
 771              	.LFB47:
  80:Test/Threads_CPP_API_test.cpp **** 
  81:Test/Threads_CPP_API_test.cpp **** void WorkerC::workerBodyC(void *arg) {
 772              		.loc 1 81 38 is_stmt 1
 773              		.cfi_startproc
 774              	.LVL70:
 775 0204 130101FE 		addi	sp,sp,-32
 776              		.cfi_def_cfa_offset 32
 777 0208 233C1100 		sd	ra,24(sp)
 778 020c 23388100 		sd	s0,16(sp)
 779 0210 23349100 		sd	s1,8(sp)
 780 0214 23302101 		sd	s2,0(sp)
 781              		.cfi_offset 1, -8
 782              		.cfi_offset 8, -16
 783              		.cfi_offset 9, -24
 784              		.cfi_offset 18, -32
 785 0218 13040102 		addi	s0,sp,32
 786              		.cfi_def_cfa 8, 0
  82:Test/Threads_CPP_API_test.cpp ****     uint8 i = 0;
 787              		.loc 1 82 5
 788              	.LVL71:
 789              		.loc 1 82 11 is_stmt 0
 790 021c 93040000 		li	s1,0
 791 0220 6F008003 		j	.L45
 792              	.LVL72:
 793              	.L49:
  83:Test/Threads_CPP_API_test.cpp ****     for (; i < 3; i++) {
  84:Test/Threads_CPP_API_test.cpp ****         printString("C: i="); printInteger(i); printString("\n");
 794              		.loc 1 84 9 is_stmt 1 discriminator 1
 795              		.loc 1 84 20 is_stmt 0 discriminator 1
 796 0224 17050000 		lla	a0,.LC5
 796      13050500 
 797 022c 97000000 		call	_Z11printStringPKc@plt
 797      E7800000 
 798              	.LVL73:
 799              		.loc 1 84 31 is_stmt 1 discriminator 1
 800              		.loc 1 84 43 is_stmt 0 discriminator 1
 801 0234 13850400 		mv	a0,s1
 802 0238 97000000 		call	_Z12printIntegerm@plt
 802      E7800000 
 803              	.LVL74:
 804              		.loc 1 84 48 is_stmt 1 discriminator 1
 805              		.loc 1 84 59 is_stmt 0 discriminator 1
GAS LISTING /tmp/cc8DWlx1.s 			page 18


 806 0240 17050000 		lla	a0,.LC1
 806      13050500 
 807 0248 97000000 		call	_Z11printStringPKc@plt
 807      E7800000 
 808              	.LVL75:
  83:Test/Threads_CPP_API_test.cpp ****     for (; i < 3; i++) {
 809              		.loc 1 83 5 is_stmt 1 discriminator 1
 810 0250 9B841400 		addiw	s1,s1,1
 811              	.LVL76:
 812 0254 93F4F40F 		andi	s1,s1,0xff
 813              	.LVL77:
 814              	.L45:
  83:Test/Threads_CPP_API_test.cpp ****     for (; i < 3; i++) {
 815              		.loc 1 83 5 discriminator 2
  83:Test/Threads_CPP_API_test.cpp ****     for (; i < 3; i++) {
 816              		.loc 1 83 14 discriminator 2
 817 0258 93072000 		li	a5,2
 818 025c E3F497FC 		bleu	s1,a5,.L49
  85:Test/Threads_CPP_API_test.cpp ****     }
  86:Test/Threads_CPP_API_test.cpp **** 
  87:Test/Threads_CPP_API_test.cpp ****     printString("C: dispatch\n");
 819              		.loc 1 87 5
 820              		.loc 1 87 16 is_stmt 0
 821 0260 17050000 		lla	a0,.LC6
 821      13050500 
 822 0268 97000000 		call	_Z11printStringPKc@plt
 822      E7800000 
 823              	.LVL78:
  88:Test/Threads_CPP_API_test.cpp ****     __asm__ ("li t1, 7");
 824              		.loc 1 88 5 is_stmt 1
 825              		.loc 1 88 25 is_stmt 0
 826              	#APP
 827              	# 88 "Test/Threads_CPP_API_test.cpp" 1
  89              	    thread_dispatch();
 828              		li t1, 7
 829              	# 0 "" 2
 830              		.loc 1 89 5 is_stmt 1
 831              		.loc 1 89 20 is_stmt 0
 832              	#NO_APP
 833 0274 97000000 		call	_Z15thread_dispatchv@plt
 833      E7800000 
 834              	.LVL79:
  90:Test/Threads_CPP_API_test.cpp **** 
  91:Test/Threads_CPP_API_test.cpp ****     uint64 t1 = 0;
 835              		.loc 1 91 5 is_stmt 1
  92:Test/Threads_CPP_API_test.cpp ****     __asm__ ("mv %[t1], t1" : [t1] "=r"(t1));
 836              		.loc 1 92 5
 837              		.loc 1 92 45 is_stmt 0
 838              	#APP
 839              	# 92 "Test/Threads_CPP_API_test.cpp" 1
  93              	
 840              		mv s2, t1
 841              	# 0 "" 2
 842              	.LVL80:
  94:Test/Threads_CPP_API_test.cpp ****     printString("C: t1="); printInteger(t1); printString("\n");
 843              		.loc 1 94 5 is_stmt 1
 844              		.loc 1 94 16 is_stmt 0
GAS LISTING /tmp/cc8DWlx1.s 			page 19


 845              	#NO_APP
 846 0280 17050000 		lla	a0,.LC7
 846      13050500 
 847 0288 97000000 		call	_Z11printStringPKc@plt
 847      E7800000 
 848              	.LVL81:
 849              		.loc 1 94 28 is_stmt 1
 850              		.loc 1 94 40 is_stmt 0
 851 0290 13050900 		mv	a0,s2
 852 0294 97000000 		call	_Z12printIntegerm@plt
 852      E7800000 
 853              	.LVL82:
 854              		.loc 1 94 46 is_stmt 1
 855              		.loc 1 94 57 is_stmt 0
 856 029c 17050000 		lla	a0,.LC1
 856      13050500 
 857 02a4 97000000 		call	_Z11printStringPKc@plt
 857      E7800000 
 858              	.LVL83:
  95:Test/Threads_CPP_API_test.cpp **** 
  96:Test/Threads_CPP_API_test.cpp ****     uint64 result = fibonacci(12);
 859              		.loc 1 96 5 is_stmt 1
 860              		.loc 1 96 30 is_stmt 0
 861 02ac 1305C000 		li	a0,12
 862 02b0 97000000 		call	_ZL9fibonaccim
 862      E7800000 
 863              	.LVL84:
 864 02b8 13090500 		mv	s2,a0
 865              	.LVL85:
  97:Test/Threads_CPP_API_test.cpp ****     printString("C: fibonaci="); printInteger(result); printString("\n");
 866              		.loc 1 97 5 is_stmt 1
 867              		.loc 1 97 16 is_stmt 0
 868 02bc 17050000 		lla	a0,.LC8
 868      13050500 
 869              	.LVL86:
 870 02c4 97000000 		call	_Z11printStringPKc@plt
 870      E7800000 
 871              	.LVL87:
 872              		.loc 1 97 34 is_stmt 1
 873              		.loc 1 97 46 is_stmt 0
 874 02cc 13050900 		mv	a0,s2
 875 02d0 97000000 		call	_Z12printIntegerm@plt
 875      E7800000 
 876              	.LVL88:
 877              		.loc 1 97 56 is_stmt 1
 878              		.loc 1 97 67 is_stmt 0
 879 02d8 17050000 		lla	a0,.LC1
 879      13050500 
 880 02e0 97000000 		call	_Z11printStringPKc@plt
 880      E7800000 
 881              	.LVL89:
 882 02e8 6F008003 		j	.L47
 883              	.L50:
  98:Test/Threads_CPP_API_test.cpp **** 
  99:Test/Threads_CPP_API_test.cpp ****     for (; i < 6; i++) {
 100:Test/Threads_CPP_API_test.cpp ****         printString("C: i="); printInteger(i); printString("\n");
 884              		.loc 1 100 9 is_stmt 1 discriminator 1
GAS LISTING /tmp/cc8DWlx1.s 			page 20


 885              		.loc 1 100 20 is_stmt 0 discriminator 1
 886 02ec 17050000 		lla	a0,.LC5
 886      13050500 
 887 02f4 97000000 		call	_Z11printStringPKc@plt
 887      E7800000 
 888              	.LVL90:
 889              		.loc 1 100 31 is_stmt 1 discriminator 1
 890              		.loc 1 100 43 is_stmt 0 discriminator 1
 891 02fc 13850400 		mv	a0,s1
 892 0300 97000000 		call	_Z12printIntegerm@plt
 892      E7800000 
 893              	.LVL91:
 894              		.loc 1 100 48 is_stmt 1 discriminator 1
 895              		.loc 1 100 59 is_stmt 0 discriminator 1
 896 0308 17050000 		lla	a0,.LC1
 896      13050500 
 897 0310 97000000 		call	_Z11printStringPKc@plt
 897      E7800000 
 898              	.LVL92:
  99:Test/Threads_CPP_API_test.cpp ****         printString("C: i="); printInteger(i); printString("\n");
 899              		.loc 1 99 5 is_stmt 1 discriminator 1
 900 0318 9B841400 		addiw	s1,s1,1
 901              	.LVL93:
 902 031c 93F4F40F 		andi	s1,s1,0xff
 903              	.LVL94:
 904              	.L47:
  99:Test/Threads_CPP_API_test.cpp ****         printString("C: i="); printInteger(i); printString("\n");
 905              		.loc 1 99 5 discriminator 2
  99:Test/Threads_CPP_API_test.cpp ****         printString("C: i="); printInteger(i); printString("\n");
 906              		.loc 1 99 14 discriminator 2
 907 0320 93075000 		li	a5,5
 908 0324 E3F497FC 		bleu	s1,a5,.L50
 101:Test/Threads_CPP_API_test.cpp ****     }
 102:Test/Threads_CPP_API_test.cpp **** 
 103:Test/Threads_CPP_API_test.cpp ****     printString("C finished!\n");
 909              		.loc 1 103 5
 910              		.loc 1 103 16 is_stmt 0
 911 0328 17050000 		lla	a0,.LC9
 911      13050500 
 912 0330 97000000 		call	_Z11printStringPKc@plt
 912      E7800000 
 913              	.LVL95:
 104:Test/Threads_CPP_API_test.cpp ****     finishedC = true;
 914              		.loc 1 104 5 is_stmt 1
 915              		.loc 1 104 15 is_stmt 0
 916 0338 93071000 		li	a5,1
 917 033c 17070000 		sb	a5,.LANCHOR0+2,a4
 917      2300F700 
 105:Test/Threads_CPP_API_test.cpp ****     thread_dispatch();
 918              		.loc 1 105 5 is_stmt 1
 919              		.loc 1 105 20 is_stmt 0
 920 0344 97000000 		call	_Z15thread_dispatchv@plt
 920      E7800000 
 921              	.LVL96:
 106:Test/Threads_CPP_API_test.cpp **** }
 922              		.loc 1 106 1
 923 034c 83308101 		ld	ra,24(sp)
GAS LISTING /tmp/cc8DWlx1.s 			page 21


 924              		.cfi_restore 1
 925 0350 03340101 		ld	s0,16(sp)
 926              		.cfi_restore 8
 927              		.cfi_def_cfa 2, 32
 928 0354 83348100 		ld	s1,8(sp)
 929              		.cfi_restore 9
 930              	.LVL97:
 931 0358 03390100 		ld	s2,0(sp)
 932              		.cfi_restore 18
 933              	.LVL98:
 934 035c 13010102 		addi	sp,sp,32
 935              		.cfi_def_cfa_offset 0
 936 0360 67800000 		jr	ra
 937              		.cfi_endproc
 938              	.LFE47:
 940              		.section	.text._ZN7WorkerC3runEv,"axG",@progbits,_ZN7WorkerC3runEv,comdat
 941              		.align	2
 942              		.weak	_ZN7WorkerC3runEv
 944              	_ZN7WorkerC3runEv:
 945              	.LFB40:
  41:Test/Threads_CPP_API_test.cpp ****         workerBodyC(nullptr);
 946              		.loc 1 41 10 is_stmt 1
 947              		.cfi_startproc
 948              	.LVL99:
 949 0000 130101FF 		addi	sp,sp,-16
 950              		.cfi_def_cfa_offset 16
 951 0004 23341100 		sd	ra,8(sp)
 952 0008 23308100 		sd	s0,0(sp)
 953              		.cfi_offset 1, -8
 954              		.cfi_offset 8, -16
 955 000c 13040101 		addi	s0,sp,16
 956              		.cfi_def_cfa 8, 0
  42:Test/Threads_CPP_API_test.cpp ****     }
 957              		.loc 1 42 9
  42:Test/Threads_CPP_API_test.cpp ****     }
 958              		.loc 1 42 20 is_stmt 0
 959 0010 93050000 		li	a1,0
 960 0014 97000000 		call	_ZN7WorkerC11workerBodyCEPv
 960      E7800000 
 961              	.LVL100:
  43:Test/Threads_CPP_API_test.cpp **** };
 962              		.loc 1 43 5
 963 001c 83308100 		ld	ra,8(sp)
 964              		.cfi_restore 1
 965 0020 03340100 		ld	s0,0(sp)
 966              		.cfi_restore 8
 967              		.cfi_def_cfa 2, 16
 968 0024 13010101 		addi	sp,sp,16
 969              		.cfi_def_cfa_offset 0
 970 0028 67800000 		jr	ra
 971              		.cfi_endproc
 972              	.LFE40:
 974              		.section	.rodata.str1.8
 975 0075 000000   		.align	3
 976              	.LC10:
 977 0078 443A2069 		.string	"D: i="
 977      3D00
GAS LISTING /tmp/cc8DWlx1.s 			page 22


 978 007e 0000     		.align	3
 979              	.LC11:
 980 0080 443A2064 		.string	"D: dispatch\n"
 980      69737061 
 980      7463680A 
 980      00
 981 008d 000000   		.align	3
 982              	.LC12:
 983 0090 443A2066 		.string	"D: fibonaci="
 983      69626F6E 
 983      6163693D 
 983      00
 984 009d 000000   		.align	3
 985              	.LC13:
 986 00a0 44206669 		.string	"D finished!\n"
 986      6E697368 
 986      6564210A 
 986      00
 987              		.text
 988              		.align	2
 989              		.globl	_ZN7WorkerD11workerBodyDEPv
 991              	_ZN7WorkerD11workerBodyDEPv:
 992              	.LFB48:
 107:Test/Threads_CPP_API_test.cpp **** 
 108:Test/Threads_CPP_API_test.cpp **** void WorkerD::workerBodyD(void* arg) {
 993              		.loc 1 108 38 is_stmt 1
 994              		.cfi_startproc
 995              	.LVL101:
 996 0364 130101FE 		addi	sp,sp,-32
 997              		.cfi_def_cfa_offset 32
 998 0368 233C1100 		sd	ra,24(sp)
 999 036c 23388100 		sd	s0,16(sp)
 1000 0370 23349100 		sd	s1,8(sp)
 1001 0374 23302101 		sd	s2,0(sp)
 1002              		.cfi_offset 1, -8
 1003              		.cfi_offset 8, -16
 1004              		.cfi_offset 9, -24
 1005              		.cfi_offset 18, -32
 1006 0378 13040102 		addi	s0,sp,32
 1007              		.cfi_def_cfa 8, 0
 109:Test/Threads_CPP_API_test.cpp ****     uint8 i = 10;
 1008              		.loc 1 109 5
 1009              	.LVL102:
 1010              		.loc 1 109 11 is_stmt 0
 1011 037c 9304A000 		li	s1,10
 1012 0380 6F008003 		j	.L55
 1013              	.LVL103:
 1014              	.L59:
 110:Test/Threads_CPP_API_test.cpp ****     for (; i < 13; i++) {
 111:Test/Threads_CPP_API_test.cpp ****         printString("D: i="); printInteger(i); printString("\n");
 1015              		.loc 1 111 9 is_stmt 1 discriminator 1
 1016              		.loc 1 111 20 is_stmt 0 discriminator 1
 1017 0384 17050000 		lla	a0,.LC10
 1017      13050500 
 1018 038c 97000000 		call	_Z11printStringPKc@plt
 1018      E7800000 
 1019              	.LVL104:
GAS LISTING /tmp/cc8DWlx1.s 			page 23


 1020              		.loc 1 111 31 is_stmt 1 discriminator 1
 1021              		.loc 1 111 43 is_stmt 0 discriminator 1
 1022 0394 13850400 		mv	a0,s1
 1023 0398 97000000 		call	_Z12printIntegerm@plt
 1023      E7800000 
 1024              	.LVL105:
 1025              		.loc 1 111 48 is_stmt 1 discriminator 1
 1026              		.loc 1 111 59 is_stmt 0 discriminator 1
 1027 03a0 17050000 		lla	a0,.LC1
 1027      13050500 
 1028 03a8 97000000 		call	_Z11printStringPKc@plt
 1028      E7800000 
 1029              	.LVL106:
 110:Test/Threads_CPP_API_test.cpp ****     for (; i < 13; i++) {
 1030              		.loc 1 110 5 is_stmt 1 discriminator 1
 1031 03b0 9B841400 		addiw	s1,s1,1
 1032              	.LVL107:
 1033 03b4 93F4F40F 		andi	s1,s1,0xff
 1034              	.LVL108:
 1035              	.L55:
 110:Test/Threads_CPP_API_test.cpp ****     for (; i < 13; i++) {
 1036              		.loc 1 110 5 discriminator 2
 110:Test/Threads_CPP_API_test.cpp ****     for (; i < 13; i++) {
 1037              		.loc 1 110 14 discriminator 2
 1038 03b8 9307C000 		li	a5,12
 1039 03bc E3F497FC 		bleu	s1,a5,.L59
 112:Test/Threads_CPP_API_test.cpp ****     }
 113:Test/Threads_CPP_API_test.cpp **** 
 114:Test/Threads_CPP_API_test.cpp ****     printString("D: dispatch\n");
 1040              		.loc 1 114 5
 1041              		.loc 1 114 16 is_stmt 0
 1042 03c0 17050000 		lla	a0,.LC11
 1042      13050500 
 1043 03c8 97000000 		call	_Z11printStringPKc@plt
 1043      E7800000 
 1044              	.LVL109:
 115:Test/Threads_CPP_API_test.cpp ****     __asm__ ("li t1, 5");
 1045              		.loc 1 115 5 is_stmt 1
 1046              		.loc 1 115 25 is_stmt 0
 1047              	#APP
 1048              	# 115 "Test/Threads_CPP_API_test.cpp" 1
 116              	    thread_dispatch();
 1049              		li t1, 5
 1050              	# 0 "" 2
 1051              		.loc 1 116 5 is_stmt 1
 1052              		.loc 1 116 20 is_stmt 0
 1053              	#NO_APP
 1054 03d4 97000000 		call	_Z15thread_dispatchv@plt
 1054      E7800000 
 1055              	.LVL110:
 117:Test/Threads_CPP_API_test.cpp **** 
 118:Test/Threads_CPP_API_test.cpp ****     uint64 result = fibonacci(16);
 1056              		.loc 1 118 5 is_stmt 1
 1057              		.loc 1 118 30 is_stmt 0
 1058 03dc 13050001 		li	a0,16
 1059 03e0 97000000 		call	_ZL9fibonaccim
 1059      E7800000 
GAS LISTING /tmp/cc8DWlx1.s 			page 24


 1060              	.LVL111:
 1061 03e8 13090500 		mv	s2,a0
 1062              	.LVL112:
 119:Test/Threads_CPP_API_test.cpp ****     printString("D: fibonaci="); printInteger(result); printString("\n");
 1063              		.loc 1 119 5 is_stmt 1
 1064              		.loc 1 119 16 is_stmt 0
 1065 03ec 17050000 		lla	a0,.LC12
 1065      13050500 
 1066              	.LVL113:
 1067 03f4 97000000 		call	_Z11printStringPKc@plt
 1067      E7800000 
 1068              	.LVL114:
 1069              		.loc 1 119 34 is_stmt 1
 1070              		.loc 1 119 46 is_stmt 0
 1071 03fc 13050900 		mv	a0,s2
 1072 0400 97000000 		call	_Z12printIntegerm@plt
 1072      E7800000 
 1073              	.LVL115:
 1074              		.loc 1 119 56 is_stmt 1
 1075              		.loc 1 119 67 is_stmt 0
 1076 0408 17050000 		lla	a0,.LC1
 1076      13050500 
 1077 0410 97000000 		call	_Z11printStringPKc@plt
 1077      E7800000 
 1078              	.LVL116:
 1079 0418 6F008003 		j	.L57
 1080              	.L60:
 120:Test/Threads_CPP_API_test.cpp **** 
 121:Test/Threads_CPP_API_test.cpp ****     for (; i < 16; i++) {
 122:Test/Threads_CPP_API_test.cpp ****         printString("D: i="); printInteger(i); printString("\n");
 1081              		.loc 1 122 9 is_stmt 1 discriminator 1
 1082              		.loc 1 122 20 is_stmt 0 discriminator 1
 1083 041c 17050000 		lla	a0,.LC10
 1083      13050500 
 1084 0424 97000000 		call	_Z11printStringPKc@plt
 1084      E7800000 
 1085              	.LVL117:
 1086              		.loc 1 122 31 is_stmt 1 discriminator 1
 1087              		.loc 1 122 43 is_stmt 0 discriminator 1
 1088 042c 13850400 		mv	a0,s1
 1089 0430 97000000 		call	_Z12printIntegerm@plt
 1089      E7800000 
 1090              	.LVL118:
 1091              		.loc 1 122 48 is_stmt 1 discriminator 1
 1092              		.loc 1 122 59 is_stmt 0 discriminator 1
 1093 0438 17050000 		lla	a0,.LC1
 1093      13050500 
 1094 0440 97000000 		call	_Z11printStringPKc@plt
 1094      E7800000 
 1095              	.LVL119:
 121:Test/Threads_CPP_API_test.cpp ****         printString("D: i="); printInteger(i); printString("\n");
 1096              		.loc 1 121 5 is_stmt 1 discriminator 1
 1097 0448 9B841400 		addiw	s1,s1,1
 1098              	.LVL120:
 1099 044c 93F4F40F 		andi	s1,s1,0xff
 1100              	.LVL121:
 1101              	.L57:
GAS LISTING /tmp/cc8DWlx1.s 			page 25


 121:Test/Threads_CPP_API_test.cpp ****         printString("D: i="); printInteger(i); printString("\n");
 1102              		.loc 1 121 5 discriminator 2
 121:Test/Threads_CPP_API_test.cpp ****         printString("D: i="); printInteger(i); printString("\n");
 1103              		.loc 1 121 14 discriminator 2
 1104 0450 9307F000 		li	a5,15
 1105 0454 E3F497FC 		bleu	s1,a5,.L60
 123:Test/Threads_CPP_API_test.cpp ****     }
 124:Test/Threads_CPP_API_test.cpp **** 
 125:Test/Threads_CPP_API_test.cpp ****     printString("D finished!\n");
 1106              		.loc 1 125 5
 1107              		.loc 1 125 16 is_stmt 0
 1108 0458 17050000 		lla	a0,.LC13
 1108      13050500 
 1109 0460 97000000 		call	_Z11printStringPKc@plt
 1109      E7800000 
 1110              	.LVL122:
 126:Test/Threads_CPP_API_test.cpp ****     finishedD = true;
 1111              		.loc 1 126 5 is_stmt 1
 1112              		.loc 1 126 15 is_stmt 0
 1113 0468 93071000 		li	a5,1
 1114 046c 17070000 		sb	a5,.LANCHOR0+3,a4
 1114      2300F700 
 127:Test/Threads_CPP_API_test.cpp ****     thread_dispatch();
 1115              		.loc 1 127 5 is_stmt 1
 1116              		.loc 1 127 20 is_stmt 0
 1117 0474 97000000 		call	_Z15thread_dispatchv@plt
 1117      E7800000 
 1118              	.LVL123:
 128:Test/Threads_CPP_API_test.cpp **** }
 1119              		.loc 1 128 1
 1120 047c 83308101 		ld	ra,24(sp)
 1121              		.cfi_restore 1
 1122 0480 03340101 		ld	s0,16(sp)
 1123              		.cfi_restore 8
 1124              		.cfi_def_cfa 2, 32
 1125 0484 83348100 		ld	s1,8(sp)
 1126              		.cfi_restore 9
 1127              	.LVL124:
 1128 0488 03390100 		ld	s2,0(sp)
 1129              		.cfi_restore 18
 1130              	.LVL125:
 1131 048c 13010102 		addi	sp,sp,32
 1132              		.cfi_def_cfa_offset 0
 1133 0490 67800000 		jr	ra
 1134              		.cfi_endproc
 1135              	.LFE48:
 1137              		.section	.text._ZN7WorkerD3runEv,"axG",@progbits,_ZN7WorkerD3runEv,comdat
 1138              		.align	2
 1139              		.weak	_ZN7WorkerD3runEv
 1141              	_ZN7WorkerD3runEv:
 1142              	.LFB44:
  51:Test/Threads_CPP_API_test.cpp ****         workerBodyD(nullptr);
 1143              		.loc 1 51 10 is_stmt 1
 1144              		.cfi_startproc
 1145              	.LVL126:
 1146 0000 130101FF 		addi	sp,sp,-16
 1147              		.cfi_def_cfa_offset 16
GAS LISTING /tmp/cc8DWlx1.s 			page 26


 1148 0004 23341100 		sd	ra,8(sp)
 1149 0008 23308100 		sd	s0,0(sp)
 1150              		.cfi_offset 1, -8
 1151              		.cfi_offset 8, -16
 1152 000c 13040101 		addi	s0,sp,16
 1153              		.cfi_def_cfa 8, 0
  52:Test/Threads_CPP_API_test.cpp ****     }
 1154              		.loc 1 52 9
  52:Test/Threads_CPP_API_test.cpp ****     }
 1155              		.loc 1 52 20 is_stmt 0
 1156 0010 93050000 		li	a1,0
 1157 0014 97000000 		call	_ZN7WorkerD11workerBodyDEPv
 1157      E7800000 
 1158              	.LVL127:
  53:Test/Threads_CPP_API_test.cpp **** };
 1159              		.loc 1 53 5
 1160 001c 83308100 		ld	ra,8(sp)
 1161              		.cfi_restore 1
 1162 0020 03340100 		ld	s0,0(sp)
 1163              		.cfi_restore 8
 1164              		.cfi_def_cfa 2, 16
 1165 0024 13010101 		addi	sp,sp,16
 1166              		.cfi_def_cfa_offset 0
 1167 0028 67800000 		jr	ra
 1168              		.cfi_endproc
 1169              	.LFE44:
 1171              		.section	.rodata.str1.8
 1172 00ad 000000   		.align	3
 1173              	.LC14:
 1174 00b0 54687265 		.string	"ThreadA created\n"
 1174      61644120 
 1174      63726561 
 1174      7465640A 
 1174      00
 1175 00c1 00000000 		.align	3
 1175      000000
 1176              	.LC15:
 1177 00c8 54687265 		.string	"ThreadB created\n"
 1177      61644220 
 1177      63726561 
 1177      7465640A 
 1177      00
 1178 00d9 00000000 		.align	3
 1178      000000
 1179              	.LC16:
 1180 00e0 54687265 		.string	"ThreadC created\n"
 1180      61644320 
 1180      63726561 
 1180      7465640A 
 1180      00
 1181 00f1 00000000 		.align	3
 1181      000000
 1182              	.LC17:
 1183 00f8 54687265 		.string	"ThreadD created\n"
 1183      61644420 
 1183      63726561 
 1183      7465640A 
GAS LISTING /tmp/cc8DWlx1.s 			page 27


 1183      00
 1184              		.text
 1185              		.align	2
 1186              		.globl	_Z20Threads_CPP_API_testv
 1188              	_Z20Threads_CPP_API_testv:
 1189              	.LFB49:
 129:Test/Threads_CPP_API_test.cpp **** 
 130:Test/Threads_CPP_API_test.cpp **** 
 131:Test/Threads_CPP_API_test.cpp **** void Threads_CPP_API_test() {
 1190              		.loc 1 131 29 is_stmt 1
 1191              		.cfi_startproc
 1192              		.cfi_personality 0x9b,DW.ref.__gxx_personality_v0
 1193              		.cfi_lsda 0x1b,.LLSDA49
 1194 0494 130101FC 		addi	sp,sp,-64
 1195              		.cfi_def_cfa_offset 64
 1196 0498 233C1102 		sd	ra,56(sp)
 1197 049c 23388102 		sd	s0,48(sp)
 1198 04a0 23349102 		sd	s1,40(sp)
 1199 04a4 23302103 		sd	s2,32(sp)
 1200              		.cfi_offset 1, -8
 1201              		.cfi_offset 8, -16
 1202              		.cfi_offset 9, -24
 1203              		.cfi_offset 18, -32
 1204 04a8 13040104 		addi	s0,sp,64
 1205              		.cfi_def_cfa 8, 0
 132:Test/Threads_CPP_API_test.cpp ****     Thread* threads[4];
 1206              		.loc 1 132 5
 133:Test/Threads_CPP_API_test.cpp **** 
 134:Test/Threads_CPP_API_test.cpp ****     threads[0] = new WorkerA();
 1207              		.loc 1 134 5
 1208              		.loc 1 134 30 is_stmt 0
 1209 04ac 13050002 		li	a0,32
 1210              	.LEHB0:
 1211 04b0 97000000 		call	_Znwm@plt
 1211      E7800000 
 1212              	.LVL128:
 1213              	.LEHE0:
 1214 04b8 93040500 		mv	s1,a0
 1215              	.LVL129:
 1216              	.LEHB1:
 1217              	.LBB56:
 1218              	.LBB57:
  19:Test/Threads_CPP_API_test.cpp **** 
 1219              		.loc 1 19 22
 1220 04bc 97000000 		call	_ZN6ThreadC2Ev@plt
 1220      E7800000 
 1221              	.LVL130:
 1222              	.LEHE1:
 1223 04c4 97070000 		lla	a5,_ZTV7WorkerA+16
 1223      93870700 
 1224 04cc 23B0F400 		sd	a5,0(s1)
 1225              	.LVL131:
 1226              	.LBE57:
 1227              	.LBE56:
 1228              		.loc 1 134 16
 1229 04d0 233094FC 		sd	s1,-64(s0)
 135:Test/Threads_CPP_API_test.cpp ****     printString("ThreadA created\n");
GAS LISTING /tmp/cc8DWlx1.s 			page 28


 1230              		.loc 1 135 5 is_stmt 1
 1231              		.loc 1 135 16 is_stmt 0
 1232 04d4 17050000 		lla	a0,.LC14
 1232      13050500 
 1233              	.LEHB2:
 1234 04dc 97000000 		call	_Z11printStringPKc@plt
 1234      E7800000 
 1235              	.LVL132:
 136:Test/Threads_CPP_API_test.cpp **** 
 137:Test/Threads_CPP_API_test.cpp ****     threads[1] = new WorkerB();
 1236              		.loc 1 137 5 is_stmt 1
 1237              		.loc 1 137 30 is_stmt 0
 1238 04e4 13050002 		li	a0,32
 1239 04e8 97000000 		call	_Znwm@plt
 1239      E7800000 
 1240              	.LVL133:
 1241              	.LEHE2:
 1242 04f0 93040500 		mv	s1,a0
 1243              	.LVL134:
 1244              	.LEHB3:
 1245              	.LBB58:
 1246              	.LBB59:
  29:Test/Threads_CPP_API_test.cpp **** 
 1247              		.loc 1 29 22
 1248 04f4 97000000 		call	_ZN6ThreadC2Ev@plt
 1248      E7800000 
 1249              	.LVL135:
 1250              	.LEHE3:
 1251 04fc 97070000 		lla	a5,_ZTV7WorkerB+16
 1251      93870700 
 1252 0504 23B0F400 		sd	a5,0(s1)
 1253              	.LVL136:
 1254              	.LBE59:
 1255              	.LBE58:
 1256              		.loc 1 137 16
 1257 0508 233494FC 		sd	s1,-56(s0)
 138:Test/Threads_CPP_API_test.cpp ****     printString("ThreadB created\n");
 1258              		.loc 1 138 5 is_stmt 1
 1259              		.loc 1 138 16 is_stmt 0
 1260 050c 17050000 		lla	a0,.LC15
 1260      13050500 
 1261              	.LEHB4:
 1262 0514 97000000 		call	_Z11printStringPKc@plt
 1262      E7800000 
 1263              	.LVL137:
 139:Test/Threads_CPP_API_test.cpp **** 
 140:Test/Threads_CPP_API_test.cpp ****     threads[2] = new WorkerC();
 1264              		.loc 1 140 5 is_stmt 1
 1265              		.loc 1 140 30 is_stmt 0
 1266 051c 13050002 		li	a0,32
 1267 0520 97000000 		call	_Znwm@plt
 1267      E7800000 
 1268              	.LVL138:
 1269              	.LEHE4:
 1270 0528 93040500 		mv	s1,a0
 1271              	.LVL139:
 1272              	.LEHB5:
GAS LISTING /tmp/cc8DWlx1.s 			page 29


 1273              	.LBB60:
 1274              	.LBB61:
  39:Test/Threads_CPP_API_test.cpp **** 
 1275              		.loc 1 39 22
 1276 052c 97000000 		call	_ZN6ThreadC2Ev@plt
 1276      E7800000 
 1277              	.LVL140:
 1278              	.LEHE5:
 1279 0534 97070000 		lla	a5,_ZTV7WorkerC+16
 1279      93870700 
 1280 053c 23B0F400 		sd	a5,0(s1)
 1281              	.LVL141:
 1282              	.LBE61:
 1283              	.LBE60:
 1284              		.loc 1 140 16
 1285 0540 233894FC 		sd	s1,-48(s0)
 141:Test/Threads_CPP_API_test.cpp ****     printString("ThreadC created\n");
 1286              		.loc 1 141 5 is_stmt 1
 1287              		.loc 1 141 16 is_stmt 0
 1288 0544 17050000 		lla	a0,.LC16
 1288      13050500 
 1289              	.LEHB6:
 1290 054c 97000000 		call	_Z11printStringPKc@plt
 1290      E7800000 
 1291              	.LVL142:
 142:Test/Threads_CPP_API_test.cpp **** 
 143:Test/Threads_CPP_API_test.cpp ****     threads[3] = new WorkerD();
 1292              		.loc 1 143 5 is_stmt 1
 1293              		.loc 1 143 30 is_stmt 0
 1294 0554 13050002 		li	a0,32
 1295 0558 97000000 		call	_Znwm@plt
 1295      E7800000 
 1296              	.LVL143:
 1297              	.LEHE6:
 1298 0560 93040500 		mv	s1,a0
 1299              	.LVL144:
 1300              	.LEHB7:
 1301              	.LBB62:
 1302              	.LBB63:
  49:Test/Threads_CPP_API_test.cpp **** 
 1303              		.loc 1 49 22
 1304 0564 97000000 		call	_ZN6ThreadC2Ev@plt
 1304      E7800000 
 1305              	.LVL145:
 1306              	.LEHE7:
 1307 056c 97070000 		lla	a5,_ZTV7WorkerD+16
 1307      93870700 
 1308 0574 23B0F400 		sd	a5,0(s1)
 1309              	.LVL146:
 1310              	.LBE63:
 1311              	.LBE62:
 1312              		.loc 1 143 16
 1313 0578 233C94FC 		sd	s1,-40(s0)
 144:Test/Threads_CPP_API_test.cpp ****     printString("ThreadD created\n");
 1314              		.loc 1 144 5 is_stmt 1
 1315              		.loc 1 144 16 is_stmt 0
 1316 057c 17050000 		lla	a0,.LC17
GAS LISTING /tmp/cc8DWlx1.s 			page 30


 1316      13050500 
 1317              	.LEHB8:
 1318 0584 97000000 		call	_Z11printStringPKc@plt
 1318      E7800000 
 1319              	.LVL147:
 1320              	.LBB64:
 145:Test/Threads_CPP_API_test.cpp **** 
 146:Test/Threads_CPP_API_test.cpp ****     for(int i=0; i<4; i++) {
 1321              		.loc 1 146 13
 1322 058c 93040000 		li	s1,0
 1323              	.L65:
 1324              	.LVL148:
 1325              		.loc 1 146 19 is_stmt 1 discriminator 1
 1326 0590 93073000 		li	a5,3
 1327 0594 63C69702 		bgt	s1,a5,.L64
 147:Test/Threads_CPP_API_test.cpp ****         threads[i]->start();
 1328              		.loc 1 147 9
 1329              		.loc 1 147 18 is_stmt 0
 1330 0598 93973400 		slli	a5,s1,3
 1331 059c 130704FE 		addi	a4,s0,-32
 1332 05a0 B307F700 		add	a5,a4,a5
 1333              		.loc 1 147 26
 1334 05a4 03B507FE 		ld	a0,-32(a5)
 1335 05a8 97000000 		call	_ZN6Thread5startEv@plt
 1335      E7800000 
 1336              	.LVL149:
 146:Test/Threads_CPP_API_test.cpp ****         threads[i]->start();
 1337              		.loc 1 146 5 is_stmt 1
 1338 05b0 9B841400 		addiw	s1,s1,1
 1339              	.LVL150:
 1340 05b4 6FF0DFFD 		j	.L65
 1341              	.LVL151:
 1342              	.L66:
 1343              	.LBE64:
 148:Test/Threads_CPP_API_test.cpp ****     }
 149:Test/Threads_CPP_API_test.cpp **** 
 150:Test/Threads_CPP_API_test.cpp ****     while (!(finishedA && finishedB && finishedC && finishedD)) {
 151:Test/Threads_CPP_API_test.cpp ****         Thread::dispatch();
 1344              		.loc 1 151 9
 1345              		.loc 1 151 25 is_stmt 0
 1346 05b8 97000000 		call	_ZN6Thread8dispatchEv@plt
 1346      E7800000 
 1347              	.LVL152:
 1348              	.LEHE8:
 1349              	.L64:
 150:Test/Threads_CPP_API_test.cpp ****         Thread::dispatch();
 1350              		.loc 1 150 5 is_stmt 1
 150:Test/Threads_CPP_API_test.cpp ****         Thread::dispatch();
 1351              		.loc 1 150 12
 150:Test/Threads_CPP_API_test.cpp ****         Thread::dispatch();
 1352              		.loc 1 150 14 is_stmt 0
 1353 05c0 97070000 		lbu	a5,.LANCHOR0
 1353      83C70700 
 150:Test/Threads_CPP_API_test.cpp ****         Thread::dispatch();
 1354              		.loc 1 150 12
 1355 05c8 E38807FE 		beqz	a5,.L66
 150:Test/Threads_CPP_API_test.cpp ****         Thread::dispatch();
GAS LISTING /tmp/cc8DWlx1.s 			page 31


 1356              		.loc 1 150 27 discriminator 2
 1357 05cc 97070000 		lbu	a5,.LANCHOR0+1
 1357      83C70700 
 150:Test/Threads_CPP_API_test.cpp ****         Thread::dispatch();
 1358              		.loc 1 150 24 discriminator 2
 1359 05d4 E38207FE 		beqz	a5,.L66
 150:Test/Threads_CPP_API_test.cpp ****         Thread::dispatch();
 1360              		.loc 1 150 40 discriminator 4
 1361 05d8 97070000 		lbu	a5,.LANCHOR0+2
 1361      83C70700 
 150:Test/Threads_CPP_API_test.cpp ****         Thread::dispatch();
 1362              		.loc 1 150 37 discriminator 4
 1363 05e0 E38C07FC 		beqz	a5,.L66
 150:Test/Threads_CPP_API_test.cpp ****         Thread::dispatch();
 1364              		.loc 1 150 53 discriminator 6
 1365 05e4 97070000 		lbu	a5,.LANCHOR0+3
 1365      83C70700 
 150:Test/Threads_CPP_API_test.cpp ****         Thread::dispatch();
 1366              		.loc 1 150 12 discriminator 6
 1367 05ec E38607FC 		beqz	a5,.L66
 1368 05f0 930404FC 		addi	s1,s0,-64
 1369              	.LVL153:
 1370 05f4 6F008000 		j	.L67
 1371              	.LVL154:
 1372              	.L69:
 1373              	.LBB65:
 152:Test/Threads_CPP_API_test.cpp ****     }
 153:Test/Threads_CPP_API_test.cpp **** 
 154:Test/Threads_CPP_API_test.cpp ****     for (auto thread: threads) { delete thread; }
 1374              		.loc 1 154 5 is_stmt 1 discriminator 5
 1375 05f8 93848400 		addi	s1,s1,8
 1376              	.LVL155:
 1377              	.L67:
 1378              		.loc 1 154 23 discriminator 6
 1379 05fc 930704FE 		addi	a5,s0,-32
 1380 0600 6386F408 		beq	s1,a5,.L63
 1381              		.loc 1 154 15 is_stmt 0 discriminator 2
 1382 0604 03B50400 		ld	a0,0(s1)
 1383              	.LVL156:
 1384              		.loc 1 154 34 is_stmt 1 discriminator 2
 1385              		.loc 1 154 47 is_stmt 0 discriminator 2
 1386 0608 E30805FE 		beqz	a0,.L69
 1387              		.loc 1 154 41 discriminator 3
 1388 060c 83370500 		ld	a5,0(a0)
 1389 0610 83B78700 		ld	a5,8(a5)
 1390 0614 E7800700 		jalr	a5
 1391              	.LVL157:
 1392 0618 6FF01FFE 		j	.L69
 1393              	.LVL158:
 1394              	.L75:
 1395 061c 13090500 		mv	s2,a0
 1396              	.LBE65:
 134:Test/Threads_CPP_API_test.cpp ****     printString("ThreadA created\n");
 1397              		.loc 1 134 30
 1398 0620 13850400 		mv	a0,s1
 1399 0624 97000000 		call	_ZdlPv@plt
 1399      E7800000 
GAS LISTING /tmp/cc8DWlx1.s 			page 32


 1400              	.LVL159:
 1401 062c 13050900 		mv	a0,s2
 1402              	.LEHB9:
 1403 0630 97000000 		call	_Unwind_Resume@plt
 1403      E7800000 
 1404              	.LVL160:
 1405              	.LEHE9:
 1406              	.L76:
 1407 0638 13090500 		mv	s2,a0
 137:Test/Threads_CPP_API_test.cpp ****     printString("ThreadB created\n");
 1408              		.loc 1 137 30
 1409 063c 13850400 		mv	a0,s1
 1410 0640 97000000 		call	_ZdlPv@plt
 1410      E7800000 
 1411              	.LVL161:
 1412 0648 13050900 		mv	a0,s2
 1413              	.LEHB10:
 1414 064c 97000000 		call	_Unwind_Resume@plt
 1414      E7800000 
 1415              	.LVL162:
 1416              	.LEHE10:
 1417              	.L77:
 1418 0654 13090500 		mv	s2,a0
 140:Test/Threads_CPP_API_test.cpp ****     printString("ThreadC created\n");
 1419              		.loc 1 140 30
 1420 0658 13850400 		mv	a0,s1
 1421 065c 97000000 		call	_ZdlPv@plt
 1421      E7800000 
 1422              	.LVL163:
 1423 0664 13050900 		mv	a0,s2
 1424              	.LEHB11:
 1425 0668 97000000 		call	_Unwind_Resume@plt
 1425      E7800000 
 1426              	.LVL164:
 1427              	.LEHE11:
 1428              	.L78:
 1429 0670 13090500 		mv	s2,a0
 143:Test/Threads_CPP_API_test.cpp ****     printString("ThreadD created\n");
 1430              		.loc 1 143 30
 1431 0674 13850400 		mv	a0,s1
 1432 0678 97000000 		call	_ZdlPv@plt
 1432      E7800000 
 1433              	.LVL165:
 1434 0680 13050900 		mv	a0,s2
 1435              	.LEHB12:
 1436 0684 97000000 		call	_Unwind_Resume@plt
 1436      E7800000 
 1437              	.LVL166:
 1438              	.LEHE12:
 1439              	.L63:
 155:Test/Threads_CPP_API_test.cpp **** }
 1440              		.loc 1 155 1
 1441 068c 83308103 		ld	ra,56(sp)
 1442              		.cfi_restore 1
 1443 0690 03340103 		ld	s0,48(sp)
 1444              		.cfi_restore 8
 1445              		.cfi_def_cfa 2, 64
GAS LISTING /tmp/cc8DWlx1.s 			page 33


 1446 0694 83348102 		ld	s1,40(sp)
 1447              		.cfi_restore 9
 1448              	.LVL167:
 1449 0698 03390102 		ld	s2,32(sp)
 1450              		.cfi_restore 18
 1451 069c 13010104 		addi	sp,sp,64
 1452              		.cfi_def_cfa_offset 0
 1453 06a0 67800000 		jr	ra
 1454              		.cfi_endproc
 1455              	.LFE49:
 1456              		.globl	__gxx_personality_v0
 1457              		.section	.gcc_except_table,"a",@progbits
 1458              	.LLSDA49:
 1459 0000 FF       		.byte	0xff
 1460 0001 FF       		.byte	0xff
 1461 0002 03       		.byte	0x3
 1462 0003 A901     		.byte	0xa9,0x1
 1463 0005 00000000 		.4byte	.LEHB0-.LFB49
 1464 0009 00000000 		.4byte	.LEHE0-.LEHB0
 1465 000d 00000000 		.4byte	0
 1466 0011 00       		.byte	0
 1467 0012 00000000 		.4byte	.LEHB1-.LFB49
 1468 0016 00000000 		.4byte	.LEHE1-.LEHB1
 1469 001a 00000000 		.4byte	.L75-.LFB49
 1470 001e 00       		.byte	0
 1471 001f 00000000 		.4byte	.LEHB2-.LFB49
 1472 0023 00000000 		.4byte	.LEHE2-.LEHB2
 1473 0027 00000000 		.4byte	0
 1474 002b 00       		.byte	0
 1475 002c 00000000 		.4byte	.LEHB3-.LFB49
 1476 0030 00000000 		.4byte	.LEHE3-.LEHB3
 1477 0034 00000000 		.4byte	.L76-.LFB49
 1478 0038 00       		.byte	0
 1479 0039 00000000 		.4byte	.LEHB4-.LFB49
 1480 003d 00000000 		.4byte	.LEHE4-.LEHB4
 1481 0041 00000000 		.4byte	0
 1482 0045 00       		.byte	0
 1483 0046 00000000 		.4byte	.LEHB5-.LFB49
 1484 004a 00000000 		.4byte	.LEHE5-.LEHB5
 1485 004e 00000000 		.4byte	.L77-.LFB49
 1486 0052 00       		.byte	0
 1487 0053 00000000 		.4byte	.LEHB6-.LFB49
 1488 0057 00000000 		.4byte	.LEHE6-.LEHB6
 1489 005b 00000000 		.4byte	0
 1490 005f 00       		.byte	0
 1491 0060 00000000 		.4byte	.LEHB7-.LFB49
 1492 0064 00000000 		.4byte	.LEHE7-.LEHB7
 1493 0068 00000000 		.4byte	.L78-.LFB49
 1494 006c 00       		.byte	0
 1495 006d 00000000 		.4byte	.LEHB8-.LFB49
 1496 0071 00000000 		.4byte	.LEHE8-.LEHB8
 1497 0075 00000000 		.4byte	0
 1498 0079 00       		.byte	0
 1499 007a 00000000 		.4byte	.LEHB9-.LFB49
 1500 007e 00000000 		.4byte	.LEHE9-.LEHB9
 1501 0082 00000000 		.4byte	0
 1502 0086 00       		.byte	0
GAS LISTING /tmp/cc8DWlx1.s 			page 34


 1503 0087 00000000 		.4byte	.LEHB10-.LFB49
 1504 008b 00000000 		.4byte	.LEHE10-.LEHB10
 1505 008f 00000000 		.4byte	0
 1506 0093 00       		.byte	0
 1507 0094 00000000 		.4byte	.LEHB11-.LFB49
 1508 0098 00000000 		.4byte	.LEHE11-.LEHB11
 1509 009c 00000000 		.4byte	0
 1510 00a0 00       		.byte	0
 1511 00a1 00000000 		.4byte	.LEHB12-.LFB49
 1512 00a5 00000000 		.4byte	.LEHE12-.LEHB12
 1513 00a9 00000000 		.4byte	0
 1514 00ad 00       		.byte	0
 1515              		.text
 1517              		.weak	_ZTV7WorkerA
 1518              		.section	.data.rel.ro.local._ZTV7WorkerA,"awG",@progbits,_ZTV7WorkerA,comdat
 1519              		.align	3
 1522              	_ZTV7WorkerA:
 1523 0000 00000000 		.dword	0
 1523      00000000 
 1524 0008 00000000 		.dword	0
 1524      00000000 
 1525 0010 00000000 		.dword	_ZN7WorkerAD1Ev
 1525      00000000 
 1526 0018 00000000 		.dword	_ZN7WorkerAD0Ev
 1526      00000000 
 1527 0020 00000000 		.dword	_ZN7WorkerA3runEv
 1527      00000000 
 1528              		.weak	_ZTV7WorkerB
 1529              		.section	.data.rel.ro.local._ZTV7WorkerB,"awG",@progbits,_ZTV7WorkerB,comdat
 1530              		.align	3
 1533              	_ZTV7WorkerB:
 1534 0000 00000000 		.dword	0
 1534      00000000 
 1535 0008 00000000 		.dword	0
 1535      00000000 
 1536 0010 00000000 		.dword	_ZN7WorkerBD1Ev
 1536      00000000 
 1537 0018 00000000 		.dword	_ZN7WorkerBD0Ev
 1537      00000000 
 1538 0020 00000000 		.dword	_ZN7WorkerB3runEv
 1538      00000000 
 1539              		.weak	_ZTV7WorkerC
 1540              		.section	.data.rel.ro.local._ZTV7WorkerC,"awG",@progbits,_ZTV7WorkerC,comdat
 1541              		.align	3
 1544              	_ZTV7WorkerC:
 1545 0000 00000000 		.dword	0
 1545      00000000 
 1546 0008 00000000 		.dword	0
 1546      00000000 
 1547 0010 00000000 		.dword	_ZN7WorkerCD1Ev
 1547      00000000 
 1548 0018 00000000 		.dword	_ZN7WorkerCD0Ev
 1548      00000000 
 1549 0020 00000000 		.dword	_ZN7WorkerC3runEv
 1549      00000000 
 1550              		.weak	_ZTV7WorkerD
 1551              		.section	.data.rel.ro.local._ZTV7WorkerD,"awG",@progbits,_ZTV7WorkerD,comdat
GAS LISTING /tmp/cc8DWlx1.s 			page 35


 1552              		.align	3
 1555              	_ZTV7WorkerD:
 1556 0000 00000000 		.dword	0
 1556      00000000 
 1557 0008 00000000 		.dword	0
 1557      00000000 
 1558 0010 00000000 		.dword	_ZN7WorkerDD1Ev
 1558      00000000 
 1559 0018 00000000 		.dword	_ZN7WorkerDD0Ev
 1559      00000000 
 1560 0020 00000000 		.dword	_ZN7WorkerD3runEv
 1560      00000000 
 1561              		.bss
 1562              		.set	.LANCHOR0,. + 0
 1565              	_ZL9finishedA:
 1566 0000 00       		.zero	1
 1569              	_ZL9finishedB:
 1570 0001 00       		.zero	1
 1573              	_ZL9finishedC:
 1574 0002 00       		.zero	1
 1577              	_ZL9finishedD:
 1578 0003 00       		.zero	1
 1579              		.text
 1580              	.Letext0:
 1581              		.file 2 "Test/../h/../lib/hw.h"
 1582              		.file 3 "Test/../h/syscall_cpp.hpp"
 1583              		.file 4 "Test/../h/print.hpp"
 1584              		.file 5 "Test/../h/syscall_c.hpp"
 5312              		.align	3
 5315              	DW.ref.__gxx_personality_v0:
 5316 0000 00000000 		.dword	__gxx_personality_v0
 5316      00000000 
 5317              		.ident	"GCC: (Ubuntu 9.4.0-1ubuntu1~20.04) 9.4.0"
 5318              		.section	.note.GNU-stack,"",@progbits
GAS LISTING /tmp/cc8DWlx1.s 			page 36

