GAS LISTING /tmp/cc4kz3Jo.s 			page 1


   1              		.file	"userMain.cpp"
   2              		.option pic
   3              		.option norelax
   4              		.text
   5              	.Ltext0:
   6              		.section	.rodata.str1.8,"aMS",@progbits,1
   7              		.align	3
   8              	.LC0:
   9 0000 556E6573 		.string	"Unesite broj testa? [1-7]\n"
   9      69746520 
   9      62726F6A 
   9      20746573 
   9      74613F20 
  10 001b 00000000 		.align	3
  10      00
  11              	.LC1:
  12 0020 54455354 		.string	"TEST 1 (zadatak 2, niti C API i sinhrona promena konteksta)\n"
  12      20312028 
  12      7A616461 
  12      74616B20 
  12      322C206E 
  13 005d 000000   		.align	3
  14              	.LC2:
  15 0060 54455354 		.string	"TEST 2 (zadatak 2., niti CPP API i sinhrona promena konteksta)\n"
  15      20322028 
  15      7A616461 
  15      74616B20 
  15      322E2C20 
  16              		.align	3
  17              	.LC3:
  18 00a0 54455354 		.string	"TEST 3 (zadatak 3., kompletan C API sa semaforima, sinhrona promena konteksta)\n"
  18      20332028 
  18      7A616461 
  18      74616B20 
  18      332E2C20 
  19              		.align	3
  20              	.LC4:
  21 00f0 54455354 		.string	"TEST 4 (zadatak 3., kompletan CPP API sa semaforima, sinhrona promena konteksta)\n"
  21      20342028 
  21      7A616461 
  21      74616B20 
  21      332E2C20 
  22 0142 00000000 		.align	3
  22      0000
  23              	.LC5:
  24 0148 54455354 		.string	"TEST 5 (zadatak 4., thread_sleep test C API)\n"
  24      20352028 
  24      7A616461 
  24      74616B20 
  24      342E2C20 
  25 0176 0000     		.align	3
  26              	.LC6:
  27 0178 54455354 		.string	"TEST 6 (zadatak 4. CPP API i asinhrona promena konteksta)\n"
  27      20362028 
  27      7A616461 
  27      74616B20 
  27      342E2043 
GAS LISTING /tmp/cc4kz3Jo.s 			page 2


  28 01b3 00000000 		.align	3
  28      00
  29              	.LC7:
  30 01b8 54657374 		.string	"Test se nije uspesno zavrsio\n"
  30      20736520 
  30      6E696A65 
  30      20757370 
  30      65736E6F 
  31 01d6 0000     		.align	3
  32              	.LC8:
  33 01d8 54455354 		.string	"TEST 7 (zadatak 2., testiranje da li se korisnicki kod izvrsava u korisnickom rezimu)\n"
  33      20372028 
  33      7A616461 
  33      74616B20 
  33      322E2C20 
  34 022f 00       		.align	3
  35              	.LC9:
  36 0230 4E697374 		.string	"Niste uneli odgovarajuci broj za test\n"
  36      6520756E 
  36      656C6920 
  36      6F64676F 
  36      76617261 
  37              		.text
  38              		.align	2
  39              		.globl	_Z8userMainv
  41              	_Z8userMainv:
  42              	.LFB0:
  43              		.file 1 "Test/userMain.cpp"
   1:Test/userMain.cpp **** #include "../h/print.hpp"
   2:Test/userMain.cpp **** #include "../lib/hw.h"
   3:Test/userMain.cpp **** #include "../lib/console.h"
   4:Test/userMain.cpp **** 
   5:Test/userMain.cpp **** #define LEVEL_1_IMPLEMENTED 1
   6:Test/userMain.cpp **** #define LEVEL_2_IMPLEMENTED 1
   7:Test/userMain.cpp **** #define LEVEL_3_IMPLEMENTED 1
   8:Test/userMain.cpp **** #define LEVEL_4_IMPLEMENTED 1
   9:Test/userMain.cpp **** 
  10:Test/userMain.cpp **** #if LEVEL_2_IMPLEMENTED == 1
  11:Test/userMain.cpp **** // TEST 1 (zadatak 2, niti C API i sinhrona promena konteksta)
  12:Test/userMain.cpp **** #include "Threads_C_API_test.hpp"
  13:Test/userMain.cpp **** // TEST 2 (zadatak 2., niti CPP API i sinhrona promena konteksta)
  14:Test/userMain.cpp **** #include "Threads_CPP_API_test.hpp"
  15:Test/userMain.cpp **** // TEST 7 (zadatak 2., testiranje da li se korisnicki kod izvrsava u korisnickom rezimu)
  16:Test/userMain.cpp **** #include "System_Mode_test.hpp"
  17:Test/userMain.cpp **** #endif
  18:Test/userMain.cpp **** 
  19:Test/userMain.cpp **** #if LEVEL_3_IMPLEMENTED == 1
  20:Test/userMain.cpp **** // TEST 3 (zadatak 3., kompletan C API sa semaforima, sinhrona promena konteksta)
  21:Test/userMain.cpp **** //#include "../test/ConsumerProducer_C_API_test.hpp"
  22:Test/userMain.cpp **** // TEST 4 (zadatak 3., kompletan CPP API sa semaforima, sinhrona promena konteksta)
  23:Test/userMain.cpp **** //#include "../test/ConsumerProducer_CPP_Sync_API_test.hpp"
  24:Test/userMain.cpp **** #endif
  25:Test/userMain.cpp **** 
  26:Test/userMain.cpp **** #if LEVEL_4_IMPLEMENTED == 1
  27:Test/userMain.cpp **** // TEST 5 (zadatak 4., thread_sleep test C API)
  28:Test/userMain.cpp **** //#include "../test/ThreadSleep_C_API_test.hpp"
  29:Test/userMain.cpp **** // TEST 6 (zadatak 4. CPP API i asinhrona promena konteksta)
GAS LISTING /tmp/cc4kz3Jo.s 			page 3


  30:Test/userMain.cpp **** //#include "../test/ConsumerProducer_CPP_API_test.hpp"
  31:Test/userMain.cpp **** //#include "System_Mode_test.hpp"
  32:Test/userMain.cpp **** 
  33:Test/userMain.cpp **** #endif
  34:Test/userMain.cpp **** 
  35:Test/userMain.cpp **** void userMain() {
  44              		.loc 1 35 17
  45              		.cfi_startproc
  46 0000 130101FE 		addi	sp,sp,-32
  47              		.cfi_def_cfa_offset 32
  48 0004 233C1100 		sd	ra,24(sp)
  49 0008 23388100 		sd	s0,16(sp)
  50 000c 23349100 		sd	s1,8(sp)
  51              		.cfi_offset 1, -8
  52              		.cfi_offset 8, -16
  53              		.cfi_offset 9, -24
  54 0010 13040102 		addi	s0,sp,32
  55              		.cfi_def_cfa 8, 0
  36:Test/userMain.cpp ****     printString("Unesite broj testa? [1-7]\n");
  56              		.loc 1 36 5
  57              		.loc 1 36 16 is_stmt 0
  58 0014 17050000 		lla	a0,.LC0
  58      13050500 
  59 001c 97000000 		call	_Z11printStringPKc@plt
  59      E7800000 
  60              	.LVL0:
  37:Test/userMain.cpp ****     int test = __getc() - '0';
  61              		.loc 1 37 5 is_stmt 1
  62              		.loc 1 37 22 is_stmt 0
  63 0024 97000000 		call	__getc@plt
  63      E7800000 
  64              	.LVL1:
  65              		.loc 1 37 27
  66 002c 9B0405FD 		addiw	s1,a0,-48
  67              	.LVL2:
  38:Test/userMain.cpp ****     __getc(); // Enter posle broja
  68              		.loc 1 38 5 is_stmt 1
  69              		.loc 1 38 11 is_stmt 0
  70 0030 97000000 		call	__getc@plt
  70      E7800000 
  71              	.LVL3:
  39:Test/userMain.cpp **** 
  40:Test/userMain.cpp ****     if ((test >= 1 && test <= 2) || test == 7) {
  72              		.loc 1 40 5 is_stmt 1
  41:Test/userMain.cpp ****         if (LEVEL_2_IMPLEMENTED == 0) {
  42:Test/userMain.cpp ****             printString("Nije navedeno da je zadatak 2 implementiran\n");
  43:Test/userMain.cpp ****             return;
  44:Test/userMain.cpp ****         }
  45:Test/userMain.cpp ****     }
  46:Test/userMain.cpp **** 
  47:Test/userMain.cpp ****     if (test >= 3 && test <= 4) {
  73              		.loc 1 47 5
  48:Test/userMain.cpp ****         if (LEVEL_3_IMPLEMENTED == 0) {
  49:Test/userMain.cpp ****             printString("Nije navedeno da je zadatak 3 implementiran\n");
  50:Test/userMain.cpp ****             return;
  51:Test/userMain.cpp ****         }
  52:Test/userMain.cpp ****     }
GAS LISTING /tmp/cc4kz3Jo.s 			page 4


  53:Test/userMain.cpp **** 
  54:Test/userMain.cpp ****     if (test >= 5 && test <= 6) {
  74              		.loc 1 54 5
  55:Test/userMain.cpp ****         if (LEVEL_4_IMPLEMENTED == 0) {
  56:Test/userMain.cpp ****             printString("Nije navedeno da je zadatak 4 implementiran\n");
  57:Test/userMain.cpp ****             return;
  58:Test/userMain.cpp ****         }
  59:Test/userMain.cpp ****     }
  60:Test/userMain.cpp **** 
  61:Test/userMain.cpp ****     switch (test) {
  75              		.loc 1 61 5
  76 0038 93077000 		li	a5,7
  77 003c 63EE970C 		bgtu	s1,a5,.L2
  78 0040 93942400 		slli	s1,s1,2
  79 0044 17070000 		lla	a4,.L4
  79      13070700 
  80 004c B384E400 		add	s1,s1,a4
  81 0050 83A70400 		lw	a5,0(s1)
  82 0054 B387E700 		add	a5,a5,a4
  83 0058 67800700 		jr	a5
  84              		.section	.rodata
  85              		.align	2
  86              		.align	2
  87              	.L4:
  88 0000 00000000 		.word	.L2-.L4
  89 0004 00000000 		.word	.L10-.L4
  90 0008 00000000 		.word	.L9-.L4
  91 000c 00000000 		.word	.L8-.L4
  92 0010 00000000 		.word	.L7-.L4
  93 0014 00000000 		.word	.L6-.L4
  94 0018 00000000 		.word	.L5-.L4
  95 001c 00000000 		.word	.L3-.L4
  96              		.text
  97              	.L10:
  62:Test/userMain.cpp ****         case 1:
  98              		.loc 1 62 9
  63:Test/userMain.cpp **** #if LEVEL_2_IMPLEMENTED == 1
  64:Test/userMain.cpp ****             Threads_C_API_test();
  99              		.loc 1 64 13
 100              		.loc 1 64 31 is_stmt 0
 101 005c 97000000 		call	_Z18Threads_C_API_testv@plt
 101      E7800000 
 102              	.LVL4:
  65:Test/userMain.cpp ****             printString("TEST 1 (zadatak 2, niti C API i sinhrona promena konteksta)\n");
 103              		.loc 1 65 13 is_stmt 1
 104              		.loc 1 65 24 is_stmt 0
 105 0064 17050000 		lla	a0,.LC1
 105      13050500 
 106 006c 97000000 		call	_Z11printStringPKc@plt
 106      E7800000 
 107              	.LVL5:
  66:Test/userMain.cpp **** #endif
  67:Test/userMain.cpp ****             break;
 108              		.loc 1 67 13 is_stmt 1
 109              	.L1:
  68:Test/userMain.cpp ****         case 2:
  69:Test/userMain.cpp **** #if LEVEL_2_IMPLEMENTED == 1
GAS LISTING /tmp/cc4kz3Jo.s 			page 5


  70:Test/userMain.cpp ****             //Threads_CPP_API_test();
  71:Test/userMain.cpp ****             printString("TEST 2 (zadatak 2., niti CPP API i sinhrona promena konteksta)\n");
  72:Test/userMain.cpp **** #endif
  73:Test/userMain.cpp ****             break;
  74:Test/userMain.cpp ****         case 3:
  75:Test/userMain.cpp **** #if LEVEL_3_IMPLEMENTED == 1
  76:Test/userMain.cpp ****             //producerConsumer_C_API();
  77:Test/userMain.cpp ****             printString("TEST 3 (zadatak 3., kompletan C API sa semaforima, sinhrona promena kontek
  78:Test/userMain.cpp **** #endif
  79:Test/userMain.cpp ****             break;
  80:Test/userMain.cpp ****         case 4:
  81:Test/userMain.cpp **** #if LEVEL_3_IMPLEMENTED == 1
  82:Test/userMain.cpp ****             //producerConsumer_CPP_Sync_API();
  83:Test/userMain.cpp ****             printString("TEST 4 (zadatak 3., kompletan CPP API sa semaforima, sinhrona promena kont
  84:Test/userMain.cpp **** #endif
  85:Test/userMain.cpp ****             break;
  86:Test/userMain.cpp ****         case 5:
  87:Test/userMain.cpp **** #if LEVEL_4_IMPLEMENTED == 1
  88:Test/userMain.cpp ****             //testSleeping();
  89:Test/userMain.cpp ****             printString("TEST 5 (zadatak 4., thread_sleep test C API)\n");
  90:Test/userMain.cpp **** #endif
  91:Test/userMain.cpp ****             break;
  92:Test/userMain.cpp ****         case 6:
  93:Test/userMain.cpp **** #if LEVEL_4_IMPLEMENTED == 1
  94:Test/userMain.cpp ****             //testConsumerProducer();
  95:Test/userMain.cpp ****             printString("TEST 6 (zadatak 4. CPP API i asinhrona promena konteksta)\n");
  96:Test/userMain.cpp **** #endif
  97:Test/userMain.cpp ****             break;
  98:Test/userMain.cpp ****         case 7:
  99:Test/userMain.cpp **** #if LEVEL_2_IMPLEMENTED == 1
 100:Test/userMain.cpp ****             System_Mode_test();
 101:Test/userMain.cpp ****             printString("Test se nije uspesno zavrsio\n");
 102:Test/userMain.cpp ****             printString("TEST 7 (zadatak 2., testiranje da li se korisnicki kod izvrsava u korisnic
 103:Test/userMain.cpp **** #endif
 104:Test/userMain.cpp ****             break;
 105:Test/userMain.cpp ****         default:
 106:Test/userMain.cpp ****             printString("Niste uneli odgovarajuci broj za test\n");
 107:Test/userMain.cpp ****     }
 108:Test/userMain.cpp **** }...
 110              		.loc 1 108 1 is_stmt 0
 111 0074 83308101 		ld	ra,24(sp)
 112              		.cfi_remember_state
 113              		.cfi_restore 1
 114 0078 03340101 		ld	s0,16(sp)
 115              		.cfi_restore 8
 116              		.cfi_def_cfa 2, 32
 117 007c 83348100 		ld	s1,8(sp)
 118              		.cfi_restore 9
 119 0080 13010102 		addi	sp,sp,32
 120              		.cfi_def_cfa_offset 0
 121 0084 67800000 		jr	ra
 122              	.L9:
 123              		.cfi_restore_state
  68:Test/userMain.cpp ****         case 2:
 124              		.loc 1 68 9 is_stmt 1
  71:Test/userMain.cpp ****             printString("TEST 2 (zadatak 2., niti CPP API i sinhrona promena konteksta)\n");
 125              		.loc 1 71 13
GAS LISTING /tmp/cc4kz3Jo.s 			page 6


  71:Test/userMain.cpp ****             printString("TEST 2 (zadatak 2., niti CPP API i sinhrona promena konteksta)\n");
 126              		.loc 1 71 24 is_stmt 0
 127 0088 17050000 		lla	a0,.LC2
 127      13050500 
 128 0090 97000000 		call	_Z11printStringPKc@plt
 128      E7800000 
 129              	.LVL6:
  73:Test/userMain.cpp ****             break;
 130              		.loc 1 73 13 is_stmt 1
 131 0098 6FF0DFFD 		j	.L1
 132              	.L8:
  74:Test/userMain.cpp ****         case 3:
 133              		.loc 1 74 9
  77:Test/userMain.cpp ****             printString("TEST 3 (zadatak 3., kompletan C API sa semaforima, sinhrona promena kontek
 134              		.loc 1 77 13
  77:Test/userMain.cpp ****             printString("TEST 3 (zadatak 3., kompletan C API sa semaforima, sinhrona promena kontek
 135              		.loc 1 77 24 is_stmt 0
 136 009c 17050000 		lla	a0,.LC3
 136      13050500 
 137 00a4 97000000 		call	_Z11printStringPKc@plt
 137      E7800000 
 138              	.LVL7:
  79:Test/userMain.cpp ****             break;
 139              		.loc 1 79 13 is_stmt 1
 140 00ac 6FF09FFC 		j	.L1
 141              	.L7:
  80:Test/userMain.cpp ****         case 4:
 142              		.loc 1 80 9
  83:Test/userMain.cpp ****             printString("TEST 4 (zadatak 3., kompletan CPP API sa semaforima, sinhrona promena kont
 143              		.loc 1 83 13
  83:Test/userMain.cpp ****             printString("TEST 4 (zadatak 3., kompletan CPP API sa semaforima, sinhrona promena kont
 144              		.loc 1 83 24 is_stmt 0
 145 00b0 17050000 		lla	a0,.LC4
 145      13050500 
 146 00b8 97000000 		call	_Z11printStringPKc@plt
 146      E7800000 
 147              	.LVL8:
  85:Test/userMain.cpp ****             break;
 148              		.loc 1 85 13 is_stmt 1
 149 00c0 6FF05FFB 		j	.L1
 150              	.L6:
  86:Test/userMain.cpp ****         case 5:
 151              		.loc 1 86 9
  89:Test/userMain.cpp ****             printString("TEST 5 (zadatak 4., thread_sleep test C API)\n");
 152              		.loc 1 89 13
  89:Test/userMain.cpp ****             printString("TEST 5 (zadatak 4., thread_sleep test C API)\n");
 153              		.loc 1 89 24 is_stmt 0
 154 00c4 17050000 		lla	a0,.LC5
 154      13050500 
 155 00cc 97000000 		call	_Z11printStringPKc@plt
 155      E7800000 
 156              	.LVL9:
  91:Test/userMain.cpp ****             break;
 157              		.loc 1 91 13 is_stmt 1
 158 00d4 6FF01FFA 		j	.L1
 159              	.L5:
  92:Test/userMain.cpp ****         case 6:
GAS LISTING /tmp/cc4kz3Jo.s 			page 7


 160              		.loc 1 92 9
  95:Test/userMain.cpp ****             printString("TEST 6 (zadatak 4. CPP API i asinhrona promena konteksta)\n");
 161              		.loc 1 95 13
  95:Test/userMain.cpp ****             printString("TEST 6 (zadatak 4. CPP API i asinhrona promena konteksta)\n");
 162              		.loc 1 95 24 is_stmt 0
 163 00d8 17050000 		lla	a0,.LC6
 163      13050500 
 164 00e0 97000000 		call	_Z11printStringPKc@plt
 164      E7800000 
 165              	.LVL10:
  97:Test/userMain.cpp ****             break;
 166              		.loc 1 97 13 is_stmt 1
 167 00e8 6FF0DFF8 		j	.L1
 168              	.L3:
  98:Test/userMain.cpp ****         case 7:
 169              		.loc 1 98 9
 100:Test/userMain.cpp ****             System_Mode_test();
 170              		.loc 1 100 13
 100:Test/userMain.cpp ****             System_Mode_test();
 171              		.loc 1 100 29 is_stmt 0
 172 00ec 97000000 		call	_Z16System_Mode_testv@plt
 172      E7800000 
 173              	.LVL11:
 101:Test/userMain.cpp ****             printString("Test se nije uspesno zavrsio\n");
 174              		.loc 1 101 13 is_stmt 1
 101:Test/userMain.cpp ****             printString("Test se nije uspesno zavrsio\n");
 175              		.loc 1 101 24 is_stmt 0
 176 00f4 17050000 		lla	a0,.LC7
 176      13050500 
 177 00fc 97000000 		call	_Z11printStringPKc@plt
 177      E7800000 
 178              	.LVL12:
 102:Test/userMain.cpp ****             printString("TEST 7 (zadatak 2., testiranje da li se korisnicki kod izvrsava u korisnic
 179              		.loc 1 102 13 is_stmt 1
 102:Test/userMain.cpp ****             printString("TEST 7 (zadatak 2., testiranje da li se korisnicki kod izvrsava u korisnic
 180              		.loc 1 102 24 is_stmt 0
 181 0104 17050000 		lla	a0,.LC8
 181      13050500 
 182 010c 97000000 		call	_Z11printStringPKc@plt
 182      E7800000 
 183              	.LVL13:
 104:Test/userMain.cpp ****             break;
 184              		.loc 1 104 13 is_stmt 1
 185 0114 6FF01FF6 		j	.L1
 186              	.L2:
 105:Test/userMain.cpp ****         default:
 187              		.loc 1 105 9
 106:Test/userMain.cpp ****             printString("Niste uneli odgovarajuci broj za test\n");
 188              		.loc 1 106 13
 106:Test/userMain.cpp ****             printString("Niste uneli odgovarajuci broj za test\n");
 189              		.loc 1 106 24 is_stmt 0
 190 0118 17050000 		lla	a0,.LC9
 190      13050500 
 191 0120 97000000 		call	_Z11printStringPKc@plt
 191      E7800000 
 192              	.LVL14:
 193 0128 6FF0DFF4 		j	.L1
GAS LISTING /tmp/cc4kz3Jo.s 			page 8


 194              		.cfi_endproc
 195              	.LFE0:
 197              	.Letext0:
 198              		.file 2 "Test/../h/../lib/hw.h"
 199              		.file 3 "Test/../h/print.hpp"
 200              		.file 4 "Test/../lib/console.h"
 201              		.file 5 "Test/Threads_C_API_test.hpp"
 202              		.file 6 "Test/System_Mode_test.hpp"
GAS LISTING /tmp/cc4kz3Jo.s 			page 9


DEFINED SYMBOLS
                            *ABS*:0000000000000000 userMain.cpp
     /tmp/cc4kz3Jo.s:41     .text:0000000000000000 _Z8userMainv
     /tmp/cc4kz3Jo.s:45     .text:0000000000000000 .L0 
     /tmp/cc4kz3Jo.s:46     .text:0000000000000000 .L0 
     /tmp/cc4kz3Jo.s:47     .text:0000000000000004 .L0 
     /tmp/cc4kz3Jo.s:51     .text:0000000000000010 .L0 
     /tmp/cc4kz3Jo.s:52     .text:0000000000000010 .L0 
     /tmp/cc4kz3Jo.s:53     .text:0000000000000010 .L0 
     /tmp/cc4kz3Jo.s:55     .text:0000000000000014 .L0 
     /tmp/cc4kz3Jo.s:57     .text:0000000000000014 .L0 
     /tmp/cc4kz3Jo.s:58     .text:0000000000000014 .L0 
     /tmp/cc4kz3Jo.s:62     .text:0000000000000024 .L0 
     /tmp/cc4kz3Jo.s:63     .text:0000000000000024 .L0 
     /tmp/cc4kz3Jo.s:66     .text:000000000000002c .L0 
     /tmp/cc4kz3Jo.s:69     .text:0000000000000030 .L0 
     /tmp/cc4kz3Jo.s:70     .text:0000000000000030 .L0 
     /tmp/cc4kz3Jo.s:73     .text:0000000000000038 .L0 
     /tmp/cc4kz3Jo.s:74     .text:0000000000000038 .L0 
     /tmp/cc4kz3Jo.s:75     .text:0000000000000038 .L0 
     /tmp/cc4kz3Jo.s:76     .text:0000000000000038 .L0 
     /tmp/cc4kz3Jo.s:99     .text:000000000000005c .L0 
     /tmp/cc4kz3Jo.s:100    .text:000000000000005c .L0 
     /tmp/cc4kz3Jo.s:101    .text:000000000000005c .L0 
     /tmp/cc4kz3Jo.s:104    .text:0000000000000064 .L0 
     /tmp/cc4kz3Jo.s:105    .text:0000000000000064 .L0 
     /tmp/cc4kz3Jo.s:110    .text:0000000000000074 .L0 
     /tmp/cc4kz3Jo.s:111    .text:0000000000000074 .L0 
     /tmp/cc4kz3Jo.s:112    .text:0000000000000078 .L0 
     /tmp/cc4kz3Jo.s:113    .text:0000000000000078 .L0 
     /tmp/cc4kz3Jo.s:115    .text:000000000000007c .L0 
     /tmp/cc4kz3Jo.s:116    .text:000000000000007c .L0 
     /tmp/cc4kz3Jo.s:118    .text:0000000000000080 .L0 
     /tmp/cc4kz3Jo.s:120    .text:0000000000000084 .L0 
     /tmp/cc4kz3Jo.s:123    .text:0000000000000088 .L0 
     /tmp/cc4kz3Jo.s:125    .text:0000000000000088 .L0 
     /tmp/cc4kz3Jo.s:126    .text:0000000000000088 .L0 
     /tmp/cc4kz3Jo.s:127    .text:0000000000000088 .L0 
     /tmp/cc4kz3Jo.s:131    .text:0000000000000098 .L0 
     /tmp/cc4kz3Jo.s:134    .text:000000000000009c .L0 
     /tmp/cc4kz3Jo.s:135    .text:000000000000009c .L0 
     /tmp/cc4kz3Jo.s:136    .text:000000000000009c .L0 
     /tmp/cc4kz3Jo.s:140    .text:00000000000000ac .L0 
     /tmp/cc4kz3Jo.s:143    .text:00000000000000b0 .L0 
     /tmp/cc4kz3Jo.s:144    .text:00000000000000b0 .L0 
     /tmp/cc4kz3Jo.s:145    .text:00000000000000b0 .L0 
     /tmp/cc4kz3Jo.s:149    .text:00000000000000c0 .L0 
     /tmp/cc4kz3Jo.s:152    .text:00000000000000c4 .L0 
     /tmp/cc4kz3Jo.s:153    .text:00000000000000c4 .L0 
     /tmp/cc4kz3Jo.s:154    .text:00000000000000c4 .L0 
     /tmp/cc4kz3Jo.s:158    .text:00000000000000d4 .L0 
     /tmp/cc4kz3Jo.s:161    .text:00000000000000d8 .L0 
     /tmp/cc4kz3Jo.s:162    .text:00000000000000d8 .L0 
     /tmp/cc4kz3Jo.s:163    .text:00000000000000d8 .L0 
     /tmp/cc4kz3Jo.s:167    .text:00000000000000e8 .L0 
     /tmp/cc4kz3Jo.s:170    .text:00000000000000ec .L0 
     /tmp/cc4kz3Jo.s:171    .text:00000000000000ec .L0 
GAS LISTING /tmp/cc4kz3Jo.s 			page 10


     /tmp/cc4kz3Jo.s:172    .text:00000000000000ec .L0 
     /tmp/cc4kz3Jo.s:175    .text:00000000000000f4 .L0 
     /tmp/cc4kz3Jo.s:176    .text:00000000000000f4 .L0 
     /tmp/cc4kz3Jo.s:180    .text:0000000000000104 .L0 
     /tmp/cc4kz3Jo.s:181    .text:0000000000000104 .L0 
     /tmp/cc4kz3Jo.s:185    .text:0000000000000114 .L0 
     /tmp/cc4kz3Jo.s:188    .text:0000000000000118 .L0 
     /tmp/cc4kz3Jo.s:189    .text:0000000000000118 .L0 
     /tmp/cc4kz3Jo.s:190    .text:0000000000000118 .L0 
     /tmp/cc4kz3Jo.s:194    .text:000000000000012c .L0 
     /tmp/cc4kz3Jo.s:203    .text:000000000000012c .L0 
     /tmp/cc4kz3Jo.s:8      .rodata.str1.8:0000000000000000 .LC0
     /tmp/cc4kz3Jo.s:58     .text:0000000000000014 .L0 
     /tmp/cc4kz3Jo.s:87     .rodata:0000000000000000 .L4
     /tmp/cc4kz3Jo.s:79     .text:0000000000000044 .L0 
     /tmp/cc4kz3Jo.s:11     .rodata.str1.8:0000000000000020 .LC1
     /tmp/cc4kz3Jo.s:105    .text:0000000000000064 .L0 
     /tmp/cc4kz3Jo.s:14     .rodata.str1.8:0000000000000060 .LC2
     /tmp/cc4kz3Jo.s:127    .text:0000000000000088 .L0 
     /tmp/cc4kz3Jo.s:17     .rodata.str1.8:00000000000000a0 .LC3
     /tmp/cc4kz3Jo.s:136    .text:000000000000009c .L0 
     /tmp/cc4kz3Jo.s:20     .rodata.str1.8:00000000000000f0 .LC4
     /tmp/cc4kz3Jo.s:145    .text:00000000000000b0 .L0 
     /tmp/cc4kz3Jo.s:23     .rodata.str1.8:0000000000000148 .LC5
     /tmp/cc4kz3Jo.s:154    .text:00000000000000c4 .L0 
     /tmp/cc4kz3Jo.s:26     .rodata.str1.8:0000000000000178 .LC6
     /tmp/cc4kz3Jo.s:163    .text:00000000000000d8 .L0 
     /tmp/cc4kz3Jo.s:29     .rodata.str1.8:00000000000001b8 .LC7
     /tmp/cc4kz3Jo.s:176    .text:00000000000000f4 .L0 
     /tmp/cc4kz3Jo.s:32     .rodata.str1.8:00000000000001d8 .LC8
     /tmp/cc4kz3Jo.s:181    .text:0000000000000104 .L0 
     /tmp/cc4kz3Jo.s:35     .rodata.str1.8:0000000000000230 .LC9
     /tmp/cc4kz3Jo.s:190    .text:0000000000000118 .L0 
     /tmp/cc4kz3Jo.s:186    .text:0000000000000118 .L2
     /tmp/cc4kz3Jo.s:109    .text:0000000000000074 .L1
     /tmp/cc4kz3Jo.s:97     .text:000000000000005c .L10
     /tmp/cc4kz3Jo.s:122    .text:0000000000000088 .L9
     /tmp/cc4kz3Jo.s:132    .text:000000000000009c .L8
     /tmp/cc4kz3Jo.s:141    .text:00000000000000b0 .L7
     /tmp/cc4kz3Jo.s:150    .text:00000000000000c4 .L6
     /tmp/cc4kz3Jo.s:159    .text:00000000000000d8 .L5
     /tmp/cc4kz3Jo.s:168    .text:00000000000000ec .L3
     /tmp/cc4kz3Jo.s:495    .debug_abbrev:0000000000000000 .Ldebug_abbrev0
     /tmp/cc4kz3Jo.s:802    .debug_str:0000000000000199 .LASF25
     /tmp/cc4kz3Jo.s:790    .debug_str:0000000000000125 .LASF26
     /tmp/cc4kz3Jo.s:772    .debug_str:0000000000000083 .LASF27
     /tmp/cc4kz3Jo.s:5      .text:0000000000000000 .Ltext0
     /tmp/cc4kz3Jo.s:197    .text:000000000000012c .Letext0
     /tmp/cc4kz3Jo.s:752    .debug_line:0000000000000000 .Ldebug_line0
     /tmp/cc4kz3Jo.s:754    .debug_str:0000000000000000 .LASF0
     /tmp/cc4kz3Jo.s:800    .debug_str:0000000000000186 .LASF1
     /tmp/cc4kz3Jo.s:782    .debug_str:00000000000000e2 .LASF2
     /tmp/cc4kz3Jo.s:776    .debug_str:00000000000000c2 .LASF4
     /tmp/cc4kz3Jo.s:768    .debug_str:0000000000000059 .LASF3
     /tmp/cc4kz3Jo.s:762    .debug_str:000000000000003b .LASF5
     /tmp/cc4kz3Jo.s:774    .debug_str:00000000000000af .LASF6
     /tmp/cc4kz3Jo.s:798    .debug_str:0000000000000173 .LASF7
GAS LISTING /tmp/cc4kz3Jo.s 			page 11


     /tmp/cc4kz3Jo.s:808    .debug_str:0000000000000271 .LASF8
     /tmp/cc4kz3Jo.s:758    .debug_str:000000000000001e .LASF9
     /tmp/cc4kz3Jo.s:760    .debug_str:000000000000002c .LASF10
     /tmp/cc4kz3Jo.s:804    .debug_str:000000000000025d .LASF11
     /tmp/cc4kz3Jo.s:764    .debug_str:0000000000000042 .LASF12
     /tmp/cc4kz3Jo.s:810    .debug_str:0000000000000281 .LASF13
     /tmp/cc4kz3Jo.s:780    .debug_str:00000000000000d6 .LASF14
     /tmp/cc4kz3Jo.s:792    .debug_str:0000000000000137 .LASF15
     /tmp/cc4kz3Jo.s:786    .debug_str:0000000000000106 .LASF16
     /tmp/cc4kz3Jo.s:788    .debug_str:000000000000011c .LASF28
     /tmp/cc4kz3Jo.s:778    .debug_str:00000000000000c9 .LASF29
     /tmp/cc4kz3Jo.s:42     .text:0000000000000000 .LFB0
     /tmp/cc4kz3Jo.s:195    .text:000000000000012c .LFE0
     /tmp/cc4kz3Jo.s:806    .debug_str:000000000000026c .LASF17
     /tmp/cc4kz3Jo.s:730    .debug_loc:0000000000000000 .LLST0
     /tmp/cc4kz3Jo.s:60     .text:0000000000000024 .LVL0
     /tmp/cc4kz3Jo.s:64     .text:000000000000002c .LVL1
     /tmp/cc4kz3Jo.s:71     .text:0000000000000038 .LVL3
     /tmp/cc4kz3Jo.s:102    .text:0000000000000064 .LVL4
     /tmp/cc4kz3Jo.s:107    .text:0000000000000074 .LVL5
     /tmp/cc4kz3Jo.s:129    .text:0000000000000098 .LVL6
     /tmp/cc4kz3Jo.s:138    .text:00000000000000ac .LVL7
     /tmp/cc4kz3Jo.s:147    .text:00000000000000c0 .LVL8
     /tmp/cc4kz3Jo.s:156    .text:00000000000000d4 .LVL9
     /tmp/cc4kz3Jo.s:165    .text:00000000000000e8 .LVL10
     /tmp/cc4kz3Jo.s:173    .text:00000000000000f4 .LVL11
     /tmp/cc4kz3Jo.s:178    .text:0000000000000104 .LVL12
     /tmp/cc4kz3Jo.s:183    .text:0000000000000114 .LVL13
     /tmp/cc4kz3Jo.s:192    .text:0000000000000128 .LVL14
     /tmp/cc4kz3Jo.s:794    .debug_str:000000000000014d .LASF18
     /tmp/cc4kz3Jo.s:812    .debug_str:0000000000000291 .LASF20
     /tmp/cc4kz3Jo.s:766    .debug_str:0000000000000052 .LASF19
     /tmp/cc4kz3Jo.s:770    .debug_str:000000000000006b .LASF21
     /tmp/cc4kz3Jo.s:796    .debug_str:0000000000000160 .LASF22
     /tmp/cc4kz3Jo.s:784    .debug_str:00000000000000f0 .LASF23
     /tmp/cc4kz3Jo.s:756    .debug_str:000000000000000d .LASF24
     /tmp/cc4kz3Jo.s:67     .text:0000000000000030 .LVL2
     /tmp/cc4kz3Jo.s:204    .debug_info:0000000000000000 .Ldebug_info0

UNDEFINED SYMBOLS
_Z11printStringPKc
__getc
_Z18Threads_C_API_testv
_Z16System_Mode_testv
